 arclite

 Timestamp is 6146ab14 (Sun Sep 19 04:14:28 2021)

 Preferred load address is 10000000

 Start         Length     Name                   Class
 0001:00000000 00000510H .text$di                CODE
 0001:00000510 00097be0H .text$mn                CODE
 0001:000980f0 00008d10H .text$x                 CODE
 0001:000a0e00 000006ffH .text$yd                CODE
 0002:00000000 0000023cH .idata$5                DATA
 0002:0000023c 00000004H .00cfg                  DATA
 0002:00000240 00000004H .CRT$XCA                DATA
 0002:00000244 0000000cH .CRT$XCC                DATA
 0002:00000250 00000008H .CRT$XCL                DATA
 0002:00000258 00000048H .CRT$XCU                DATA
 0002:000002a0 00000004H .CRT$XCZ                DATA
 0002:000002a4 00000004H .CRT$XIA                DATA
 0002:000002a8 00000018H .CRT$XIC                DATA
 0002:000002c0 00000004H .CRT$XIZ                DATA
 0002:000002c4 00000004H .CRT$XPA                DATA
 0002:000002c8 00000008H .CRT$XPX                DATA
 0002:000002d0 00000004H .CRT$XPXA               DATA
 0002:000002d4 00000004H .CRT$XPZ                DATA
 0002:000002d8 00000004H .CRT$XTA                DATA
 0002:000002dc 00000004H .CRT$XTZ                DATA
 0002:000002e0 00000000H .gfids$y                DATA
 0002:000002e0 0000f63cH .rdata                  DATA
 0002:0000f91c 000026f4H .rdata$r                DATA
 0002:00012010 000006a8H .rdata$sxdata           DATA
 0002:000126b8 0000035cH .rdata$zzzdbg           DATA
 0002:00012a14 00000004H .rtc$IAA                DATA
 0002:00012a18 00000004H .rtc$IZZ                DATA
 0002:00012a1c 00000004H .rtc$TAA                DATA
 0002:00012a20 00000008H .rtc$TZZ                DATA
 0002:00012a28 0000aae8H .xdata$x                DATA
 0002:0001d510 000001ecH .edata                  DATA
 0002:0001d6fc 00000078H .idata$2                DATA
 0002:0001d774 00000014H .idata$3                DATA
 0002:0001d788 0000023cH .idata$4                DATA
 0002:0001d9c4 00000a10H .idata$6                DATA
 0003:00000000 00000e80H .data                   DATA
 0003:00000e80 000011a0H .data$r                 DATA
 0003:00002020 00001600H .bss                    DATA
 0004:00000000 00000060H .rsrc$01                DATA
 0004:00000060 00000338H .rsrc$02                DATA

  Address         Publics by Value              Rva+Base       Lib:Object

 0000:00000000       ___dynamic_value_reloc_table 00000000     <absolute>
 0000:00000000       ___guard_iat_count         00000000     <absolute>
 0000:00000000       __except_list              00000000     <absolute>
 0000:00000000       ___guard_fids_count        00000000     <absolute>
 0000:00000000       ___guard_longjmp_table     00000000     <absolute>
 0000:00000000       ___hybrid_code_map_count   00000000     <absolute>
 0000:00000000       ___hybrid_auxiliary_iat    00000000     <absolute>
 0000:00000000       ___guard_longjmp_count     00000000     <absolute>
 0000:00000000       ___guard_fids_table        00000000     <absolute>
 0000:00000000       ___volatile_metadata       00000000     <absolute>
 0000:00000000       ___guard_iat_table         00000000     <absolute>
 0000:00000000       ___AbsoluteZero            00000000     <absolute>
 0000:00000000       ___enclave_config          00000000     <absolute>
 0000:00000000       ___hybrid_code_map         00000000     <absolute>
 0000:00000100       ___guard_flags             00000100     <absolute>
 0000:000001aa       ___safe_se_handler_count   000001aa     <absolute>
 0000:00000000       ___ImageBase               10000000     <linker-defined>
 0001:00000510       ??0Error@@QAE@JPBDH@Z      10001510 f i archive.obj
 0001:000005d0       ??0Error@@QAE@ABV?$basic_string@_WU?$char_traits@_W@std@@V?$allocator@_W@2@@std@@PBDH@Z 100015d0 f i archive.obj
 0001:000006c0       ??1ComBase@@UAE@XZ         100016c0 f i archive.obj
 0001:000006d0       ??_EComBase@@UAEPAXI@Z     100016d0 f i * CIL library *:* CIL module *
 0001:000006d0       ??_GComBase@@UAEPAXI@Z     100016d0 f i archive.obj
 0001:00000700       ?clear@PropVariant@@AAEXXZ 10001700 f i archive.obj
 0001:00000740       ??1PropVariant@@QAE@XZ     10001740 f i archive.obj
 0001:000007b0       ?ref@PropVariant@@QAEPAUtagPROPVARIANT@@XZ 100017b0 f i archive.obj
 0001:000007f0       ??4PropVariant@@QAEAAV0@_N@Z 100017f0 f i archive.obj
 0001:00000850       ?is_uint@PropVariant@@QBE_NXZ 10001850 f i archive.obj
 0001:00000880       ?get_uint@PropVariant@@QBE_KXZ 10001880 f i archive.obj
 0001:00000900       ?get_size@PropVariant@@QBE_KXZ 10001900 f i archive.obj
 0001:00000990       ?get_str@PropVariant@@QBE?AV?$basic_string@_WU?$char_traits@_W@std@@V?$allocator@_W@2@@std@@XZ 10001990 f i archive.obj
 0001:00000a50       ?get_bool@PropVariant@@QBE_NXZ 10001a50 f i archive.obj
 0001:00000a90       ?get_filetime@PropVariant@@QBE?AU_FILETIME@@XZ 10001a90 f i archive.obj
 0001:00000ae0       ??1Error@@QAE@XZ           10001ae0 f i archive.obj
 0001:00000b20       ??0Error@@QAE@ABU0@@Z      10001b20 f i archive.obj
 0001:00000bb0       ??0ArcFormat@@QAE@XZ       10001bb0 f i archive.obj
 0001:00000ca0       ??1?$map@V?$basic_string@_WU?$char_traits@_W@std@@V?$allocator@_W@2@@std@@V12@U?$less@V?$basic_string@_WU?$char_traits@_W@std@@V?$allocator@_W@2@@std@@@2@V?$allocator@U?$pair@$$CBV?$basic_string@_WU?$char_traits@_W@std@@V?$allocator@_W@2@@std@@V12@@std@@@2@@std@@QAE@XZ 10001ca0 f i archive.obj
 0001:00000cc0       ?arc_name@Archive@@QBE?AV?$basic_string@_WU?$char_traits@_W@std@@V?$allocator@_W@2@@std@@XZ 10001cc0 f i archive.obj
 0001:00000d70       ?get_bool_prop@ArcLib@@QBEJIKAA_N@Z 10001d70 f   archive.obj
 0001:00000e40       ?get_uint_prop@ArcLib@@QBEJIKAAI@Z 10001e40 f   archive.obj
 0001:00000f30       ?get_string_prop@ArcLib@@QBEJIKAAV?$basic_string@_WU?$char_traits@_W@std@@V?$allocator@_W@2@@std@@@Z 10001f30 f   archive.obj
 0001:00001030       ?get_bytes_prop@ArcLib@@QBEJIKAAV?$vector@EV?$allocator@E@std@@@std@@@Z 10002030 f   archive.obj
 0001:00001140       ?get_arc_types@ArcFormats@@QBE?AV?$list@V?$vector@EV?$allocator@E@std@@@std@@V?$allocator@V?$vector@EV?$allocator@E@std@@@std@@@2@@std@@XZ 10002140 f   archive.obj
 0001:00001250       ?find_by_name@ArcFormats@@QBE?AV?$list@V?$vector@EV?$allocator@E@std@@@std@@V?$allocator@V?$vector@EV?$allocator@E@std@@@std@@@2@@std@@ABV?$basic_string@_WU?$char_traits@_W@std@@V?$allocator@_W@2@@3@@Z 10002250 f   archive.obj
 0001:00001430       ?find_by_ext@ArcFormats@@QBE?AV?$list@V?$vector@EV?$allocator@E@std@@@std@@V?$allocator@V?$vector@EV?$allocator@E@std@@@std@@@2@@std@@ABV?$basic_string@_WU?$char_traits@_W@std@@V?$allocator@_W@2@@3@@Z 10002430 f   archive.obj
 0001:00001750       ?find_by_name@SfxModules@@QBEIABV?$basic_string@_WU?$char_traits@_W@std@@V?$allocator@_W@2@@std@@@Z 10002750 f   archive.obj
 0001:00001930       ?to_string@ArcChain@@QBE?AV?$basic_string@_WU?$char_traits@_W@std@@V?$allocator@_W@2@@std@@XZ 10002930 f   archive.obj
 0001:00001ca0       ??0MyCompressCodecsInfo@@QAE@ABV?$vector@UArcLib@@V?$allocator@UArcLib@@@std@@@std@@ABV?$vector@UCDllCodecInfo@@V?$allocator@UCDllCodecInfo@@@std@@@2@ABV?$vector@UCDllHasherInfo@@V?$allocator@UCDllHasherInfo@@@std@@@2@I@Z 10002ca0 f i archive.obj
 0001:00001fa0       ?QueryInterface@MyCompressCodecsInfo@@UAGJABU_GUID@@PAPAX@Z 10002fa0 f i archive.obj
 0001:00002080       ?AddRef@ArchiveExtractor@@UAGKXZ 10003080 f i extract.obj
 0001:00002080       ?AddRef@ArchiveTester@@UAGKXZ 10003080 f i test.obj
 0001:00002080       ?AddRef@FileReadStream@@UAGKXZ 10003080 f i update.obj
 0001:00002080       ?AddRef@ArchiveUpdater@@UAGKXZ 10003080 f i update.obj
 0001:00002080       ?AddRef@MyCompressCodecsInfo@@UAGKXZ 10003080 f i archive.obj
 0001:000020a0       ?Release@ArchiveTester@@UAGKXZ 100030a0 f i test.obj
 0001:000020a0       ?Release@MyCompressCodecsInfo@@UAGKXZ 100030a0 f i archive.obj
 0001:000020a0       ?Release@FileReadStream@@UAGKXZ 100030a0 f i update.obj
 0001:000020a0       ?Release@ArchiveExtractor@@UAGKXZ 100030a0 f i extract.obj
 0001:000020a0       ?Release@ArchiveUpdater@@UAGKXZ 100030a0 f i update.obj
 0001:000020d0       ?GetNumHashers@MyCompressCodecsInfo@@UAGIXZ 100030d0 f i archive.obj
 0001:000020f0       ?GetHasherProp@MyCompressCodecsInfo@@UAGJIKPAUtagPROPVARIANT@@@Z 100030f0 f i archive.obj
 0001:00002150       ?CreateHasher@MyCompressCodecsInfo@@UAGJIPAPAUIHasher@@@Z 10003150 f i archive.obj
 0001:000021b0       ?GetNumMethods@MyCompressCodecsInfo@@UAGJPAI@Z 100031b0 f i archive.obj
 0001:000021d0       ?GetProperty@MyCompressCodecsInfo@@UAGJIKPAUtagPROPVARIANT@@@Z 100031d0 f i archive.obj
 0001:000022d0       ?CreateDecoder@MyCompressCodecsInfo@@UAGJIPBU_GUID@@PAPAX@Z 100032d0 f i archive.obj
 0001:00002370       ?CreateEncoder@MyCompressCodecsInfo@@UAGJIPBU_GUID@@PAPAX@Z 10003370 f i archive.obj
 0001:00002410       ??_GMyCompressCodecsInfo@@UAEPAXI@Z 10003410 f i archive.obj
 0001:00002410       ??_EMyCompressCodecsInfo@@UAEPAXI@Z 10003410 f i * CIL library *:* CIL module *
 0001:00002490       ??1CDllCodecInfo@@QAE@XZ   10003490 f i archive.obj
 0001:000024f0       ?get@ArcAPI@@CAPAV1@XZ     100034f0 f   archive.obj
 0001:00002610       ?load_libs@ArcAPI@@AAEXABV?$basic_string@_WU?$char_traits@_W@std@@V?$allocator@_W@2@@std@@@Z 10003610 f   archive.obj
 0001:00002bb0       ??1ArcLib@@QAE@XZ          10003bb0 f i archive.obj
 0001:00002c50       ?load_codecs@ArcAPI@@AAEXABV?$basic_string@_WU?$char_traits@_W@std@@V?$allocator@_W@2@@std@@@Z 10003c50 f   archive.obj
 0001:000039b0       ?description@SfxModule@@QBE?AV?$basic_string@_WU?$char_traits@_W@std@@V?$allocator@_W@2@@std@@XZ 100049b0 f   archive.obj
 0001:00003c70       ?find_sfx_modules@ArcAPI@@AAEXABV?$basic_string@_WU?$char_traits@_W@std@@V?$allocator@_W@2@@std@@@Z 10004c70 f   archive.obj
 0001:000040b0       ??1?$basic_string@_WU?$char_traits@_W@std@@V?$allocator@_W@2@@std@@QAE@XZ 100050b0 f i archive.obj
 0001:000040b0       ??1CacheRecord@FileWriteCache@@QAE@XZ 100050b0 f i extract.obj
 0001:000040b0       ??1RsrcId@@QAE@XZ          100050b0 f i rsrc.obj
 0001:000040b0       ?_Tidy_deallocate@?$basic_string@_WU?$char_traits@_W@std@@V?$allocator@_W@2@@std@@AAEXXZ 100050b0 f i archive.obj
 0001:000040b0       ??1SfxModule@@QAE@XZ       100050b0 f i archive.obj
 0001:000040b0       ??1IdLang@@QAE@XZ          100050b0 f i rsrc.obj
 0001:000040b0       ??1FileIndexInfo@@QAE@XZ   100050b0 f i update.obj
 0001:00004310       ?load@ArcAPI@@AAEXXZ       10005310 f   archive.obj
 0001:000059b0       ??1ArcFormat@@QAE@XZ       100069b0 f i archive.obj
 0001:00005a90       ??_GArcAPI@@AAEPAXI@Z      10006a90 f i archive.obj
 0001:00005bc0       ?get_default_name@Archive@@ABE?AV?$basic_string@_WU?$char_traits@_W@std@@V?$allocator@_W@2@@std@@XZ 10006bc0 f   archive.obj
 0001:00005f00       ?get_temp_file_name@Archive@@ABE?AV?$basic_string@_WU?$char_traits@_W@std@@V?$allocator@_W@2@@std@@XZ 10006f00 f   archive.obj
 0001:000060a0       ?make_index@Archive@@QAEXXZ 100070a0 f   archive.obj
 0001:00006fe0       ??1?$map@HIU?$less@H@std@@V?$allocator@U?$pair@$$CBHI@std@@@2@@std@@QAE@XZ 10007fe0 f i ui.obj
 0001:00006fe0       ??1?$map@IIU?$less@I@std@@V?$allocator@U?$pair@$$CBII@std@@@2@@std@@QAE@XZ 10007fe0 f i archive.obj
 0001:00007070       ??1ArcFileInfo@@QAE@XZ     10008070 f i archive.obj
 0001:000070d0       ??1?$stack@IV?$deque@IV?$allocator@I@std@@@std@@@std@@QAE@XZ 100080d0 f i archive.obj
 0001:000070e0       ?find_dir@Archive@@QAEIABV?$basic_string@_WU?$char_traits@_W@std@@V?$allocator@_W@2@@std@@@Z 100080e0 f   archive.obj
 0001:000073c0       ?get_dir_list@Archive@@QAE?AU?$pair@V?$_Vector_const_iterator@V?$_Vector_val@U?$_Simple_types@I@std@@@std@@@std@@V12@@std@@I@Z 100083c0 f   archive.obj
 0001:00007460       ?get_path@Archive@@QAE?AV?$basic_string@_WU?$char_traits@_W@std@@V?$allocator@_W@2@@std@@I@Z 10008460 f   archive.obj
 0001:00007670       ?get_file_info@Archive@@QAE?AUFindData@@I@Z 10008670 f   archive.obj
 0001:00007740       ?get_main_file@Archive@@QBE_NAAI@Z 10008740 f   archive.obj
 0001:000077f0       ?get_attr@Archive@@QBEKI@Z 100087f0 f   archive.obj
 0001:000078f0       ?get_size@Archive@@QBE_KI@Z 100088f0 f   archive.obj
 0001:000079e0       ?get_ctime@Archive@@QBE?AU_FILETIME@@I@Z 100089e0 f   archive.obj
 0001:00007af0       ?get_mtime@Archive@@QBE?AU_FILETIME@@I@Z 10008af0 f   archive.obj
 0001:00007c00       ?get_atime@Archive@@QBE?AU_FILETIME@@I@Z 10008c00 f   archive.obj
 0001:00007d10       ?get_anti@Archive@@QBE_NI@Z 10008d10 f   archive.obj
 0001:00007dd0       ?read_open_results@Archive@@QAEXXZ 10008dd0 f   archive.obj
 0001:00008940       ??1?$deque@IV?$allocator@I@std@@@std@@QAE@XZ 10009940 f i archive.obj
 0001:000089f0       ??A?$map@IIU?$less@I@std@@V?$allocator@U?$pair@$$CBII@std@@@2@@std@@QAEAAIABI@Z 100099f0 f i archive.obj
 0001:00008ab0       ??1?$_Tree@V?$_Tmap_traits@IIU?$less@I@std@@V?$allocator@U?$pair@$$CBII@std@@@2@$0A@@std@@@std@@QAE@XZ 10009ab0 f i archive.obj
 0001:00008ab0       ??1?$_Tree@V?$_Tmap_traits@HIU?$less@H@std@@V?$allocator@U?$pair@$$CBHI@std@@@2@$0A@@std@@@std@@QAE@XZ 10009ab0 f i ui.obj
 0001:00008af0       ??1?$Buffer@UFarListItem@@@@QAE@XZ 10009af0 f i farutils.obj
 0001:00008af0       ??1?$Buffer@_W@@QAE@XZ     10009af0 f i farutils.obj
 0001:00008af0       ??1?$Buffer@D@@QAE@XZ      10009af0 f i archive.obj
 0001:00008af0       ??1?$Buffer@UFarDialogItem@@@@QAE@XZ 10009af0 f i farutils.obj
 0001:00008af0       ??1?$Buffer@UFarList@@@@QAE@XZ 10009af0 f i farutils.obj
 0001:00008af0       ??1?$Buffer@E@@QAE@XZ      10009af0 f i common.obj
 0001:00008b00       ?push_back@?$vector@UArcFileInfo@@V?$allocator@UArcFileInfo@@@std@@@std@@QAEXABUArcFileInfo@@@Z 10009b00 f i archive.obj
 0001:00008b50       ??1?$vector@UCDllHasherInfo@@V?$allocator@UCDllHasherInfo@@@std@@@std@@QAE@XZ 10009b50 f i archive.obj
 0001:00008b50       ??1?$vector@USigData@@V?$allocator@USigData@@@std@@@std@@QAE@XZ 10009b50 f i open.obj
 0001:00008b50       ??1?$vector@UStrPos@@V?$allocator@UStrPos@@@std@@@std@@QAE@XZ 10009b50 f i msearch.obj
 0001:00008bb0       ??1?$vector@UCDllCodecInfo@@V?$allocator@UCDllCodecInfo@@@std@@@std@@QAE@XZ 10009bb0 f i archive.obj
 0001:00008c20       ??1?$vector@UArcLib@@V?$allocator@UArcLib@@@std@@@std@@QAE@XZ 10009c20 f i archive.obj
 0001:00008ca0       ?_Tidy@?$vector@V?$basic_string@_WU?$char_traits@_W@std@@V?$allocator@_W@2@@std@@V?$allocator@V?$basic_string@_WU?$char_traits@_W@std@@V?$allocator@_W@2@@std@@@2@@std@@AAEXXZ 10009ca0 f i cmdline.obj
 0001:00008ca0       ??1?$vector@USfxModule@@V?$allocator@USfxModule@@@std@@@std@@QAE@XZ 10009ca0 f i archive.obj
 0001:00008d10       ?at@?$map@V?$vector@EV?$allocator@E@std@@@std@@UArcFormat@@U?$less@V?$vector@EV?$allocator@E@std@@@std@@@2@V?$allocator@U?$pair@$$CBV?$vector@EV?$allocator@E@std@@@std@@UArcFormat@@@std@@@2@@std@@QBEABUArcFormat@@ABV?$vector@EV?$allocator@E@std@@@2@@Z 10009d10 f i archive.obj
 0001:00008d60       ??A?$map@V?$vector@EV?$allocator@E@std@@@std@@UArcFormat@@U?$less@V?$vector@EV?$allocator@E@std@@@std@@@2@V?$allocator@U?$pair@$$CBV?$vector@EV?$allocator@E@std@@@std@@UArcFormat@@@std@@@2@@std@@QAEAAUArcFormat@@ABV?$vector@EV?$allocator@E@std@@@1@@Z 10009d60 f i archive.obj
 0001:00008e40       ??1?$vector@V?$vector@EV?$allocator@E@std@@@std@@V?$allocator@V?$vector@EV?$allocator@E@std@@@std@@@2@@std@@QAE@XZ 10009e40 f i archive.obj
 0001:00008e50       ??A?$map@V?$basic_string@_WU?$char_traits@_W@std@@V?$allocator@_W@2@@std@@V12@U?$less@V?$basic_string@_WU?$char_traits@_W@std@@V?$allocator@_W@2@@std@@@2@V?$allocator@U?$pair@$$CBV?$basic_string@_WU?$char_traits@_W@std@@V?$allocator@_W@2@@std@@V12@@std@@@2@@std@@QAEAAV?$basic_string@_WU?$char_traits@_W@std@@V?$allocator@_W@2@@1@$$QAV21@@Z 10009e50 f i archive.obj
 0001:00008fa0       ??4?$vector@EV?$allocator@E@std@@@std@@QAEAAV01@ABV01@@Z 10009fa0 f i archive.obj
 0001:00008ff0       ??1ArcEntry@@QAE@XZ        10009ff0 f i open.obj
 0001:00008ff0       ??1?$vector@EV?$allocator@E@std@@@std@@QAE@XZ 10009ff0 f i archive.obj
 0001:00008ff0       ??1VersionEncoder@@QAE@XZ  10009ff0 f i rsrc.obj
 0001:00009040       ??0?$vector@EV?$allocator@E@std@@@std@@QAE@ABV01@@Z 1000a040 f i archive.obj
 0001:000090b0       ??1?$list@V?$vector@EV?$allocator@E@std@@@std@@V?$allocator@V?$vector@EV?$allocator@E@std@@@std@@@2@@std@@QAE@XZ 1000a0b0 f i archive.obj
 0001:000090d0       ??4?$list@V?$basic_string@_WU?$char_traits@_W@std@@V?$allocator@_W@2@@std@@V?$allocator@V?$basic_string@_WU?$char_traits@_W@std@@V?$allocator@_W@2@@std@@@2@@std@@QAEAAV01@ABV01@@Z 1000a0d0 f i archive.obj
 0001:000091c0       ??1?$list@V?$basic_string@_WU?$char_traits@_W@std@@V?$allocator@_W@2@@std@@V?$allocator@V?$basic_string@_WU?$char_traits@_W@std@@V?$allocator@_W@2@@std@@@2@@std@@QAE@XZ 1000a1c0 f i archive.obj
 0001:000091e0       ??0?$list@V?$basic_string@_WU?$char_traits@_W@std@@V?$allocator@_W@2@@std@@V?$allocator@V?$basic_string@_WU?$char_traits@_W@std@@V?$allocator@_W@2@@std@@@2@@std@@QAE@V?$initializer_list@V?$basic_string@_WU?$char_traits@_W@std@@V?$allocator@_W@2@@std@@@1@@Z 1000a1e0 f i archive.obj
 0001:00009330       ?push_back@?$list@V?$basic_string@_WU?$char_traits@_W@std@@V?$allocator@_W@2@@std@@V?$allocator@V?$basic_string@_WU?$char_traits@_W@std@@V?$allocator@_W@2@@std@@@2@@std@@QAEX$$QAV?$basic_string@_WU?$char_traits@_W@std@@V?$allocator@_W@2@@2@@Z 1000a330 f i archive.obj
 0001:00009400       ??0?$list@V?$basic_string@_WU?$char_traits@_W@std@@V?$allocator@_W@2@@std@@V?$allocator@V?$basic_string@_WU?$char_traits@_W@std@@V?$allocator@_W@2@@std@@@2@@std@@QAE@ABV01@@Z 1000a400 f i archive.obj
 0001:00009550       ?substr@?$basic_string@_WU?$char_traits@_W@std@@V?$allocator@_W@2@@std@@QBE?AV12@II@Z 1000a550 f i archive.obj
 0001:000095a0       ?empty@?$basic_string@_WU?$char_traits@_W@std@@V?$allocator@_W@2@@std@@QBE_NXZ 1000a5a0 f i archive.obj
 0001:000095b0       ?clear@?$basic_string@_WU?$char_traits@_W@std@@V?$allocator@_W@2@@std@@QAEXXZ 1000a5b0 f i archive.obj
 0001:000095d0       ?erase@?$basic_string@_WU?$char_traits@_W@std@@V?$allocator@_W@2@@std@@QAEAAV12@II@Z 1000a5d0 f i archive.obj
 0001:00009630       ?insert@?$basic_string@_WU?$char_traits@_W@std@@V?$allocator@_W@2@@std@@QAEAAV12@II_W@Z 1000a630 f i archive.obj
 0001:000097b0       ??R<lambda_1>@?1??insert@?$basic_string@_WU?$char_traits@_W@std@@V?$allocator@_W@2@@std@@QAEAAV23@II_W@Z@QBEXQA_WQB_WIII0@Z 1000a7b0 f i archive.obj
 0001:00009820       ??4?$basic_string@_WU?$char_traits@_W@std@@V?$allocator@_W@2@@std@@QAEAAV01@ABV01@@Z 1000a820 f i archive.obj
 0001:00009820       ?assign@?$basic_string@_WU?$char_traits@_W@std@@V?$allocator@_W@2@@std@@QAEAAV12@ABV12@@Z 1000a820 f i plugin.obj
 0001:00009850       ??4?$basic_string@_WU?$char_traits@_W@std@@V?$allocator@_W@2@@std@@QAEAAV01@$$QAV01@@Z 1000a850 f i archive.obj
 0001:000098f0       ??0?$basic_string@_WU?$char_traits@_W@std@@V?$allocator@_W@2@@std@@QAE@QB_W@Z 1000a8f0 f i archive.obj
 0001:00009940       ??0?$basic_string@_WU?$char_traits@_W@std@@V?$allocator@_W@2@@std@@QAE@XZ 1000a940 f i archive.obj
 0001:00009960       ??0?$basic_string@_WU?$char_traits@_W@std@@V?$allocator@_W@2@@std@@QAE@ABV01@@Z 1000a960 f i archive.obj
 0001:00009a00       ??1?$_Tidy_guard@V?$vector@EV?$allocator@E@std@@@std@@@std@@QAE@XZ 1000aa00 f i archive.obj
 0001:00009a60       ?_Xlength@?$vector@V?$shared_ptr@VArchive@@@std@@V?$allocator@V?$shared_ptr@VArchive@@@std@@@2@@std@@CAXXZ 1000aa60 f i open.obj
 0001:00009a60       ?_Xlength@?$vector@UFarMenuItem@@V?$allocator@UFarMenuItem@@@std@@@std@@CAXXZ 1000aa60 f i farutils.obj
 0001:00009a60       ?_Xlength@?$vector@UInfoPanelLine@@V?$allocator@UInfoPanelLine@@@std@@@std@@CAXXZ 1000aa60 f i plugin.obj
 0001:00009a60       ?_Xlength@?$vector@UCDllHasherInfo@@V?$allocator@UCDllHasherInfo@@@std@@@std@@CAXXZ 1000aa60 f i archive.obj
 0001:00009a60       ?_Xlength@?$vector@IV?$allocator@I@std@@@std@@CAXXZ 1000aa60 f i archive.obj
 0001:00009a60       ?_Xlength@?$vector@V?$basic_string@_WU?$char_traits@_W@std@@V?$allocator@_W@2@@std@@V?$allocator@V?$basic_string@_WU?$char_traits@_W@std@@V?$allocator@_W@2@@std@@@2@@std@@CAXXZ 1000aa60 f i cmdline.obj
 0001:00009a60       ?_Xlength@?$vector@UUpdateProfile@@V?$allocator@UUpdateProfile@@@std@@@std@@CAXXZ 1000aa60 f i options.obj
 0001:00009a60       ?_Xlength@?$vector@UExternalCodec@@V?$allocator@UExternalCodec@@@std@@@std@@CAXXZ 1000aa60 f i options.obj
 0001:00009a60       ?_Xlength@?$vector@UArcLib@@V?$allocator@UArcLib@@@std@@@std@@CAXXZ 1000aa60 f i archive.obj
 0001:00009a60       ?_Xlength@?$vector@UDialogItem@Far@@V?$allocator@UDialogItem@Far@@@std@@@std@@CAXXZ 1000aa60 f i farutils.obj
 0001:00009a60       ?_Xlength@?$vector@VPropVariant@@V?$allocator@VPropVariant@@@std@@@std@@CAXXZ 1000aa60 f i update.obj
 0001:00009a60       ?_Xlength@?$vector@USigData@@V?$allocator@USigData@@@std@@@std@@CAXXZ 1000aa60 f i open.obj
 0001:00009a60       ?_Xlength@?$vector@USfxProfile@@V?$allocator@USfxProfile@@@std@@@std@@CAXXZ 1000aa60 f i sfx.obj
 0001:00009a60       ?_Xlength@?$vector@EV?$allocator@E@std@@@std@@CAXXZ 1000aa60 f i archive.obj
 0001:00009a60       ?_Xlength@?$vector@UFarListItem@@V?$allocator@UFarListItem@@@std@@@std@@CAXXZ 1000aa60 f i ui.obj
 0001:00009a60       ?_Xlength@?$vector@UCDllCodecInfo@@V?$allocator@UCDllCodecInfo@@@std@@@std@@CAXXZ 1000aa60 f i archive.obj
 0001:00009a60       ?_Xlength@?$vector@UArcFileInfo@@V?$allocator@UArcFileInfo@@@std@@@std@@CAXXZ 1000aa60 f i archive.obj
 0001:00009a60       ?_Xlength@?$vector@PB_WV?$allocator@PB_W@std@@@std@@CAXXZ 1000aa60 f i update.obj
 0001:00009a60       ?_Xlength@?$vector@V?$vector@EV?$allocator@E@std@@@std@@V?$allocator@V?$vector@EV?$allocator@E@std@@@std@@@2@@std@@CAXXZ 1000aa60 f i archive.obj
 0001:00009a60       ?_Xlength@?$vector@UStrPos@@V?$allocator@UStrPos@@@std@@@std@@CAXXZ 1000aa60 f i msearch.obj
 0001:00009a60       ?_Xlength@?$vector@USfxModule@@V?$allocator@USfxModule@@@std@@@std@@CAXXZ 1000aa60 f i archive.obj
 0001:00009a70       ?_Destroy@?$vector@UArcFileInfo@@V?$allocator@UArcFileInfo@@@std@@@std@@AAEXPAUArcFileInfo@@0@Z 1000aa70 f i archive.obj
 0001:00009a90       ?_Reallocate_exactly@?$vector@UArcFileInfo@@V?$allocator@UArcFileInfo@@@std@@@std@@AAEXI@Z 1000aa90 f i archive.obj
 0001:00009ae0       ?_Reallocate_exactly@?$vector@PB_WV?$allocator@PB_W@std@@@std@@AAEXI@Z 1000aae0 f i update.obj
 0001:00009ae0       ?_Reallocate_exactly@?$vector@IV?$allocator@I@std@@@std@@AAEXI@Z 1000aae0 f i archive.obj
 0001:00009b60       ?_Tidy@?$vector@V?$vector@EV?$allocator@E@std@@@std@@V?$allocator@V?$vector@EV?$allocator@E@std@@@std@@@2@@std@@AAEXXZ 1000ab60 f i archive.obj
 0001:00009bd0       ?_Destroy@?$vector@V?$vector@EV?$allocator@E@std@@@std@@V?$allocator@V?$vector@EV?$allocator@E@std@@@std@@@2@@std@@AAEXPAV?$vector@EV?$allocator@E@std@@@2@0@Z 1000abd0 f i archive.obj
 0001:00009bf0       ?_Getal@?$_Tree@V?$_Tset_traits@V?$basic_string@_WU?$char_traits@_W@std@@V?$allocator@_W@2@@std@@U?$less@V?$basic_string@_WU?$char_traits@_W@std@@V?$allocator@_W@2@@std@@@2@V?$allocator@V?$basic_string@_WU?$char_traits@_W@std@@V?$allocator@_W@2@@std@@@2@$0A@@std@@@std@@IAEAAV?$allocator@U?$_Tree_node@V?$basic_string@_WU?$char_traits@_W@std@@V?$allocator@_W@2@@std@@PAX@std@@@2@XZ 1000abf0 f i open.obj
 0001:00009bf0       ?_Getal@?$_Tree@V?$_Tmap_traits@V?$basic_string@_WU?$char_traits@_W@std@@V?$allocator@_W@2@@std@@V12@U?$less@V?$basic_string@_WU?$char_traits@_W@std@@V?$allocator@_W@2@@std@@@2@V?$allocator@U?$pair@$$CBV?$basic_string@_WU?$char_traits@_W@std@@V?$allocator@_W@2@@std@@V12@@std@@@2@$0A@@std@@@std@@IAEAAV?$allocator@U?$_Tree_node@U?$pair@$$CBV?$basic_string@_WU?$char_traits@_W@std@@V?$allocator@_W@2@@std@@V12@@std@@PAX@std@@@2@XZ 1000abf0 f i archive.obj
 0001:00009c00       ?_Buy_raw@?$vector@EV?$allocator@E@std@@@std@@AAEXI@Z 1000ac00 f i archive.obj
 0001:00009c80       ?replace@?$basic_string@_WU?$char_traits@_W@std@@V?$allocator@_W@2@@std@@QAEAAV12@IIQB_WI@Z 1000ac80 f i archive.obj
 0001:00009e10       ?insert@?$basic_string@_WU?$char_traits@_W@std@@V?$allocator@_W@2@@std@@QAEAAV12@IQB_WI@Z 1000ae10 f i archive.obj
 0001:00009fd0       ??4?$basic_string@_WU?$char_traits@_W@std@@V?$allocator@_W@2@@std@@QAEAAV01@QB_W@Z 1000afd0 f i attr.obj
 0001:00009fd0       ?assign@?$basic_string@_WU?$char_traits@_W@std@@V?$allocator@_W@2@@std@@QAEAAV12@QB_W@Z 1000afd0 f i archive.obj
 0001:0000a000       ?append@?$basic_string@_WU?$char_traits@_W@std@@V?$allocator@_W@2@@std@@QAEAAV12@QB_WI@Z 1000b000 f i archive.obj
 0001:0000a180       ?append@?$basic_string@_WU?$char_traits@_W@std@@V?$allocator@_W@2@@std@@QAEAAV12@ABV12@@Z 1000b180 f i archive.obj
 0001:0000a1a0       ??E?$_Tree_unchecked_const_iterator@V?$_Tree_val@U?$_Tree_simple_types@U?$pair@$$CBIUFileIndexInfo@@@std@@@std@@@std@@U_Iterator_base0@2@@std@@QAEAAV01@XZ 1000b1a0 f i update.obj
 0001:0000a1a0       ??E?$_Tree_unchecked_const_iterator@V?$_Tree_val@U?$_Tree_simple_types@U?$pair@$$CBV?$vector@EV?$allocator@E@std@@@std@@UArcFormat@@@std@@@std@@@std@@U_Iterator_base0@2@@std@@QAEAAV01@XZ 1000b1a0 f i archive.obj
 0001:0000a1a0       ??E?$_Tree_unchecked_const_iterator@V?$_Tree_val@U?$_Tree_simple_types@V?$basic_string@_WU?$char_traits@_W@std@@V?$allocator@_W@2@@std@@@std@@@std@@U_Iterator_base0@2@@std@@QAEAAV01@XZ 1000b1a0 f i extract.obj
 0001:0000a200       ?_Change_array@?$vector@UArcFileInfo@@V?$allocator@UArcFileInfo@@@std@@@std@@AAEXQAUArcFileInfo@@II@Z 1000b200 f i archive.obj
 0001:0000a270       ?allocate@?$allocator@UFarMenuItem@@@std@@QAEPAUFarMenuItem@@I@Z 1000b270 f i farutils.obj
 0001:0000a270       ?allocate@?$allocator@UArcFileInfo@@@std@@QAEPAUArcFileInfo@@I@Z 1000b270 f i archive.obj
 0001:0000a2d0       ?deallocate@?$allocator@UArcFileInfo@@@std@@QAEXQAUArcFileInfo@@I@Z 1000b2d0 f i archive.obj
 0001:0000a310       ?_Change_array@?$vector@PB_WV?$allocator@PB_W@std@@@std@@AAEXQAPB_WII@Z 1000b310 f i update.obj
 0001:0000a310       ?_Change_array@?$vector@IV?$allocator@I@std@@@std@@AAEXQAIII@Z 1000b310 f i archive.obj
 0001:0000a370       ?allocate@?$allocator@PB_W@std@@QAEPAPB_WI@Z 1000b370 f i update.obj
 0001:0000a370       ?allocate@?$allocator@I@std@@QAEPAII@Z 1000b370 f i archive.obj
 0001:0000a3d0       ?_Destroy@?$vector@UCDllCodecInfo@@V?$allocator@UCDllCodecInfo@@@std@@@std@@AAEXPAUCDllCodecInfo@@0@Z 1000b3d0 f i archive.obj
 0001:0000a3f0       ?deallocate@?$allocator@UCDllCodecInfo@@@std@@QAEXQAUCDllCodecInfo@@I@Z 1000b3f0 f i archive.obj
 0001:0000a430       ?_Destroy@?$vector@UArcLib@@V?$allocator@UArcLib@@@std@@@std@@AAEXPAUArcLib@@0@Z 1000b430 f i archive.obj
 0001:0000a460       ?deallocate@?$allocator@UArcLib@@@std@@QAEXQAUArcLib@@I@Z 1000b460 f i archive.obj
 0001:0000a4a0       ?_Destroy@?$vector@V?$basic_string@_WU?$char_traits@_W@std@@V?$allocator@_W@2@@std@@V?$allocator@V?$basic_string@_WU?$char_traits@_W@std@@V?$allocator@_W@2@@std@@@2@@std@@AAEXPAV?$basic_string@_WU?$char_traits@_W@std@@V?$allocator@_W@2@@2@0@Z 1000b4a0 f i cmdline.obj
 0001:0000a4a0       ?_Destroy@?$vector@USfxModule@@V?$allocator@USfxModule@@@std@@@std@@AAEXPAUSfxModule@@0@Z 1000b4a0 f i archive.obj
 0001:0000a4c0       ?deallocate@?$allocator@V?$basic_string@_WU?$char_traits@_W@std@@V?$allocator@_W@2@@std@@@std@@QAEXQAV?$basic_string@_WU?$char_traits@_W@std@@V?$allocator@_W@2@@2@I@Z 1000b4c0 f i cmdline.obj
 0001:0000a4c0       ?deallocate@?$allocator@USfxModule@@@std@@QAEXQAUSfxModule@@I@Z 1000b4c0 f i archive.obj
 0001:0000a500       ?allocate@?$allocator@D@std@@QAEPADI@Z 1000b500 f i archive.obj
 0001:0000a500       ?allocate@?$allocator@E@std@@QAEPAEI@Z 1000b500 f i archive.obj
 0001:0000a560       ?deallocate@?$allocator@V?$vector@EV?$allocator@E@std@@@std@@@std@@QAEXQAV?$vector@EV?$allocator@E@std@@@2@I@Z 1000b560 f i archive.obj
 0001:0000a5a0       ?_Xran@?$_String_val@U?$_Simple_types@_W@std@@@std@@SAXXZ 1000b5a0 f i archive.obj
 0001:0000a5b0       ??$_Emplace@ABV?$basic_string@_WU?$char_traits@_W@std@@V?$allocator@_W@2@@std@@@?$list@V?$basic_string@_WU?$char_traits@_W@std@@V?$allocator@_W@2@@std@@V?$allocator@V?$basic_string@_WU?$char_traits@_W@std@@V?$allocator@_W@2@@std@@@2@@std@@QAEPAU?$_List_node@V?$basic_string@_WU?$char_traits@_W@std@@V?$allocator@_W@2@@std@@PAX@1@QAU21@ABV?$basic_string@_WU?$char_traits@_W@std@@V?$allocator@_W@2@@1@@Z 1000b5b0 f i archive.obj
 0001:0000a640       ??$?8_WU?$char_traits@_W@std@@V?$allocator@_W@1@@std@@YA_NABV?$basic_string@_WU?$char_traits@_W@std@@V?$allocator@_W@2@@0@0@Z 1000b640 f i archive.obj
 0001:0000a670       ??$?H_WU?$char_traits@_W@std@@V?$allocator@_W@1@@std@@YA?AV?$basic_string@_WU?$char_traits@_W@std@@V?$allocator@_W@2@@0@ABV10@QB_W@Z 1000b670 f i archive.obj
 0001:0000a740       ??$?H_WU?$char_traits@_W@std@@V?$allocator@_W@1@@std@@YA?AV?$basic_string@_WU?$char_traits@_W@std@@V?$allocator@_W@2@@0@$$QAV10@QB_W@Z 1000b740 f i archive.obj
 0001:0000a7c0       ??$?9_WU?$char_traits@_W@std@@V?$allocator@_W@1@@std@@YA_NABV?$basic_string@_WU?$char_traits@_W@std@@V?$allocator@_W@2@@0@0@Z 1000b7c0 f i archive.obj
 0001:0000a7f0       ??$?H_WU?$char_traits@_W@std@@V?$allocator@_W@1@@std@@YA?AV?$basic_string@_WU?$char_traits@_W@std@@V?$allocator@_W@2@@0@$$QAV10@0@Z 1000b7f0 f i archive.obj
 0001:0000a890       ??$?9_WU?$char_traits@_W@std@@V?$allocator@_W@1@@std@@YA_NABV?$basic_string@_WU?$char_traits@_W@std@@V?$allocator@_W@2@@0@QB_W@Z 1000b890 f i archive.obj
 0001:0000a8d0       ??$?8_WU?$char_traits@_W@std@@V?$allocator@_W@1@@std@@YA_NABV?$basic_string@_WU?$char_traits@_W@std@@V?$allocator@_W@2@@0@QB_W@Z 1000b8d0 f i archive.obj
 0001:0000ad00       ??$_Find_lower_bound@I@?$_Tree@V?$_Tmap_traits@IUFileIndexInfo@@U?$less@I@std@@V?$allocator@U?$pair@$$CBIUFileIndexInfo@@@std@@@3@$0A@@std@@@std@@IBE?AU?$_Tree_find_result@PAU?$_Tree_node@U?$pair@$$CBIUFileIndexInfo@@@std@@PAX@std@@@1@ABI@Z 1000bd00 f i update.obj
 0001:0000ad00       ??$_Find_lower_bound@I@?$_Tree@V?$_Tmap_traits@IIU?$less@I@std@@V?$allocator@U?$pair@$$CBII@std@@@2@$0A@@std@@@std@@IBE?AU?$_Tree_find_result@PAU?$_Tree_node@U?$pair@$$CBII@std@@PAX@std@@@1@ABI@Z 1000bd00 f i archive.obj
 0001:0000ad50       ??$_Emplace_reallocate@ABUArcFileInfo@@@?$vector@UArcFileInfo@@V?$allocator@UArcFileInfo@@@std@@@std@@QAEPAUArcFileInfo@@QAU2@ABU2@@Z 1000bd50 f i archive.obj
 0001:0000ae90       ??$_Emplace_reallocate@ABI@?$vector@IV?$allocator@I@std@@@std@@QAEPAIQAIABI@Z 1000be90 f i archive.obj
 0001:0000ae90       ??$_Emplace_reallocate@PB_W@?$vector@PB_WV?$allocator@PB_W@std@@@std@@QAEPAPB_WQAPB_W$$QAPB_W@Z 1000be90 f i update.obj
 0001:0000ae90       ??$_Emplace_reallocate@I@?$vector@IV?$allocator@I@std@@@std@@QAEPAIQAI$$QAI@Z 1000be90 f i plugin.obj
 0001:0000af60       ??$_Emplace_reallocate@ABUCDllHasherInfo@@@?$vector@UCDllHasherInfo@@V?$allocator@UCDllHasherInfo@@@std@@@std@@QAEPAUCDllHasherInfo@@QAU2@ABU2@@Z 1000bf60 f i archive.obj
 0001:0000b0c0       ??$construct@UCDllCodecInfo@@ABU1@@?$_Default_allocator_traits@V?$allocator@UCDllCodecInfo@@@std@@@std@@SAXAAV?$allocator@UCDllCodecInfo@@@1@QAUCDllCodecInfo@@ABU3@@Z 1000c0c0 f i archive.obj
 0001:0000b130       ??$_Emplace_reallocate@ABUCDllCodecInfo@@@?$vector@UCDllCodecInfo@@V?$allocator@UCDllCodecInfo@@@std@@@std@@QAEPAUCDllCodecInfo@@QAU2@ABU2@@Z 1000c130 f i archive.obj
 0001:0000b380       ??$_Emplace_reallocate@ABUArcLib@@@?$vector@UArcLib@@V?$allocator@UArcLib@@@std@@@std@@QAEPAUArcLib@@QAU2@ABU2@@Z 1000c380 f i archive.obj
 0001:0000b5b0       ??$_Emplace_reallocate@ABUSfxModule@@@?$vector@USfxModule@@V?$allocator@USfxModule@@@std@@@std@@QAEPAUSfxModule@@QAU2@ABU2@@Z 1000c5b0 f i archive.obj
 0001:0000b7a0       ??$_Find_lower_bound@V?$vector@EV?$allocator@E@std@@@std@@@?$_Tree@V?$_Tmap_traits@V?$vector@EV?$allocator@E@std@@@std@@UArcFormat@@U?$less@V?$vector@EV?$allocator@E@std@@@std@@@2@V?$allocator@U?$pair@$$CBV?$vector@EV?$allocator@E@std@@@std@@UArcFormat@@@std@@@2@$0A@@std@@@std@@IBE?AU?$_Tree_find_result@PAU?$_Tree_node@U?$pair@$$CBV?$vector@EV?$allocator@E@std@@@std@@UArcFormat@@@std@@PAX@std@@@1@ABV?$vector@EV?$allocator@E@std@@@1@@Z 1000c7a0 f i archive.obj
 0001:0000b7a0       ??$_Find_lower_bound@V?$vector@EV?$allocator@E@std@@@std@@@?$_Tree@V?$_Tset_traits@V?$vector@EV?$allocator@E@std@@@std@@U?$less@V?$vector@EV?$allocator@E@std@@@std@@@2@V?$allocator@V?$vector@EV?$allocator@E@std@@@std@@@2@$0A@@std@@@std@@IBE?AU?$_Tree_find_result@PAU?$_Tree_node@V?$vector@EV?$allocator@E@std@@@std@@PAX@std@@@1@ABV?$vector@EV?$allocator@E@std@@@1@@Z 1000c7a0 f i open.obj
 0001:0000b880       ??$_Emplace_reallocate@ABV?$vector@EV?$allocator@E@std@@@std@@@?$vector@V?$vector@EV?$allocator@E@std@@@std@@V?$allocator@V?$vector@EV?$allocator@E@std@@@std@@@2@@std@@QAEPAV?$vector@EV?$allocator@E@std@@@1@QAV21@ABV21@@Z 1000c880 f i archive.obj
 0001:0000ba20       ??$_Destroy_range@V?$allocator@UArcFileInfo@@@std@@@std@@YAXPAUArcFileInfo@@QAU1@AAV?$allocator@UArcFileInfo@@@0@@Z 1000ca20 f i archive.obj
 0001:0000ba90       ??$_Destroy_range@V?$allocator@V?$vector@EV?$allocator@E@std@@@std@@@std@@@std@@YAXPAV?$vector@EV?$allocator@E@std@@@0@QAV10@AAV?$allocator@V?$vector@EV?$allocator@E@std@@@std@@@0@@Z 1000ca90 f i archive.obj
 0001:0000bb00       ??$_Free_non_head@V?$allocator@U?$_List_node@V?$vector@EV?$allocator@E@std@@@std@@PAX@std@@@std@@@?$_List_node@V?$vector@EV?$allocator@E@std@@@std@@PAX@std@@SAXAAV?$allocator@U?$_List_node@V?$vector@EV?$allocator@E@std@@@std@@PAX@std@@@1@PAU01@@Z 1000cb00 f i archive.obj
 0001:0000bb80       ??$_Free_non_head@V?$allocator@U?$_List_node@V?$basic_string@_WU?$char_traits@_W@std@@V?$allocator@_W@2@@std@@PAX@std@@@std@@@?$_List_node@V?$basic_string@_WU?$char_traits@_W@std@@V?$allocator@_W@2@@std@@PAX@std@@SAXAAV?$allocator@U?$_List_node@V?$basic_string@_WU?$char_traits@_W@std@@V?$allocator@_W@2@@std@@PAX@std@@@1@PAU01@@Z 1000cb80 f i archive.obj
 0001:0000bc00       ??$_Reallocate_grow_by@V<lambda_1>@?1??replace@?$basic_string@_WU?$char_traits@_W@std@@V?$allocator@_W@2@@std@@QAEAAV34@IIQB_WI@Z@IIPB_WI@?$basic_string@_WU?$char_traits@_W@std@@V?$allocator@_W@2@@std@@AAEAAV01@IV<lambda_1>@?1??replace@01@QAEAAV01@IIQB_WI@Z@IIPB_WI@Z 1000cc00 f i archive.obj
 0001:0000bd70       ??$_Destroy_range@V?$allocator@UCDllCodecInfo@@@std@@@std@@YAXPAUCDllCodecInfo@@QAU1@AAV?$allocator@UCDllCodecInfo@@@0@@Z 1000cd70 f i archive.obj
 0001:0000bde0       ??$_Destroy_range@V?$allocator@USfxModule@@@std@@@std@@YAXPAUSfxModule@@QAU1@AAV?$allocator@USfxModule@@@0@@Z 1000cde0 f i archive.obj
 0001:0000bde0       ??$_Destroy_range@V?$allocator@V?$basic_string@_WU?$char_traits@_W@std@@V?$allocator@_W@2@@std@@@std@@@std@@YAXPAV?$basic_string@_WU?$char_traits@_W@std@@V?$allocator@_W@2@@0@QAV10@AAV?$allocator@V?$basic_string@_WU?$char_traits@_W@std@@V?$allocator@_W@2@@std@@@0@@Z 1000cde0 f i cmdline.obj
 0001:0000be50       ??$_Copy@U_Copy_tag@?$_Tree@V?$_Tmap_traits@V?$basic_string@_WU?$char_traits@_W@std@@V?$allocator@_W@2@@std@@V12@U?$less@V?$basic_string@_WU?$char_traits@_W@std@@V?$allocator@_W@2@@std@@@2@V?$allocator@U?$pair@$$CBV?$basic_string@_WU?$char_traits@_W@std@@V?$allocator@_W@2@@std@@V12@@std@@@2@$0A@@std@@@std@@@?$_Tree@V?$_Tmap_traits@V?$basic_string@_WU?$char_traits@_W@std@@V?$allocator@_W@2@@std@@V12@U?$less@V?$basic_string@_WU?$char_traits@_W@std@@V?$allocator@_W@2@@std@@@2@V?$allocator@U?$pair@$$CBV?$basic_string@_WU?$char_traits@_W@std@@V?$allocator@_W@2@@std@@V12@@std@@@2@$0A@@std@@@std@@IAEXABV01@U_Copy_tag@01@@Z 1000ce50 f i archive.obj
 0001:0000bed0       ??$_Uninitialized_move@PAUArcFileInfo@@V?$allocator@UArcFileInfo@@@std@@@std@@YAPAUArcFileInfo@@QAU1@0PAU1@AAV?$allocator@UArcFileInfo@@@0@@Z 1000ced0 f i archive.obj
 0001:0000bf80       ??$_Erase_tree@V?$allocator@U?$_Tree_node@U?$pair@$$CBV?$basic_string@_WU?$char_traits@_W@std@@V?$allocator@_W@2@@std@@V12@@std@@PAX@std@@@std@@@?$_Tree_val@U?$_Tree_simple_types@U?$pair@$$CBV?$basic_string@_WU?$char_traits@_W@std@@V?$allocator@_W@2@@std@@V12@@std@@@std@@@std@@QAEXAAV?$allocator@U?$_Tree_node@U?$pair@$$CBV?$basic_string@_WU?$char_traits@_W@std@@V?$allocator@_W@2@@std@@V12@@std@@PAX@std@@@1@PAU?$_Tree_node@U?$pair@$$CBV?$basic_string@_WU?$char_traits@_W@std@@V?$allocator@_W@2@@std@@V12@@std@@PAX@1@@Z 1000cf80 f i archive.obj
 0001:0000bf80       ??$_Erase_tree_and_orphan@V?$allocator@U?$_Tree_node@U?$pair@$$CBV?$basic_string@_WU?$char_traits@_W@std@@V?$allocator@_W@2@@std@@V12@@std@@PAX@std@@@std@@@?$_Tree_val@U?$_Tree_simple_types@U?$pair@$$CBV?$basic_string@_WU?$char_traits@_W@std@@V?$allocator@_W@2@@std@@V12@@std@@@std@@@std@@QAEXAAV?$allocator@U?$_Tree_node@U?$pair@$$CBV?$basic_string@_WU?$char_traits@_W@std@@V?$allocator@_W@2@@std@@V12@@std@@PAX@std@@@1@PAU?$_Tree_node@U?$pair@$$CBV?$basic_string@_WU?$char_traits@_W@std@@V?$allocator@_W@2@@std@@V12@@std@@PAX@1@@Z 1000cf80 f i archive.obj
 0001:0000bfd0       ??0ArcLib@@QAE@ABU0@@Z     1000cfd0 f i archive.obj
 0001:0000c090       ??1?$_List_node_insert_op@V?$allocator@U?$_List_node@V?$basic_string@_WU?$char_traits@_W@std@@V?$allocator@_W@2@@std@@PAX@std@@@std@@@std@@QAE@XZ 1000d090 f i archive.obj
 0001:0000c110       ?_Growmap@?$deque@IV?$allocator@I@std@@@std@@AAEXI@Z 1000d110 f i archive.obj
 0001:0000c2b0       ?_Insert_node@?$_Tree_val@U?$_Tree_simple_types@U?$pair@$$CBHI@std@@@std@@@std@@QAEPAU?$_Tree_node@U?$pair@$$CBHI@std@@PAX@2@U?$_Tree_id@PAU?$_Tree_node@U?$pair@$$CBHI@std@@PAX@std@@@2@QAU32@@Z 1000d2b0 f i ui.obj
 0001:0000c2b0       ?_Insert_node@?$_Tree_val@U?$_Tree_simple_types@U?$pair@$$CBII@std@@@std@@@std@@QAEPAU?$_Tree_node@U?$pair@$$CBII@std@@PAX@2@U?$_Tree_id@PAU?$_Tree_node@U?$pair@$$CBII@std@@PAX@std@@@2@QAU32@@Z 1000d2b0 f i archive.obj
 0001:0000c2b0       ?_Insert_node@?$_Tree_val@U?$_Tree_simple_types@U?$pair@$$CBV?$basic_string@_WU?$char_traits@_W@std@@V?$allocator@_W@2@@std@@V12@@std@@@std@@@std@@QAEPAU?$_Tree_node@U?$pair@$$CBV?$basic_string@_WU?$char_traits@_W@std@@V?$allocator@_W@2@@std@@V12@@std@@PAX@2@U?$_Tree_id@PAU?$_Tree_node@U?$pair@$$CBV?$basic_string@_WU?$char_traits@_W@std@@V?$allocator@_W@2@@std@@V12@@std@@PAX@std@@@2@QAU32@@Z 1000d2b0 f i archive.obj
 0001:0000c2b0       ?_Insert_node@?$_Tree_val@U?$_Tree_simple_types@U?$pair@$$CBV?$vector@EV?$allocator@E@std@@@std@@UArcFormat@@@std@@@std@@@std@@QAEPAU?$_Tree_node@U?$pair@$$CBV?$vector@EV?$allocator@E@std@@@std@@UArcFormat@@@std@@PAX@2@U?$_Tree_id@PAU?$_Tree_node@U?$pair@$$CBV?$vector@EV?$allocator@E@std@@@std@@UArcFormat@@@std@@PAX@std@@@2@QAU32@@Z 1000d2b0 f i archive.obj
 0001:0000c2b0       ?_Insert_node@?$_Tree_val@U?$_Tree_simple_types@V?$vector@EV?$allocator@E@std@@@std@@@std@@@std@@QAEPAU?$_Tree_node@V?$vector@EV?$allocator@E@std@@@std@@PAX@2@U?$_Tree_id@PAU?$_Tree_node@V?$vector@EV?$allocator@E@std@@@std@@PAX@std@@@2@QAU32@@Z 1000d2b0 f i open.obj
 0001:0000c2b0       ?_Insert_node@?$_Tree_val@U?$_Tree_simple_types@V?$basic_string@_WU?$char_traits@_W@std@@V?$allocator@_W@2@@std@@@std@@@std@@QAEPAU?$_Tree_node@V?$basic_string@_WU?$char_traits@_W@std@@V?$allocator@_W@2@@std@@PAX@2@U?$_Tree_id@PAU?$_Tree_node@V?$basic_string@_WU?$char_traits@_W@std@@V?$allocator@_W@2@@std@@PAX@std@@@2@QAU32@@Z 1000d2b0 f i open.obj
 0001:0000c2b0       ?_Insert_node@?$_Tree_val@U?$_Tree_simple_types@U?$pair@$$CBIUFileIndexInfo@@@std@@@std@@@std@@QAEPAU?$_Tree_node@U?$pair@$$CBIUFileIndexInfo@@@std@@PAX@2@U?$_Tree_id@PAU?$_Tree_node@U?$pair@$$CBIUFileIndexInfo@@@std@@PAX@std@@@2@QAU32@@Z 1000d2b0 f i update.obj
 0001:0000c2b0       ?_Insert_node@?$_Tree_val@U?$_Tree_simple_types@I@std@@@std@@QAEPAU?$_Tree_node@IPAX@2@U?$_Tree_id@PAU?$_Tree_node@IPAX@std@@@2@QAU32@@Z 1000d2b0 f i extract.obj
 0001:0000c4c0       ?_Umove@?$vector@UArcLib@@V?$allocator@UArcLib@@@std@@@std@@AAEPAUArcLib@@PAU3@00@Z 1000d4c0 f i archive.obj
 0001:0000c5f0       ??R?$less@V?$vector@EV?$allocator@E@std@@@std@@@std@@QBE_NABV?$vector@EV?$allocator@E@std@@@1@0@Z 1000d5f0 f i archive.obj
 0001:0000c680       ?allocate@?$allocator@V?$vector@EV?$allocator@E@std@@@std@@@std@@QAEPAV?$vector@EV?$allocator@E@std@@@2@I@Z 1000d680 f i archive.obj
 0001:0000c6e0       ?_Equal@?$basic_string@_WU?$char_traits@_W@std@@V?$allocator@_W@2@@std@@QBE_NQB_W@Z 1000d6e0 f i archive.obj
 0001:0000c730       ?reserve@?$basic_string@_WU?$char_traits@_W@std@@V?$allocator@_W@2@@std@@QAEXI@Z 1000d730 f i archive.obj
 0001:0000c860       ??1?$_Alloc_construct_ptr@V?$allocator@U?$_Tree_node@U?$pair@$$CBV?$vector@EV?$allocator@E@std@@@std@@UArcFormat@@@std@@PAX@std@@@std@@@std@@QAE@XZ 1000d860 f i archive.obj
 0001:0000c860       ??1?$_Tree_temp_node_alloc@V?$allocator@U?$_Tree_node@U?$pair@$$CBV?$vector@EV?$allocator@E@std@@@std@@UArcFormat@@@std@@PAX@std@@@std@@@std@@QAE@XZ 1000d860 f i archive.obj
 0001:0000c880       ??1?$_Alloc_construct_ptr@V?$allocator@U?$_Tree_node@IPAX@std@@@std@@@std@@QAE@XZ 1000d880 f i extract.obj
 0001:0000c880       ??1?$_Alloc_construct_ptr@V?$allocator@U?$_List_node@V?$vector@EV?$allocator@E@std@@@std@@PAX@std@@@std@@@std@@QAE@XZ 1000d880 f i archive.obj
 0001:0000c8a0       ??1?$_Alloc_construct_ptr@V?$allocator@U?$_Tree_node@U?$pair@$$CBV?$basic_string@_WU?$char_traits@_W@std@@V?$allocator@_W@2@@std@@V12@@std@@PAX@std@@@std@@@std@@QAE@XZ 1000d8a0 f i archive.obj
 0001:0000c8c0       ??1?$_Alloc_construct_ptr@V?$allocator@U?$_List_node@UArcEntry@@PAX@std@@@std@@@std@@QAE@XZ 1000d8c0 f i open.obj
 0001:0000c8c0       ??1?$_Alloc_construct_ptr@V?$allocator@U?$_Tree_node@U?$pair@$$CBII@std@@PAX@std@@@std@@@std@@QAE@XZ 1000d8c0 f i archive.obj
 0001:0000c8c0       ??1?$_Alloc_construct_ptr@V?$allocator@U?$_Tree_node@U?$pair@$$CBHI@std@@PAX@std@@@std@@@std@@QAE@XZ 1000d8c0 f i ui.obj
 0001:0000c8e0       ??1?$_Alloc_construct_ptr@V?$allocator@U?$_List_node@UIconImageRsrc@@PAX@std@@@std@@@std@@QAE@XZ 1000d8e0 f i rsrc.obj
 0001:0000c8e0       ??1?$_Alloc_construct_ptr@V?$allocator@U?$_List_node@V?$basic_string@_WU?$char_traits@_W@std@@V?$allocator@_W@2@@std@@PAX@std@@@std@@@std@@QAE@XZ 1000d8e0 f i archive.obj
 0001:0000c900       ?_Xlen@?$deque@IV?$allocator@I@std@@@std@@ABEXXZ 1000d900 f i archive.obj
 0001:0000c910       ?_Become_small@?$basic_string@_WU?$char_traits@_W@std@@V?$allocator@_W@2@@std@@AAEXXZ 1000d910 f i archive.obj
 0001:0000cf40       ??$_Erase_tree@V?$allocator@U?$_Tree_node@U?$pair@$$CBII@std@@PAX@std@@@std@@@?$_Tree_val@U?$_Tree_simple_types@U?$pair@$$CBII@std@@@std@@@std@@QAEXAAV?$allocator@U?$_Tree_node@U?$pair@$$CBII@std@@PAX@std@@@1@PAU?$_Tree_node@U?$pair@$$CBII@std@@PAX@1@@Z 1000df40 f i archive.obj
 0001:0000cf40       ??$_Erase_tree@V?$allocator@U?$_Tree_node@U?$pair@$$CBHI@std@@PAX@std@@@std@@@?$_Tree_val@U?$_Tree_simple_types@U?$pair@$$CBHI@std@@@std@@@std@@QAEXAAV?$allocator@U?$_Tree_node@U?$pair@$$CBHI@std@@PAX@std@@@1@PAU?$_Tree_node@U?$pair@$$CBHI@std@@PAX@1@@Z 1000df40 f i ui.obj
 0001:0000cf80       ??$_Erase_tree@V?$allocator@U?$_Tree_node@U?$pair@$$CBV?$vector@EV?$allocator@E@std@@@std@@UArcFormat@@@std@@PAX@std@@@std@@@?$_Tree_val@U?$_Tree_simple_types@U?$pair@$$CBV?$vector@EV?$allocator@E@std@@@std@@UArcFormat@@@std@@@std@@@std@@QAEXAAV?$allocator@U?$_Tree_node@U?$pair@$$CBV?$vector@EV?$allocator@E@std@@@std@@UArcFormat@@@std@@PAX@std@@@1@PAU?$_Tree_node@U?$pair@$$CBV?$vector@EV?$allocator@E@std@@@std@@UArcFormat@@@std@@PAX@1@@Z 1000df80 f i archive.obj
 0001:0000d020       ??$_Find_lower_bound@V?$basic_string@_WU?$char_traits@_W@std@@V?$allocator@_W@2@@std@@@?$_Tree@V?$_Tset_traits@V?$basic_string@_WU?$char_traits@_W@std@@V?$allocator@_W@2@@std@@U?$less@V?$basic_string@_WU?$char_traits@_W@std@@V?$allocator@_W@2@@std@@@2@V?$allocator@V?$basic_string@_WU?$char_traits@_W@std@@V?$allocator@_W@2@@std@@@2@$0A@@std@@@std@@IBE?AU?$_Tree_find_result@PAU?$_Tree_node@V?$basic_string@_WU?$char_traits@_W@std@@V?$allocator@_W@2@@std@@PAX@std@@@1@ABV?$basic_string@_WU?$char_traits@_W@std@@V?$allocator@_W@2@@1@@Z 1000e020 f i open.obj
 0001:0000d020       ??$_Find_lower_bound@V?$basic_string@_WU?$char_traits@_W@std@@V?$allocator@_W@2@@std@@@?$_Tree@V?$_Tmap_traits@V?$basic_string@_WU?$char_traits@_W@std@@V?$allocator@_W@2@@std@@V12@U?$less@V?$basic_string@_WU?$char_traits@_W@std@@V?$allocator@_W@2@@std@@@2@V?$allocator@U?$pair@$$CBV?$basic_string@_WU?$char_traits@_W@std@@V?$allocator@_W@2@@std@@V12@@std@@@2@$0A@@std@@@std@@IBE?AU?$_Tree_find_result@PAU?$_Tree_node@U?$pair@$$CBV?$basic_string@_WU?$char_traits@_W@std@@V?$allocator@_W@2@@std@@V12@@std@@PAX@std@@@1@ABV?$basic_string@_WU?$char_traits@_W@std@@V?$allocator@_W@2@@1@@Z 1000e020 f i archive.obj
 0001:0000d0b0       ??$_Append_range_unchecked@PBV?$basic_string@_WU?$char_traits@_W@std@@V?$allocator@_W@2@@std@@PBV12@@?$_List_node_insert_op@V?$allocator@U?$_List_node@V?$basic_string@_WU?$char_traits@_W@std@@V?$allocator@_W@2@@std@@PAX@std@@@std@@@std@@QAEXPBV?$basic_string@_WU?$char_traits@_W@std@@V?$allocator@_W@2@@1@QBV21@@Z 1000e0b0 f i archive.obj
 0001:0000d140       ??$_Append_range_unchecked@V?$_List_unchecked_const_iterator@V?$_List_val@U?$_List_simple_types@V?$basic_string@_WU?$char_traits@_W@std@@V?$allocator@_W@2@@std@@@std@@@std@@U_Iterator_base0@2@@std@@V12@@?$_List_node_insert_op@V?$allocator@U?$_List_node@V?$basic_string@_WU?$char_traits@_W@std@@V?$allocator@_W@2@@std@@PAX@std@@@std@@@std@@QAEXV?$_List_unchecked_const_iterator@V?$_List_val@U?$_List_simple_types@V?$basic_string@_WU?$char_traits@_W@std@@V?$allocator@_W@2@@std@@@std@@@std@@U_Iterator_base0@2@@1@V21@@Z 1000e140 f i archive.obj
 0001:0000d1e0       ??$_Assign_range@PAV?$vector@EV?$allocator@E@std@@@std@@@?$vector@V?$vector@EV?$allocator@E@std@@@std@@V?$allocator@V?$vector@EV?$allocator@E@std@@@std@@@2@@std@@AAEXPAV?$vector@EV?$allocator@E@std@@@1@0Uforward_iterator_tag@1@@Z 1000e1e0 f i archive.obj
 0001:0000d330       ??$_Freenode@V?$allocator@U?$_List_node@V?$vector@EV?$allocator@E@std@@@std@@PAX@std@@@std@@@?$_List_node@V?$vector@EV?$allocator@E@std@@@std@@PAX@std@@SAXAAV?$allocator@U?$_List_node@V?$vector@EV?$allocator@E@std@@@std@@PAX@std@@@1@PAU01@@Z 1000e330 f i archive.obj
 0001:0000d390       ??$_Freenode@V?$allocator@U?$_List_node@V?$basic_string@_WU?$char_traits@_W@std@@V?$allocator@_W@2@@std@@PAX@std@@@std@@@?$_List_node@V?$basic_string@_WU?$char_traits@_W@std@@V?$allocator@_W@2@@std@@PAX@std@@SAXAAV?$allocator@U?$_List_node@V?$basic_string@_WU?$char_traits@_W@std@@V?$allocator@_W@2@@std@@PAX@std@@@1@PAU01@@Z 1000e390 f i archive.obj
 0001:0000d3f0       ??$_Copy_nodes@U_Copy_tag@?$_Tree@V?$_Tmap_traits@V?$basic_string@_WU?$char_traits@_W@std@@V?$allocator@_W@2@@std@@V12@U?$less@V?$basic_string@_WU?$char_traits@_W@std@@V?$allocator@_W@2@@std@@@2@V?$allocator@U?$pair@$$CBV?$basic_string@_WU?$char_traits@_W@std@@V?$allocator@_W@2@@std@@V12@@std@@@2@$0A@@std@@@std@@@?$_Tree@V?$_Tmap_traits@V?$basic_string@_WU?$char_traits@_W@std@@V?$allocator@_W@2@@std@@V12@U?$less@V?$basic_string@_WU?$char_traits@_W@std@@V?$allocator@_W@2@@std@@@2@V?$allocator@U?$pair@$$CBV?$basic_string@_WU?$char_traits@_W@std@@V?$allocator@_W@2@@std@@V12@@std@@@2@$0A@@std@@@std@@IAEPAU?$_Tree_node@U?$pair@$$CBV?$basic_string@_WU?$char_traits@_W@std@@V?$allocator@_W@2@@std@@V12@@std@@PAX@1@PAU21@0U_Copy_tag@01@@Z 1000e3f0 f i archive.obj
 0001:0000d500       ??$_Uninitialized_move@PAUSfxModule@@V?$allocator@USfxModule@@@std@@@std@@YAPAUSfxModule@@QAU1@0PAU1@AAV?$allocator@USfxModule@@@0@@Z 1000e500 f i archive.obj
 0001:0000d500       ??$_Uninitialized_move@PAV?$basic_string@_WU?$char_traits@_W@std@@V?$allocator@_W@2@@std@@V?$allocator@V?$basic_string@_WU?$char_traits@_W@std@@V?$allocator@_W@2@@std@@@2@@std@@YAPAV?$basic_string@_WU?$char_traits@_W@std@@V?$allocator@_W@2@@0@QAV10@0PAV10@AAV?$allocator@V?$basic_string@_WU?$char_traits@_W@std@@V?$allocator@_W@2@@std@@@0@@Z 1000e500 f i cmdline.obj
 0001:0000d580       ??$_Uninitialized_move@PAV?$vector@EV?$allocator@E@std@@@std@@V?$allocator@V?$vector@EV?$allocator@E@std@@@std@@@2@@std@@YAPAV?$vector@EV?$allocator@E@std@@@0@QAV10@0PAV10@AAV?$allocator@V?$vector@EV?$allocator@E@std@@@std@@@0@@Z 1000e580 f i archive.obj
 0001:0000d600       ??_G?$basic_string@_WU?$char_traits@_W@std@@V?$allocator@_W@2@@std@@QAEPAXI@Z 1000e600 f i archive.obj
 0001:0000d660       ??1?$pair@$$CBV?$basic_string@_WU?$char_traits@_W@std@@V?$allocator@_W@2@@std@@V12@@std@@QAE@XZ 1000e660 f i archive.obj
 0001:0000d660       ??1Param@@QAE@XZ           1000e660 f i cmdline.obj
 0001:0000d660       ??1Attr@@QAE@XZ            1000e660 f i attr.obj
 0001:0000d660       ??1?$pair@V?$basic_string@_WU?$char_traits@_W@std@@V?$allocator@_W@2@@std@@V12@@std@@QAE@XZ 1000e660 f i rsrc.obj
 0001:0000d700       ??1?$_Uninitialized_backout_al@V?$allocator@V?$vector@EV?$allocator@E@std@@@std@@@std@@@std@@QAE@XZ 1000e700 f i archive.obj
 0001:0000d710       ??1?$_Uninitialized_backout_al@V?$allocator@UArcLib@@@std@@@std@@QAE@XZ 1000e710 f i archive.obj
 0001:0000d740       ??R?$less@V?$basic_string@_WU?$char_traits@_W@std@@V?$allocator@_W@2@@std@@@std@@QBE_NABV?$basic_string@_WU?$char_traits@_W@std@@V?$allocator@_W@2@@1@0@Z 1000e740 f i archive.obj
 0001:0000d7a0       ?_Clear_and_reserve_geometric@?$vector@EV?$allocator@E@std@@@std@@AAEXI@Z 1000e7a0 f i archive.obj
 0001:0000d830       ?_Unchecked_erase@?$list@V?$basic_string@_WU?$char_traits@_W@std@@V?$allocator@_W@2@@std@@V?$allocator@V?$basic_string@_WU?$char_traits@_W@std@@V?$allocator@_W@2@@std@@@2@@std@@AAEPAU?$_List_node@V?$basic_string@_WU?$char_traits@_W@std@@V?$allocator@_W@2@@std@@PAX@2@PAU32@QAU32@@Z 1000e830 f i archive.obj
 0001:0000d8d0       ?compare@?$_WChar_traits@_W@std@@SAHQB_W0I@Z 1000e8d0 f i archive.obj
 0001:0000d930       ??1?$_Alloc_construct_ptr@V?$allocator@U?$_List_node@UCacheRecord@FileWriteCache@@PAX@std@@@std@@@std@@QAE@XZ 1000e930 f   extract.obj
 0001:0000d930       ??1?$_Alloc_construct_ptr@V?$allocator@U?$_List_node@UIconRsrc@@PAX@std@@@std@@@std@@QAE@XZ 1000e930 f   rsrc.obj
 0001:0000eb80       ??$_Copy_unchecked@PAV?$vector@EV?$allocator@E@std@@@std@@PAV12@@std@@YAPAV?$vector@EV?$allocator@E@std@@@0@PAV10@00@Z 1000fb80 f i archive.obj
 0001:0000ec00       ??$_Ucopy@PAV?$vector@EV?$allocator@E@std@@@std@@@?$vector@V?$vector@EV?$allocator@E@std@@@std@@V?$allocator@V?$vector@EV?$allocator@E@std@@@std@@@2@@std@@AAEPAV?$vector@EV?$allocator@E@std@@@1@PAV21@00@Z 1000fc00 f i archive.obj
 0001:0000ec80       ??0CDllCodecInfo@@QAE@$$QAU0@@Z 1000fc80 f i archive.obj
 0001:0000ed20       ??4CDllCodecInfo@@QAEAAU0@$$QAU0@@Z 1000fd20 f i archive.obj
 0001:0000ed90       ??$iter_swap@PAUCDllCodecInfo@@PAU1@@std@@YAXPAUCDllCodecInfo@@0@Z 1000fd90 f i archive.obj
 0001:0000f3f4       ?Release@MyCompressCodecsInfo@@W3AGKXZ 100103f4 f i archive.obj
 0001:0000f3f4       ?Release@ArchiveUpdater@@W3AGKXZ 100103f4 f i update.obj
 0001:0000f3f4       ?Release@ArchiveExtractor@@W3AGKXZ 100103f4 f i extract.obj
 0001:0000f3f4       ?Release@FileReadStream@@W3AGKXZ 100103f4 f i update.obj
 0001:0000f3f4       ?Release@ArchiveTester@@W3AGKXZ 100103f4 f i test.obj
 0001:0000f3fe       ??_EMyCompressCodecsInfo@@W7AEPAXI@Z 100103fe f i archive.obj
 0001:0000f406       ?Release@ArchiveTester@@W7AGKXZ 10010406 f i test.obj
 0001:0000f406       ?Release@ArchiveExtractor@@W7AGKXZ 10010406 f i extract.obj
 0001:0000f406       ?Release@MyCompressCodecsInfo@@W7AGKXZ 10010406 f i archive.obj
 0001:0000f406       ?Release@ArchiveUpdater@@W7AGKXZ 10010406 f i update.obj
 0001:0000f406       ?Release@FileReadStream@@W7AGKXZ 10010406 f i update.obj
 0001:0000f410       ?QueryInterface@MyCompressCodecsInfo@@W3AGJABU_GUID@@PAPAX@Z 10010410 f i archive.obj
 0001:0000f41a       ?AddRef@ArchiveUpdater@@W3AGKXZ 1001041a f i update.obj
 0001:0000f41a       ?AddRef@ArchiveExtractor@@W3AGKXZ 1001041a f i extract.obj
 0001:0000f41a       ?AddRef@MyCompressCodecsInfo@@W3AGKXZ 1001041a f i archive.obj
 0001:0000f41a       ?AddRef@FileReadStream@@W3AGKXZ 1001041a f i update.obj
 0001:0000f41a       ?AddRef@ArchiveTester@@W3AGKXZ 1001041a f i test.obj
 0001:0000f424       ?QueryInterface@MyCompressCodecsInfo@@W7AGJABU_GUID@@PAPAX@Z 10010424 f i archive.obj
 0001:0000f42e       ?AddRef@MyCompressCodecsInfo@@W7AGKXZ 1001042e f i archive.obj
 0001:0000f42e       ?AddRef@ArchiveExtractor@@W7AGKXZ 1001042e f i extract.obj
 0001:0000f42e       ?AddRef@ArchiveUpdater@@W7AGKXZ 1001042e f i update.obj
 0001:0000f42e       ?AddRef@FileReadStream@@W7AGKXZ 1001042e f i update.obj
 0001:0000f42e       ?AddRef@ArchiveTester@@W7AGKXZ 1001042e f i test.obj
 0001:0000f440       ?_Throw_tree_length_error@std@@YAXXZ 10010440 f i archive.obj
 0001:0000f450       ?_Take_contents@?$basic_string@_WU?$char_traits@_W@std@@V?$allocator@_W@2@@std@@AAEXAAV12@U?$integral_constant@_N$00@2@@Z 10010450 f i archive.obj
 0001:0000f490       ??0?$basic_string@_WU?$char_traits@_W@std@@V?$allocator@_W@2@@std@@QAE@$$QAV01@@Z 10010490 f i archive.obj
 0001:0000f4e0       ?_Xlen@?$basic_string@DU?$char_traits@D@std@@V?$allocator@D@2@@std@@CAXXZ 100104e0 f i archive.obj
 0001:0000f4e0       ?_Xlen@?$basic_string@_WU?$char_traits@_W@std@@V?$allocator@_W@2@@std@@CAXXZ 100104e0 f i archive.obj
 0001:0000f4f0       ?allocate@?$allocator@_W@std@@QAEPA_WI@Z 100104f0 f i archive.obj
 0001:0000f550       ?assign@?$basic_string@_WU?$char_traits@_W@std@@V?$allocator@_W@2@@std@@QAEAAV12@QB_WI@Z 10010550 f i archive.obj
 0001:0000f660       ??1?$basic_string@DU?$char_traits@D@std@@V?$allocator@D@2@@std@@QAE@XZ 10010660 f i archive.obj
 0001:0000f6b0       ??0bad_array_new_length@std@@QAE@XZ 100106b0 f i archive.obj
 0001:0000f6d0       ??1failure@ios_base@std@@UAE@XZ 100106d0 f i delete.obj
 0001:0000f6d0       ??1out_of_range@std@@UAE@XZ 100106d0 f i libcpmt:xthrow.obj
 0001:0000f6d0       ??1length_error@std@@UAE@XZ 100106d0 f i libcpmt:xthrow.obj
 0001:0000f6d0       ??1bad_weak_ptr@std@@UAE@XZ 100106d0 f i extract.obj
 0001:0000f6d0       ??1__non_rtti_object@std@@UAE@XZ 100106d0 f i libvcruntime:rtti.obj
 0001:0000f6d0       ??1bad_exception@std@@UAE@XZ 100106d0 f i libvcruntime:frame.obj
 0001:0000f6d0       ??1bad_typeid@std@@UAE@XZ  100106d0 f i libvcruntime:rtti.obj
 0001:0000f6d0       ??1bad_alloc@std@@UAE@XZ   100106d0 f i archive.obj
 0001:0000f6d0       ??1bad_array_new_length@std@@UAE@XZ 100106d0 f i archive.obj
 0001:0000f6d0       ??1runtime_error@std@@UAE@XZ 100106d0 f i delete.obj
 0001:0000f6f0       ??_Gruntime_error@std@@UAEPAXI@Z 100106f0 f i delete.obj
 0001:0000f6f0       ??_Eruntime_error@std@@UAEPAXI@Z 100106f0 f i * CIL library *:* CIL module *
 0001:0000f6f0       ??_Gbad_weak_ptr@std@@UAEPAXI@Z 100106f0 f i extract.obj
 0001:0000f6f0       ??_Gbad_array_new_length@std@@UAEPAXI@Z 100106f0 f i archive.obj
 0001:0000f6f0       ??_Gexception@std@@UAEPAXI@Z 100106f0 f i archive.obj
 0001:0000f6f0       ??_Gbad_alloc@std@@UAEPAXI@Z 100106f0 f i archive.obj
 0001:0000f6f0       ??_Ebad_array_new_length@std@@UAEPAXI@Z 100106f0 f i * CIL library *:* CIL module *
 0001:0000f6f0       ??_Ebad_alloc@std@@UAEPAXI@Z 100106f0 f i * CIL library *:* CIL module *
 0001:0000f6f0       ??_Ebad_weak_ptr@std@@UAEPAXI@Z 100106f0 f i * CIL library *:* CIL module *
 0001:0000f6f0       ??_Eexception@std@@UAEPAXI@Z 100106f0 f i * CIL library *:* CIL module *
 0001:0000f720       ??0bad_array_new_length@std@@QAE@ABV01@@Z 10010720 f i archive.obj
 0001:0000f760       ??0bad_alloc@std@@QAE@ABV01@@Z 10010760 f i archive.obj
 0001:0000f7a0       ??0exception@std@@QAE@ABV01@@Z 100107a0 f i archive.obj
 0001:0000f7d0       ?_Throw_bad_array_new_length@std@@YAXXZ 100107d0 f i archive.obj
 0001:0000f7d0       ?__scrt_throw_std_bad_array_new_length@@YAXXZ 100107d0 f i LIBCMT:throw_bad_alloc.obj
 0001:0000f7f0       ??$_Allocate@$07U_Default_allocate_traits@std@@$0A@@std@@YAPAXI@Z 100107f0 f i archive.obj
 0001:0000f840       ?assign@?$basic_string@DU?$char_traits@D@std@@V?$allocator@D@2@@std@@QAEAAV12@QBDI@Z 10010840 f i archive.obj
 0001:0000f940       ?what@exception@std@@UBEPBDXZ 10010940 f i archive.obj
 0001:0000f950       ?deallocate@?$allocator@_W@std@@QAEXQA_WI@Z 10010950 f i archive.obj
 0001:0000f990       ??1BStr@@QAE@XZ            10010990 f i attr.obj
 0001:00010a80       ?get_attr_list@Archive@@QAE?AV?$list@UAttr@@V?$allocator@UAttr@@@std@@@std@@I@Z 10011a80 f   attr.obj
 0001:000112f0       ?load_arc_attr@Archive@@AAEXXZ 100122f0 f   attr.obj
 0001:00012a20       ?load_update_props@Archive@@QAEXXZ 10013a20 f   attr.obj
 0001:00012e00       ?clear@?$list@UAttr@@V?$allocator@UAttr@@@std@@@std@@QAEXXZ 10013e00 f i attr.obj
 0001:00012e50       ?push_back@?$list@UAttr@@V?$allocator@UAttr@@@std@@@std@@QAEXABUAttr@@@Z 10013e50 f i attr.obj
 0001:00012f10       ??1?$list@UAttr@@V?$allocator@UAttr@@@std@@@std@@QAE@XZ 10013f10 f i attr.obj
 0001:00012f60       ?push_back@?$basic_string@_WU?$char_traits@_W@std@@V?$allocator@_W@2@@std@@QAEX_W@Z 10013f60 f i attr.obj
 0001:00013090       ??$?H_WU?$char_traits@_W@std@@V?$allocator@_W@1@@std@@YA?AV?$basic_string@_WU?$char_traits@_W@std@@V?$allocator@_W@2@@0@$$QAV10@ABV10@@Z 10014090 f i attr.obj
 0001:00013100       ??$?H_WU?$char_traits@_W@std@@V?$allocator@_W@1@@std@@YA?AV?$basic_string@_WU?$char_traits@_W@std@@V?$allocator@_W@2@@0@$$QAV10@_W@Z 10014100 f i attr.obj
 0001:00013170       ??1?$_Alloc_construct_ptr@V?$allocator@U?$_List_node@UAttr@@PAX@std@@@std@@@std@@QAE@XZ 10014170 f i attr.obj
 0001:00013350       ?parse_command@@YA?AUCommandArgs@@ABV?$basic_string@_WU?$char_traits@_W@std@@V?$allocator@_W@2@@std@@@Z 10014350 f   cmdline.obj
 0001:00013a80       ??1CommandArgs@@QAE@XZ     10014a80 f i cmdline.obj
 0001:00013a90       ?parse_plugin_call@@YA?AUCommandArgs@@PBUOpenMacroInfo@@@Z 10014a90 f   cmdline.obj
 0001:000147f0       ?parse_listfile@@YA?AV?$list@V?$basic_string@_WU?$char_traits@_W@std@@V?$allocator@_W@2@@std@@V?$allocator@V?$basic_string@_WU?$char_traits@_W@std@@V?$allocator@_W@2@@std@@@2@@std@@ABV?$basic_string@_WU?$char_traits@_W@std@@V?$allocator@_W@2@@2@@Z 100157f0 f   cmdline.obj
 0001:00014a50       ?parse_open_command@@YA?AUOpenCommand@@ABUCommandArgs@@@Z 10015a50 f   cmdline.obj
 0001:00014f00       ??1OpenCommand@@QAE@XZ     10015f00 f i cmdline.obj
 0001:00014f10       ??1OpenOptions@@QAE@XZ     10015f10 f i cmdline.obj
 0001:00014fd0       ??0OpenOptions@@QAE@$$QAU0@@Z 10015fd0 f i cmdline.obj
 0001:000150e0       ?parse_update_command@@YA?AUUpdateCommand@@ABUCommandArgs@@@Z 100160e0 f   cmdline.obj
 0001:00016470       ??1UpdateCommand@@QAE@XZ   10017470 f i cmdline.obj
 0001:000164a0       ??4ProfileOptions@@QAEAAU0@ABU0@@Z 100174a0 f i cmdline.obj
 0001:000165e0       ??1UpdateOptions@@QAE@XZ   100175e0 f i cmdline.obj
 0001:00016690       ??4SfxOptions@@QAEAAU0@ABU0@@Z 10017690 f i cmdline.obj
 0001:000167c0       ??1ProfileOptions@@QAE@XZ  100177c0 f i cmdline.obj
 0001:000169c0       ??4SfxInstallConfig@@QAEAAU0@ABU0@@Z 100179c0 f i cmdline.obj
 0001:00016aa0       ??0ProfileOptions@@QAE@$$QAU0@@Z 10017aa0 f i cmdline.obj
 0001:00016d00       ??1SfxOptions@@QAE@XZ      10017d00 f i cmdline.obj
 0001:00016db0       ??0SfxOptions@@QAE@$$QAU0@@Z 10017db0 f i cmdline.obj
 0001:000173a0       ??1SfxVersionInfo@@QAE@XZ  100183a0 f i cmdline.obj
 0001:00017580       ??1SfxInstallConfig@@QAE@XZ 10018580 f i cmdline.obj
 0001:00017d70       ?parse_extract_command@@YA?AUExtractCommand@@ABUCommandArgs@@@Z 10018d70 f   cmdline.obj
 0001:00017ed0       ??1ExtractCommand@@QAE@XZ  10018ed0 f i cmdline.obj
 0001:00017ef0       ??1ExtractOptions@@QAE@XZ  10018ef0 f i cmdline.obj
 0001:00017f90       ?parse_extractitems_command@@YA?AUExtractItemsCommand@@ABUCommandArgs@@@Z 10018f90 f   cmdline.obj
 0001:000180c0       ??1ExtractItemsCommand@@QAE@XZ 100190c0 f i cmdline.obj
 0001:00018130       ?parse_test_command@@YA?AUTestCommand@@ABUCommandArgs@@@Z 10019130 f   cmdline.obj
 0001:00018370       ??1MenuItems@Far@@QAE@XZ   10019370 f i plugin.obj
 0001:00018370       ??1TestCommand@@QAE@XZ     10019370 f i cmdline.obj
 0001:00018370       ??1?$vector@V?$basic_string@_WU?$char_traits@_W@std@@V?$allocator@_W@2@@std@@V?$allocator@V?$basic_string@_WU?$char_traits@_W@std@@V?$allocator@_W@2@@std@@@2@@std@@QAE@XZ 10019370 f i cmdline.obj
 0001:00018380       ??4?$list@V?$vector@EV?$allocator@E@std@@@std@@V?$allocator@V?$vector@EV?$allocator@E@std@@@std@@@2@@std@@QAEAAV01@$$QAV01@@Z 10019380 f i cmdline.obj
 0001:000183d0       ??A?$vector@V?$basic_string@_WU?$char_traits@_W@std@@V?$allocator@_W@2@@std@@V?$allocator@V?$basic_string@_WU?$char_traits@_W@std@@V?$allocator@_W@2@@std@@@2@@std@@QBEABV?$basic_string@_WU?$char_traits@_W@std@@V?$allocator@_W@2@@1@I@Z 100193d0 f i cmdline.obj
 0001:000183f0       ?erase@?$vector@V?$basic_string@_WU?$char_traits@_W@std@@V?$allocator@_W@2@@std@@V?$allocator@V?$basic_string@_WU?$char_traits@_W@std@@V?$allocator@_W@2@@std@@@2@@std@@QAE?AV?$_Vector_iterator@V?$_Vector_val@U?$_Simple_types@V?$basic_string@_WU?$char_traits@_W@std@@V?$allocator@_W@2@@std@@@std@@@std@@@2@V?$_Vector_const_iterator@V?$_Vector_val@U?$_Simple_types@V?$basic_string@_WU?$char_traits@_W@std@@V?$allocator@_W@2@@std@@@std@@@std@@@2@@Z 100193f0 f i cmdline.obj
 0001:00018520       ?push_back@?$vector@V?$basic_string@_WU?$char_traits@_W@std@@V?$allocator@_W@2@@std@@V?$allocator@V?$basic_string@_WU?$char_traits@_W@std@@V?$allocator@_W@2@@std@@@2@@std@@QAEX$$QAV?$basic_string@_WU?$char_traits@_W@std@@V?$allocator@_W@2@@2@@Z 10019520 f i cmdline.obj
 0001:00018590       ?find@?$basic_string@_WU?$char_traits@_W@std@@V?$allocator@_W@2@@std@@QBEI_WI@Z 10019590 f i cmdline.obj
 0001:000185f0       ??$construct@V?$basic_string@_WU?$char_traits@_W@std@@V?$allocator@_W@2@@std@@V12@@?$_Default_allocator_traits@V?$allocator@V?$basic_string@_WU?$char_traits@_W@std@@V?$allocator@_W@2@@std@@@std@@@std@@SAXAAV?$allocator@V?$basic_string@_WU?$char_traits@_W@std@@V?$allocator@_W@2@@std@@@1@QAV?$basic_string@_WU?$char_traits@_W@std@@V?$allocator@_W@2@@1@$$QAV31@@Z 100195f0 f i cmdline.obj
 0001:00018640       ??$_Emplace_reallocate@V?$basic_string@_WU?$char_traits@_W@std@@V?$allocator@_W@2@@std@@@?$vector@V?$basic_string@_WU?$char_traits@_W@std@@V?$allocator@_W@2@@std@@V?$allocator@V?$basic_string@_WU?$char_traits@_W@std@@V?$allocator@_W@2@@std@@@2@@std@@QAEPAV?$basic_string@_WU?$char_traits@_W@std@@V?$allocator@_W@2@@1@QAV21@$$QAV21@@Z 10019640 f i cmdline.obj
 0001:00018750       ??$_Emplace_reallocate@ABV?$basic_string@_WU?$char_traits@_W@std@@V?$allocator@_W@2@@std@@@?$vector@V?$basic_string@_WU?$char_traits@_W@std@@V?$allocator@_W@2@@std@@V?$allocator@V?$basic_string@_WU?$char_traits@_W@std@@V?$allocator@_W@2@@std@@@2@@std@@QAEPAV?$basic_string@_WU?$char_traits@_W@std@@V?$allocator@_W@2@@1@QAV21@ABV21@@Z 10019750 f i cmdline.obj
 0001:000188a0       ??$_Traits_find_ch@U?$char_traits@_W@std@@@std@@YAIQB_WII_W@Z 100198a0 f i cmdline.obj
 0001:000188f0       ?_Change_array@?$vector@V?$basic_string@_WU?$char_traits@_W@std@@V?$allocator@_W@2@@std@@V?$allocator@V?$basic_string@_WU?$char_traits@_W@std@@V?$allocator@_W@2@@std@@@2@@std@@AAEXQAV?$basic_string@_WU?$char_traits@_W@std@@V?$allocator@_W@2@@2@II@Z 100198f0 f i cmdline.obj
 0001:00018970       ?allocate@?$allocator@V?$basic_string@_WU?$char_traits@_W@std@@V?$allocator@_W@2@@std@@@std@@QAEPAV?$basic_string@_WU?$char_traits@_W@std@@V?$allocator@_W@2@@2@I@Z 10019970 f i cmdline.obj
 0001:000189d0       ??1?$_Uninitialized_backout_al@V?$allocator@V?$basic_string@_WU?$char_traits@_W@std@@V?$allocator@_W@2@@std@@@std@@@std@@QAE@XZ 100199d0 f i cmdline.obj
 0001:000189e0       ??0Error@@QAE@XZ           100199e0 f i common.obj
 0001:00018aa0       ?al_round@@YAHN@Z          10019aa0 f   common.obj
 0001:00018af0       ?calc_percent@@YAI_K0@Z    10019af0 f   common.obj
 0001:00018bd0       ?get_module_version@@YA_KABV?$basic_string@_WU?$char_traits@_W@std@@V?$allocator@_W@2@@std@@@Z 10019bd0 f   common.obj
 0001:00018c70       ?parse_size_string@@YA_KABV?$basic_string@_WU?$char_traits@_W@std@@V?$allocator@_W@2@@std@@@Z 10019c70 f   common.obj
 0001:00018dc0       ?expand_macros@@YA?AV?$basic_string@_WU?$char_traits@_W@std@@V?$allocator@_W@2@@std@@ABV12@@Z 10019dc0 f   common.obj
 0001:00019500       ?load_file@@YA?AV?$basic_string@_WU?$char_traits@_W@std@@V?$allocator@_W@2@@std@@ABV12@PAI@Z 1001a500 f   common.obj
 0001:000197c0       ?auto_rename@@YA?AV?$basic_string@_WU?$char_traits@_W@std@@V?$allocator@_W@2@@std@@ABV12@@Z 1001a7c0 f   common.obj
 0001:00019bd0       ??$?H_WU?$char_traits@_W@std@@V?$allocator@_W@1@@std@@YA?AV?$basic_string@_WU?$char_traits@_W@std@@V?$allocator@_W@2@@0@QB_W$$QAV10@@Z 1001abd0 f i common.obj
 0001:00019c50       ??0Error@@QAE@ABVexception@std@@@Z 1001ac50 f i delete.obj
 0001:00019f60       ?do_update_ui@ArchiveFileDeleterProgress@@EAEXXZ 1001af60 f i delete.obj
 0001:0001a580       ??_D?$basic_ostringstream@_WU?$char_traits@_W@std@@V?$allocator@_W@2@@std@@QAEXXZ 1001b580 f i delete.obj
 0001:0001a610       ??_GDeleteSrcFiles@@UAEPAXI@Z 1001b610 f i update.obj
 0001:0001a610       ??_EDeleteSrcFiles@@UAEPAXI@Z 1001b610 f i * CIL library *:* CIL module *
 0001:0001a610       ??_ESetDirAttr@@UAEPAXI@Z  1001b610 f i * CIL library *:* CIL module *
 0001:0001a610       ??_GSetDirAttr@@UAEPAXI@Z  1001b610 f i extract.obj
 0001:0001a610       ??_GArchiveFileDeleterProgress@@UAEPAXI@Z 1001b610 f i delete.obj
 0001:0001a610       ??_EArchiveFileDeleterProgress@@UAEPAXI@Z 1001b610 f i * CIL library *:* CIL module *
 0001:0001a640       ??0ArchiveFileDeleterStream@@QAE@ABV?$basic_string@_WU?$char_traits@_W@std@@V?$allocator@_W@2@@std@@V?$shared_ptr@VProgressMonitor@@@2@@Z 1001b640 f i delete.obj
 0001:0001a790       ?QueryInterface@ArchiveFileDeleterStream@@UAGJABU_GUID@@PAPAX@Z 1001b790 f i delete.obj
 0001:0001a870       ?AddRef@ArchiveOpenStream@@UAGKXZ 1001b870 f i open.obj
 0001:0001a870       ?AddRef@ArchiveSubStream@@UAGKXZ 1001b870 f i open.obj
 0001:0001a870       ?AddRef@ArchiveFileDeleterStream@@UAGKXZ 1001b870 f i delete.obj
 0001:0001a870       ?AddRef@ArchiveFileDeleter@@UAGKXZ 1001b870 f i delete.obj
 0001:0001a870       ?AddRef@CachedFileExtractStream@@UAGKXZ 1001b870 f i extract.obj
 0001:0001a890       ?Release@ArchiveOpenStream@@UAGKXZ 1001b890 f i open.obj
 0001:0001a890       ?Release@ArchiveSubStream@@UAGKXZ 1001b890 f i open.obj
 0001:0001a890       ?Release@ArchiveFileDeleterStream@@UAGKXZ 1001b890 f i delete.obj
 0001:0001a890       ?Release@ArchiveFileDeleter@@UAGKXZ 1001b890 f i delete.obj
 0001:0001a890       ?Release@CachedFileExtractStream@@UAGKXZ 1001b890 f i extract.obj
 0001:0001a8c0       ?Write@ArchiveFileDeleterStream@@UAGJPBXIPAI@Z 1001b8c0 f i delete.obj
 0001:0001a9f0       ?Seek@ArchiveFileDeleterStream@@UAGJ_JIPA_K@Z 1001b9f0 f i delete.obj
 0001:0001ab20       ?SetSize@ArchiveFileDeleterStream@@UAGJ_K@Z 1001bb20 f i delete.obj
 0001:0001ac80       ??_EArchiveFileDeleterStream@@UAEPAXI@Z 1001bc80 f i * CIL library *:* CIL module *
 0001:0001ac80       ??_GArchiveFileDeleterStream@@UAEPAXI@Z 1001bc80 f i delete.obj
 0001:0001acf0       ??4Error@@QAEAAU0@ABU0@@Z  1001bcf0 f i delete.obj
 0001:0001ad40       ??4Error@@QAEAAU0@$$QAU0@@Z 1001bd40 f i delete.obj
 0001:0001ae10       ?QueryInterface@ArchiveFileDeleter@@UAGJABU_GUID@@PAPAX@Z 1001be10 f i delete.obj
 0001:0001aef0       ?SetTotal@ArchiveFileDeleter@@UAGJ_K@Z 1001bef0 f i delete.obj
 0001:0001afc0       ?SetCompleted@ArchiveFileDeleter@@UAGJPB_K@Z 1001bfc0 f i delete.obj
 0001:0001b0a0       ?GetUpdateItemInfo@ArchiveFileDeleter@@UAGJIPAH0PAI@Z 1001c0a0 f i delete.obj
 0001:0001b100       ?GetProperty@ArchiveFileDeleter@@UAGJIKPAUtagPROPVARIANT@@@Z 1001c100 f i delete.obj
 0001:0001b220       ?GetStream@ArchiveFileDeleter@@UAGJIPAPAUISequentialInStream@@@Z 1001c220 f i delete.obj
 0001:0001b260       ?SetOperationResult@ArchiveFileDeleter@@UAGJH@Z 1001c260 f i delete.obj
 0001:0001b260       ?PrepareOperation@ArchiveTester@@UAGJH@Z 1001c260 f i test.obj
 0001:0001b2a0       ??_GArchiveFileDeleter@@UAEPAXI@Z 1001c2a0 f i delete.obj
 0001:0001b2a0       ??_EArchiveFileDeleter@@UAEPAXI@Z 1001c2a0 f i * CIL library *:* CIL module *
 0001:0001b350       ?enum_deleted_indices@Archive@@AAEXIAAV?$vector@IV?$allocator@I@std@@@std@@@Z 1001c350 f   delete.obj
 0001:0001b3e0       ?delete_files@Archive@@QAEXABV?$vector@IV?$allocator@I@std@@@std@@@Z 1001c3e0 f   delete.obj
 0001:0001bee0       ??1?$ComObject@UIOutStream@@@@QAE@XZ 1001cee0 f i delete.obj
 0001:0001bee0       ??1?$ComObject@UISequentialInStream@@@@QAE@XZ 1001cee0 f i open.obj
 0001:0001bee0       ??1?$ComObject@UIInStream@@@@QAE@XZ 1001cee0 f i open.obj
 0001:0001bee0       ??1?$ComObject@UIInArchive@@@@QAE@XZ 1001cee0 f i open.obj
 0001:0001bee0       ??1?$ComObject@UIArchiveExtractCallback@@@@QAE@XZ 1001cee0 f i extract.obj
 0001:0001bee0       ??1?$ComObject@UIArchiveUpdateCallback@@@@QAE@XZ 1001cee0 f i delete.obj
 0001:0001bee0       ??1?$ComObject@UIInArchiveGetStream@@@@QAE@XZ 1001cee0 f i open.obj
 0001:0001bee0       ??1?$ComObject@UIArchiveAllowTail@@@@QAE@XZ 1001cee0 f i open.obj
 0001:0001bee0       ??1?$ComObject@UIOutArchive@@@@QAE@XZ 1001cee0 f i delete.obj
 0001:0001bee0       ??1?$ComObject@UISetProperties@@@@QAE@XZ 1001cee0 f i update.obj
 0001:0001bf30       ??1?$shared_ptr@VProgressMonitor@@@std@@QAE@XZ 1001cf30 f i delete.obj
 0001:0001bf30       ??1?$shared_ptr@VArchiveUpdateProgress@@@std@@QAE@XZ 1001cf30 f i update.obj
 0001:0001bf30       ??1?$shared_ptr@V?$list@UError@@V?$allocator@UError@@@std@@@std@@@std@@QAE@XZ 1001cf30 f i extract.obj
 0001:0001bf30       ??1?$shared_ptr@V?$map@IUFileIndexInfo@@U?$less@I@std@@V?$allocator@U?$pair@$$CBIUFileIndexInfo@@@std@@@3@@std@@@std@@QAE@XZ 1001cf30 f i update.obj
 0001:0001bf30       ??1?$shared_ptr@_N@std@@QAE@XZ 1001cf30 f i extract.obj
 0001:0001bf30       ??1?$shared_ptr@VArchiveFileDeleterProgress@@@std@@QAE@XZ 1001cf30 f i delete.obj
 0001:0001bf30       ??1?$shared_ptr@V?$set@IU?$less@I@std@@V?$allocator@I@2@@std@@@std@@QAE@XZ 1001cf30 f i extract.obj
 0001:0001bf30       ??1?$shared_ptr@W4OverwriteAction@@@std@@QAE@XZ 1001cf30 f i extract.obj
 0001:0001bf30       ??1?$shared_ptr@VArchive@@@std@@QAE@XZ 1001cf30 f i extract.obj
 0001:0001bf30       ??1?$shared_ptr@X@std@@QAE@XZ 1001cf30 f i plugin.obj
 0001:0001bf30       ??1?$shared_ptr@VFileWriteCache@@@std@@QAE@XZ 1001cf30 f i extract.obj
 0001:0001bf30       ??1?$shared_ptr@VExtractProgress@@@std@@QAE@XZ 1001cf30 f i extract.obj
 0001:0001bf70       ??1?$list@UError@@V?$allocator@UError@@@std@@@std@@QAE@XZ 1001cf70 f i delete.obj
 0001:0001bfe0       ??0?$list@UError@@V?$allocator@UError@@@std@@@std@@QAE@XZ 1001cfe0 f i delete.obj
 0001:0001c010       ?seekpos@?$basic_stringbuf@_WU?$char_traits@_W@std@@V?$allocator@_W@2@@std@@MAE?AV?$fpos@U_Mbstatet@@@2@V32@H@Z 1001d010 f i delete.obj
 0001:0001c120       ?seekoff@?$basic_stringbuf@_WU?$char_traits@_W@std@@V?$allocator@_W@2@@std@@MAE?AV?$fpos@U_Mbstatet@@@2@_JHH@Z 1001d120 f i delete.obj
 0001:0001c2c0       ?underflow@?$basic_stringbuf@_WU?$char_traits@_W@std@@V?$allocator@_W@2@@std@@MAEGXZ 1001d2c0 f i delete.obj
 0001:0001c320       ?pbackfail@?$basic_stringbuf@_WU?$char_traits@_W@std@@V?$allocator@_W@2@@std@@MAEGG@Z 1001d320 f i delete.obj
 0001:0001c390       ?overflow@?$basic_stringbuf@_WU?$char_traits@_W@std@@V?$allocator@_W@2@@std@@MAEGG@Z 1001d390 f i delete.obj
 0001:0001c510       ??1?$basic_stringbuf@_WU?$char_traits@_W@std@@V?$allocator@_W@2@@std@@UAE@XZ 1001d510 f i delete.obj
 0001:0001c5f0       ?imbue@?$basic_streambuf@_WU?$char_traits@_W@std@@@std@@MAEXABVlocale@2@@Z 1001d5f0 f i delete.obj
 0001:0001c600       ?sync@?$basic_streambuf@_WU?$char_traits@_W@std@@@std@@MAEHXZ 1001d600 f i delete.obj
 0001:0001c610       ?setbuf@?$basic_streambuf@_WU?$char_traits@_W@std@@@std@@MAEPAV12@PA_W_J@Z 1001d610 f i delete.obj
 0001:0001c620       ?seekpos@?$basic_streambuf@_WU?$char_traits@_W@std@@@std@@MAE?AV?$fpos@U_Mbstatet@@@2@V32@H@Z 1001d620 f i delete.obj
 0001:0001c650       ?seekoff@?$basic_streambuf@_WU?$char_traits@_W@std@@@std@@MAE?AV?$fpos@U_Mbstatet@@@2@_JHH@Z 1001d650 f i delete.obj
 0001:0001c680       ?xsputn@?$basic_streambuf@_WU?$char_traits@_W@std@@@std@@MAE_JPB_W_J@Z 1001d680 f i delete.obj
 0001:0001c770       ?xsgetn@?$basic_streambuf@_WU?$char_traits@_W@std@@@std@@MAE_JPA_W_J@Z 1001d770 f i delete.obj
 0001:0001c880       ?uflow@?$basic_streambuf@_WU?$char_traits@_W@std@@@std@@MAEGXZ 1001d880 f i delete.obj
 0001:0001c8b0       ?underflow@?$basic_streambuf@_WU?$char_traits@_W@std@@@std@@MAEGXZ 1001d8b0 f i delete.obj
 0001:0001c8c0       ?showmanyc@?$basic_streambuf@_WU?$char_traits@_W@std@@@std@@MAE_JXZ 1001d8c0 f i delete.obj
 0001:0001c8d0       ?overflow@?$basic_streambuf@_WU?$char_traits@_W@std@@@std@@MAEGG@Z 1001d8d0 f i delete.obj
 0001:0001c8d0       ?pbackfail@?$basic_streambuf@_WU?$char_traits@_W@std@@@std@@MAEGG@Z 1001d8d0 f i delete.obj
 0001:0001c8e0       @_guard_check_icall_nop@4  1001d8e0 f i LIBCMT:guard_support.obj
 0001:0001c8e0       ?_Unlock@?$basic_streambuf@_WU?$char_traits@_W@std@@@std@@UAEXXZ 1001d8e0 f i delete.obj
 0001:0001c8e0       ?_Lock@?$basic_streambuf@_WU?$char_traits@_W@std@@@std@@UAEXXZ 1001d8e0 f i delete.obj
 0001:0001c8f0       ?str@?$basic_ostringstream@_WU?$char_traits@_W@std@@V?$allocator@_W@2@@std@@QBE?AV?$basic_string@_WU?$char_traits@_W@std@@V?$allocator@_W@2@@2@XZ 1001d8f0 f i delete.obj
 0001:0001c9b0       ??0?$basic_ostringstream@_WU?$char_traits@_W@std@@V?$allocator@_W@2@@std@@QAE@H@Z 1001d9b0 f i delete.obj
 0001:0001cbd0       ??1?$basic_ostream@_WU?$char_traits@_W@std@@@std@@UAE@XZ 1001dbd0 f i delete.obj
 0001:0001cbf0       ??1?$basic_ios@_WU?$char_traits@_W@std@@@std@@UAE@XZ 1001dbf0 f i delete.obj
 0001:0001cc40       ??1?$vector@PB_WV?$allocator@PB_W@std@@@std@@QAE@XZ 1001dc40 f i update.obj
 0001:0001cc40       ??1?$vector@_NV?$allocator@_N@std@@@std@@QAE@XZ 1001dc40 f i msearch.obj
 0001:0001cc40       ??1?$vector@IV?$allocator@I@std@@@std@@QAE@XZ 1001dc40 f i delete.obj
 0001:0001cc40       ??1?$_Vb_val@V?$allocator@_N@std@@@std@@QAE@XZ 1001dc40 f i msearch.obj
 0001:0001cc40       ?_Tidy@?$vector@IV?$allocator@I@std@@@std@@AAEXXZ 1001dc40 f i delete.obj
 0001:0001cca0       ??0?$vector@IV?$allocator@I@std@@@std@@QAE@ABV01@@Z 1001dca0 f i delete.obj
 0001:0001cd10       ??_G?$basic_stringbuf@_WU?$char_traits@_W@std@@V?$allocator@_W@2@@std@@UAEPAXI@Z 1001dd10 f i delete.obj
 0001:0001cd10       ??_E?$basic_stringbuf@_WU?$char_traits@_W@std@@V?$allocator@_W@2@@std@@UAEPAXI@Z 1001dd10 f i * CIL library *:* CIL module *
 0001:0001cd40       ??_G?$basic_streambuf@_WU?$char_traits@_W@std@@@std@@UAEPAXI@Z 1001dd40 f i delete.obj
 0001:0001cd40       ??_E?$basic_streambuf@_WU?$char_traits@_W@std@@@std@@UAEPAXI@Z 1001dd40 f i * CIL library *:* CIL module *
 0001:0001cd90       ??_E?$basic_ostringstream@_WU?$char_traits@_W@std@@V?$allocator@_W@2@@std@@UAEPAXI@Z 1001dd90 f i * CIL library *:* CIL module *
 0001:0001cd90       ??_G?$basic_ostringstream@_WU?$char_traits@_W@std@@V?$allocator@_W@2@@std@@UAEPAXI@Z 1001dd90 f i delete.obj
 0001:0001cdc0       ??_E?$basic_ostream@_WU?$char_traits@_W@std@@@std@@UAEPAXI@Z 1001ddc0 f i * CIL library *:* CIL module *
 0001:0001cdc0       ??_G?$basic_ostream@_WU?$char_traits@_W@std@@@std@@UAEPAXI@Z 1001ddc0 f i delete.obj
 0001:0001ce40       ??_E?$basic_ios@_WU?$char_traits@_W@std@@@std@@UAEPAXI@Z 1001de40 f i * CIL library *:* CIL module *
 0001:0001ce40       ??_G?$basic_ios@_WU?$char_traits@_W@std@@@std@@UAEPAXI@Z 1001de40 f i delete.obj
 0001:0001cea0       ?_Pnavail@?$basic_streambuf@_WU?$char_traits@_W@std@@@std@@IBE_JXZ 1001dea0 f i delete.obj
 0001:0001cec0       ?_Gnavail@?$basic_streambuf@_WU?$char_traits@_W@std@@@std@@IBE_JXZ 1001dec0 f i delete.obj
 0001:0001cee0       ??$?HDU?$char_traits@D@std@@V?$allocator@D@1@@std@@YA?AV?$basic_string@DU?$char_traits@D@std@@V?$allocator@D@2@@0@$$QAV10@QBD@Z 1001dee0 f i delete.obj
 0001:0001cf50       ??$?6_WU?$char_traits@_W@std@@_J@std@@YAAAV?$basic_ostream@_WU?$char_traits@_W@std@@@0@AAV10@ABU?$_Smanip@_J@0@@Z 1001df50 f i delete.obj
 0001:0001cf80       ??$?6_WU?$char_traits@_W@std@@@std@@YAAAV?$basic_ostream@_WU?$char_traits@_W@std@@@0@AAV10@PB_W@Z 1001df80 f i delete.obj
 0001:0001d1f0       ??$?6_WU?$char_traits@_W@std@@@std@@YAAAV?$basic_ostream@_WU?$char_traits@_W@std@@@0@AAV10@_W@Z 1001e1f0 f i delete.obj
 0001:0001d480       ??$use_facet@V?$ctype@_W@std@@@std@@YAABV?$ctype@_W@0@ABVlocale@0@@Z 1001e480 f i delete.obj
 0001:0001d620       ?_Delete_this@?$_Ref_count@V?$map@IUFileIndexInfo@@U?$less@I@std@@V?$allocator@U?$pair@$$CBIUFileIndexInfo@@@std@@@3@@std@@@std@@EAEXXZ 1001e620 f i update.obj
 0001:0001d620       ?_Delete_this@?$_Ref_count@V?$list@UError@@V?$allocator@UError@@@std@@@std@@@std@@EAEXXZ 1001e620 f i plugin.obj
 0001:0001d620       ?_Delete_this@?$_Ref_count@VFileWriteCache@@@std@@EAEXXZ 1001e620 f i extract.obj
 0001:0001d620       ?_Delete_this@?$_Ref_count@V?$set@IU?$less@I@std@@V?$allocator@I@2@@std@@@std@@EAEXXZ 1001e620 f i extract.obj
 0001:0001d620       ?_Delete_this@?$_Ref_count@_N@std@@EAEXXZ 1001e620 f i extract.obj
 0001:0001d620       ?_Delete_this@?$_Ref_count@VArchive@@@std@@EAEXXZ 1001e620 f i open.obj
 0001:0001d620       ?_Delete_this@?$_Ref_count@VArchiveFileDeleterProgress@@@std@@EAEXXZ 1001e620 f i delete.obj
 0001:0001d620       ?_Delete_this@?$_Ref_count@VExtractProgress@@@std@@EAEXXZ 1001e620 f i extract.obj
 0001:0001d620       ?_Delete_this@?$_Ref_count@VFileFilter@Far@@@std@@EAEXXZ 1001e620 f i ui.obj
 0001:0001d620       ?_Delete_this@?$_Ref_count@VArchiveUpdateProgress@@@std@@EAEXXZ 1001e620 f i update.obj
 0001:0001d620       ?_Delete_this@?$_Ref_count@W4OverwriteAction@@@std@@EAEXXZ 1001e620 f i extract.obj
 0001:0001d630       ?_Destroy@?$_Ref_count@VArchiveFileDeleterProgress@@@std@@EAEXXZ 1001e630 f i delete.obj
 0001:0001d630       ?_Destroy@?$_Ref_count@VExtractProgress@@@std@@EAEXXZ 1001e630 f i extract.obj
 0001:0001d630       ?_Destroy@?$_Ref_count@VArchiveUpdateProgress@@@std@@EAEXXZ 1001e630 f i update.obj
 0001:0001d640       ??1?$_Temporary_owner@VExtractProgress@@@std@@QAE@XZ 1001e640 f i extract.obj
 0001:0001d640       ??1?$_Temporary_owner@VArchiveUpdateProgress@@@std@@QAE@XZ 1001e640 f i update.obj
 0001:0001d640       ??1?$_Temporary_owner@VArchiveFileDeleterProgress@@@std@@QAE@XZ 1001e640 f i delete.obj
 0001:0001d650       ??1sentry@?$basic_ostream@_WU?$char_traits@_W@std@@@std@@QAE@XZ 1001e650 f i delete.obj
 0001:0001d6c0       ??0sentry@?$basic_ostream@_WU?$char_traits@_W@std@@@std@@QAE@AAV12@@Z 1001e6c0 f i delete.obj
 0001:0001d800       ?sputn@?$basic_streambuf@_WU?$char_traits@_W@std@@@std@@QAE_JPB_W_J@Z 1001e800 f i delete.obj
 0001:0001d820       ??_G?$_Ref_count@VFileWriteCache@@@std@@UAEPAXI@Z 1001e820 f i extract.obj
 0001:0001d820       ??_G?$_Ref_count@_N@std@@UAEPAXI@Z 1001e820 f i extract.obj
 0001:0001d820       ??_E?$_Ref_count@_N@std@@UAEPAXI@Z 1001e820 f i * CIL library *:* CIL module *
 0001:0001d820       ??_G?$_Ref_count@V?$list@UError@@V?$allocator@UError@@@std@@@std@@@std@@UAEPAXI@Z 1001e820 f i plugin.obj
 0001:0001d820       ??_E?$_Ref_count@VArchiveUpdateProgress@@@std@@UAEPAXI@Z 1001e820 f i * CIL library *:* CIL module *
 0001:0001d820       ??_E?$_Ref_count@V?$list@UError@@V?$allocator@UError@@@std@@@std@@@std@@UAEPAXI@Z 1001e820 f i * CIL library *:* CIL module *
 0001:0001d820       ??_E?$_Ref_count@VExtractProgress@@@std@@UAEPAXI@Z 1001e820 f i * CIL library *:* CIL module *
 0001:0001d820       ??_G?$_Ref_count@W4OverwriteAction@@@std@@UAEPAXI@Z 1001e820 f i extract.obj
 0001:0001d820       ??_G?$_Ref_count@VArchiveUpdateProgress@@@std@@UAEPAXI@Z 1001e820 f i update.obj
 0001:0001d820       ??_E?$_Ref_count@W4OverwriteAction@@@std@@UAEPAXI@Z 1001e820 f i * CIL library *:* CIL module *
 0001:0001d820       ??_G?$_Ref_count@VArchiveFileDeleterProgress@@@std@@UAEPAXI@Z 1001e820 f i delete.obj
 0001:0001d820       ??_E?$_Ref_count@VArchiveFileDeleterProgress@@@std@@UAEPAXI@Z 1001e820 f i * CIL library *:* CIL module *
 0001:0001d820       ??_E?$_Ref_count@V?$set@IU?$less@I@std@@V?$allocator@I@2@@std@@@std@@UAEPAXI@Z 1001e820 f i * CIL library *:* CIL module *
 0001:0001d820       ??_G?$_Ref_count@VFileFilter@Far@@@std@@UAEPAXI@Z 1001e820 f i ui.obj
 0001:0001d820       ??_G?$_Ref_count@VArchive@@@std@@UAEPAXI@Z 1001e820 f i open.obj
 0001:0001d820       ??_G?$_Ref_count@V?$set@IU?$less@I@std@@V?$allocator@I@2@@std@@@std@@UAEPAXI@Z 1001e820 f i extract.obj
 0001:0001d820       ??_G?$_Ref_count@VExtractProgress@@@std@@UAEPAXI@Z 1001e820 f i extract.obj
 0001:0001d820       ??_E?$_Ref_count@VFileWriteCache@@@std@@UAEPAXI@Z 1001e820 f i * CIL library *:* CIL module *
 0001:0001d820       ??_G?$_Ref_count@V?$map@IUFileIndexInfo@@U?$less@I@std@@V?$allocator@U?$pair@$$CBIUFileIndexInfo@@@std@@@3@@std@@@std@@UAEPAXI@Z 1001e820 f i update.obj
 0001:0001d820       ??_E?$_Ref_count@V?$map@IUFileIndexInfo@@U?$less@I@std@@V?$allocator@U?$pair@$$CBIUFileIndexInfo@@@std@@@3@@std@@@std@@UAEPAXI@Z 1001e820 f i * CIL library *:* CIL module *
 0001:0001d820       ??_E?$_Ref_count@VFileFilter@Far@@@std@@UAEPAXI@Z 1001e820 f i * CIL library *:* CIL module *
 0001:0001d820       ??_E?$_Ref_count@VArchive@@@std@@UAEPAXI@Z 1001e820 f i * CIL library *:* CIL module *
 0001:0001d840       ??1_Sentry_base@?$basic_ostream@_WU?$char_traits@_W@std@@@std@@QAE@XZ 1001e840 f i delete.obj
 0001:0001d890       ?_Osfx@?$basic_ostream@_WU?$char_traits@_W@std@@@std@@QAEXXZ 1001e890 f i delete.obj
 0001:0001d920       ??$_Insert_string@_WU?$char_traits@_W@std@@I@std@@YAAAV?$basic_ostream@_WU?$char_traits@_W@std@@@0@AAV10@QB_WI@Z 1001e920 f i delete.obj
 0001:0001db60       ??$_Construct@PBD@?$basic_string@_WU?$char_traits@_W@std@@V?$allocator@_W@2@@std@@QAEXPBDQBDUinput_iterator_tag@1@@Z 1001eb60 f i strutils.obj
 0001:0001db60       ??$_Construct@PAD@?$basic_string@_WU?$char_traits@_W@std@@V?$allocator@_W@2@@std@@QAEXPADQADUinput_iterator_tag@1@@Z 1001eb60 f i delete.obj
 0001:0001dcd0       ??$_Sort_unchecked@PAIU?$less@X@std@@@std@@YAXPAI0HU?$less@X@0@@Z 1001ecd0 f i delete.obj
 0001:0001de70       ??1?$_Tidy_deallocate_guard@V?$basic_string@_WU?$char_traits@_W@std@@V?$allocator@_W@2@@std@@@std@@QAE@XZ 1001ee70 f i delete.obj
 0001:0001de80       ??$_Partition_by_median_guess_unchecked@PAIU?$less@X@std@@@std@@YA?AU?$pair@PAIPAI@0@PAI0U?$less@X@0@@Z 1001ee80 f i delete.obj
 0001:0001e010       ??$_Guess_median_unchecked@PAIU?$less@X@std@@@std@@YAXPAI00U?$less@X@0@@Z 1001f010 f i delete.obj
 0001:0001e140       ??$_Pop_heap_hole_by_index@PAIIU?$less@X@std@@@std@@YAXPAIHH$$QAIU?$less@X@0@@Z 1001f140 f i delete.obj
 0001:0001e1d0       ?AddRef@ArchiveOpenStream@@W3AGKXZ 1001f1d0 f i open.obj
 0001:0001e1d0       ?AddRef@ArchiveFileDeleter@@W3AGKXZ 1001f1d0 f i delete.obj
 0001:0001e1d0       ?AddRef@CachedFileExtractStream@@W3AGKXZ 1001f1d0 f i extract.obj
 0001:0001e1d0       ?AddRef@ArchiveSubStream@@W3AGKXZ 1001f1d0 f i open.obj
 0001:0001e1d0       ?AddRef@ArchiveFileDeleterStream@@W3AGKXZ 1001f1d0 f i delete.obj
 0001:0001e1da       ?Release@ArchiveFileDeleterStream@@W3AGKXZ 1001f1da f i delete.obj
 0001:0001e1da       ?Release@ArchiveSubStream@@W3AGKXZ 1001f1da f i open.obj
 0001:0001e1da       ?Release@CachedFileExtractStream@@W3AGKXZ 1001f1da f i extract.obj
 0001:0001e1da       ?Release@ArchiveFileDeleter@@W3AGKXZ 1001f1da f i delete.obj
 0001:0001e1da       ?Release@ArchiveOpenStream@@W3AGKXZ 1001f1da f i open.obj
 0001:0001e1e4       ??_E?$basic_ostringstream@_WU?$char_traits@_W@std@@V?$allocator@_W@2@@std@@$4PPPPPPPM@A@AEPAXI@Z 1001f1e4 f i delete.obj
 0001:0001e1ec       ?QueryInterface@ArchiveFileDeleter@@W3AGJABU_GUID@@PAPAX@Z 1001f1ec f i delete.obj
 0001:0001e1f6       ??_E?$basic_ostream@_WU?$char_traits@_W@std@@@std@@$4PPPPPPPM@A@AEPAXI@Z 1001f1f6 f i delete.obj
 0001:0001e1fe       ??_EArchiveFileDeleter@@W3AEPAXI@Z 1001f1fe f i delete.obj
 0001:0001e206       ?QueryInterface@ArchiveFileDeleterStream@@W3AGJABU_GUID@@PAPAX@Z 1001f206 f i delete.obj
 0001:0001e210       ??_EArchiveFileDeleterStream@@W3AEPAXI@Z 1001f210 f i delete.obj
 0001:0001e220       ?_Get_deleter@_Ref_count_base@std@@UBEPAXABVtype_info@@@Z 1001f220 f i delete.obj
 0001:0001e230       ??1?$unique_ptr@V_Facet_base@std@@U?$default_delete@V_Facet_base@std@@@2@@std@@QAE@XZ 1001f230 f i delete.obj
 0001:0001e240       ??1facet@locale@std@@MAE@XZ 1001f240 f i delete.obj
 0001:0001e250       ??_E?$ctype@_W@std@@MAEPAXI@Z 1001f250 f i * CIL library *:* CIL module *
 0001:0001e250       ??_G?$ctype@_W@std@@MAEPAXI@Z 1001f250 f i delete.obj
 0001:0001e2a0       ?do_is@?$ctype@_W@std@@MBEPB_WPB_W0PAF@Z 1001f2a0 f i delete.obj
 0001:0001e2c0       ?do_scan_is@?$ctype@_W@std@@MBEPB_WFPB_W0@Z 1001f2c0 f i delete.obj
 0001:0001e300       ?do_is@?$ctype@_W@std@@MBE_NF_W@Z 1001f300 f i delete.obj
 0001:0001e320       ?do_scan_not@?$ctype@_W@std@@MBEPB_WFPB_W0@Z 1001f320 f i delete.obj
 0001:0001e360       ?do_tolower@?$ctype@_W@std@@MBEPB_WPA_WPB_W@Z 1001f360 f i delete.obj
 0001:0001e3a0       ?do_tolower@?$ctype@_W@std@@MBE_W_W@Z 1001f3a0 f i delete.obj
 0001:0001e3c0       ?do_toupper@?$ctype@_W@std@@MBEPB_WPA_WPB_W@Z 1001f3c0 f i delete.obj
 0001:0001e400       ?do_toupper@?$ctype@_W@std@@MBE_W_W@Z 1001f400 f i delete.obj
 0001:0001e420       ?do_widen@?$ctype@_W@std@@MBEPBDPBD0PA_W@Z 1001f420 f i delete.obj
 0001:0001e4a0       ?do_narrow@?$ctype@_W@std@@MBEPB_WPB_W0DPAD@Z 1001f4a0 f i delete.obj
 0001:0001e530       ?do_narrow@?$ctype@_W@std@@MBED_WD@Z 1001f530 f i delete.obj
 0001:0001e580       ??0_Locinfo@std@@QAE@PBD@Z 1001f580 f i delete.obj
 0001:0001e630       ??1?$_Yarn@D@std@@QAE@XZ   1001f630 f i delete.obj
 0001:0001e630       ??1?$_Yarn@_W@std@@QAE@XZ  1001f630 f i delete.obj
 0001:0001e650       ??1_Locinfo@std@@QAE@XZ    1001f650 f i delete.obj
 0001:0001e720       ?_Incref@facet@locale@std@@UAEXXZ 1001f720 f i delete.obj
 0001:0001e730       ?do_widen@?$ctype@_W@std@@MBE_WD@Z 1001f730 f i delete.obj
 0001:0001e780       ??0exception@std@@QAE@QBD@Z 1001f780 f i delete.obj
 0001:0001e7c0       ?append@?$basic_string@DU?$char_traits@D@std@@V?$allocator@D@2@@std@@QAEAAV12@QBDI@Z 1001f7c0 f i delete.obj
 0001:0001e920       ??0_System_error@std@@IAE@Verror_code@1@ABV?$basic_string@DU?$char_traits@D@std@@V?$allocator@D@2@@1@@Z 1001f920 f i delete.obj
 0001:0001eb10       ??0failure@ios_base@std@@QAE@PBDABVerror_code@2@@Z 1001fb10 f i delete.obj
 0001:0001ebf0       ??_G_Iostream_error_category@std@@UAEPAXI@Z 1001fbf0 f i delete.obj
 0001:0001ebf0       ??_E_Iostream_error_category@std@@UAEPAXI@Z 1001fbf0 f i * CIL library *:* CIL module *
 0001:0001ec10       ?name@_Iostream_error_category@std@@UBEPBDXZ 1001fc10 f i delete.obj
 0001:0001ec20       ?message@_Iostream_error_category@std@@UBE?AV?$basic_string@DU?$char_traits@D@std@@V?$allocator@D@2@@2@H@Z 1001fc20 f i delete.obj
 0001:0001eca0       ?equivalent@error_category@std@@UBE_NABVerror_code@2@H@Z 1001fca0 f i delete.obj
 0001:0001ecd0       ?default_error_condition@error_category@std@@UBE?AVerror_condition@2@H@Z 1001fcd0 f i delete.obj
 0001:0001ecf0       ?equivalent@error_category@std@@UBE_NHABVerror_condition@2@@Z 1001fcf0 f i delete.obj
 0001:0001ed30       ??$_Immortalize_impl@V_Iostream_error_category@std@@@std@@YGHPAX0PAPAX@Z 1001fd30 f i delete.obj
 0001:0001ed50       ?make_error_code@std@@YA?AVerror_code@1@W4io_errc@1@@Z 1001fd50 f i delete.obj
 0001:0001ed90       ??_E_System_error@std@@UAEPAXI@Z 1001fd90 f i * CIL library *:* CIL module *
 0001:0001ed90       ??_Esystem_error@std@@UAEPAXI@Z 1001fd90 f i * CIL library *:* CIL module *
 0001:0001ed90       ??_Gsystem_error@std@@UAEPAXI@Z 1001fd90 f i delete.obj
 0001:0001ed90       ??_Gfailure@ios_base@std@@UAEPAXI@Z 1001fd90 f i delete.obj
 0001:0001ed90       ??_G_System_error@std@@UAEPAXI@Z 1001fd90 f i delete.obj
 0001:0001ed90       ??_Efailure@ios_base@std@@UAEPAXI@Z 1001fd90 f i * CIL library *:* CIL module *
 0001:0001edc0       ??0failure@ios_base@std@@QAE@ABV012@@Z 1001fdc0 f i delete.obj
 0001:0001ee10       ??0system_error@std@@QAE@ABV01@@Z 1001fe10 f i delete.obj
 0001:0001ee60       ??0_System_error@std@@QAE@ABV01@@Z 1001fe60 f i delete.obj
 0001:0001eeb0       ??0runtime_error@std@@QAE@ABV01@@Z 1001feb0 f i delete.obj
 0001:0001eef0       ?clear@ios_base@std@@QAEXH_N@Z 1001fef0 f i delete.obj
 0001:0001ef70       ?_Decref@facet@locale@std@@UAEPAV_Facet_base@3@XZ 1001ff70 f i delete.obj
 0001:0001ef90       ??_G_Facet_base@std@@UAEPAXI@Z 1001ff90 f i delete.obj
 0001:0001ef90       ??_E_Facet_base@std@@UAEPAXI@Z 1001ff90 f i * CIL library *:* CIL module *
 0001:0001efc0       ??1locale@std@@QAE@XZ      1001ffc0 f i delete.obj
 0001:0001efe0       ??_Eios_base@std@@UAEPAXI@Z 1001ffe0 f i * CIL library *:* CIL module *
 0001:0001efe0       ??_Gios_base@std@@UAEPAXI@Z 1001ffe0 f i delete.obj
 0001:0001f040       ??1CriticalSectionLock@@QAE@XZ 10020040 f i extract.obj
 0001:0001f060       ??1DisableSleepMode@@QAE@XZ 10020060 f i extract.obj
 0001:0001f070       ??0ProgressSuspend@@QAE@AAVProgressMonitor@@@Z 10020070 f i extract.obj
 0001:0001f0c0       ??1ProgressSuspend@@QAE@XZ 100200c0 f i extract.obj
 0001:0001f0d0       ??0ExtractOptions@@QAE@XZ  100200d0 f   extract.obj
 0001:0001f120       ?do_update_ui@ExtractProgress@@EAEXXZ 10020120 f i extract.obj
 0001:0001fd10       ??_EExtractProgress@@UAEPAXI@Z 10020d10 f i * CIL library *:* CIL module *
 0001:0001fd10       ??_GExtractProgress@@UAEPAXI@Z 10020d10 f i extract.obj
 0001:0001fe60       ?create_file@FileWriteCache@@AAEXXZ 10020e60 f i extract.obj
 0001:00020120       ?allocate_file@FileWriteCache@@AAEXXZ 10021120 f i extract.obj
 0001:00020240       ?write_file@FileWriteCache@@AAEXXZ 10021240 f i extract.obj
 0001:00020400       ?close_file@FileWriteCache@@AAEXXZ 10021400 f i extract.obj
 0001:00020530       ?write@FileWriteCache@@AAEXXZ 10021530 f i extract.obj
 0001:00020600       ??R<lambda_1>@?1??write@FileWriteCache@@AAEXXZ@QBEXABUCacheRecord@2@@Z 10021600 f i extract.obj
 0001:000206c0       ?store@FileWriteCache@@AAEXPBEI@Z 100216c0 f i extract.obj
 0001:00020810       ??0FileWriteCache@@QAE@V?$shared_ptr@VArchive@@@std@@V?$shared_ptr@_N@2@V?$shared_ptr@V?$list@UError@@V?$allocator@UError@@@std@@@std@@@2@V?$shared_ptr@VExtractProgress@@@2@@Z 10021810 f i extract.obj
 0001:00020b20       ??1FileWriteCache@@QAE@XZ  10021b20 f i extract.obj
 0001:00020d10       ?store_data@FileWriteCache@@QAEXPBEI@Z 10021d10 f i extract.obj
 0001:00020ec0       ?QueryInterface@CachedFileExtractStream@@UAGJABU_GUID@@PAPAX@Z 10021ec0 f i extract.obj
 0001:00020f90       ?Write@CachedFileExtractStream@@UAGJPBXIPAI@Z 10021f90 f i extract.obj
 0001:00021070       ??_GCachedFileExtractStream@@UAEPAXI@Z 10022070 f i extract.obj
 0001:00021070       ??_ECachedFileExtractStream@@UAEPAXI@Z 10022070 f i * CIL library *:* CIL module *
 0001:000210e0       ??0ArchiveExtractor@@QAE@IABV?$basic_string@_WU?$char_traits@_W@std@@V?$allocator@_W@2@@std@@V?$shared_ptr@VArchive@@@2@V?$shared_ptr@W4OverwriteAction@@@2@V?$shared_ptr@_N@2@V?$shared_ptr@V?$list@UError@@V?$allocator@UError@@@std@@@std@@@2@V?$shared_ptr@VFileWriteCache@@@2@V?$shared_ptr@VExtractProgress@@@2@V?$shared_ptr@V?$set@IU?$less@I@std@@V?$allocator@I@2@@std@@@2@@Z 100220e0 f i extract.obj
 0001:00021460       ?QueryInterface@ArchiveTester@@UAGJABU_GUID@@PAPAX@Z 10022460 f i test.obj
 0001:00021460       ?QueryInterface@ArchiveExtractor@@UAGJABU_GUID@@PAPAX@Z 10022460 f i extract.obj
 0001:00021560       ?SetTotal@ArchiveExtractor@@UAGJ_K@Z 10022560 f i extract.obj
 0001:00021650       ?SetCompleted@ArchiveExtractor@@UAGJPB_K@Z 10022650 f i extract.obj
 0001:000217f0       ?GetStream@ArchiveExtractor@@UAGJIPAPAUISequentialOutStream@@H@Z 100227f0 f i extract.obj
 0001:00022030       ?PrepareOperation@ArchiveExtractor@@UAGJH@Z 10023030 f i extract.obj
 0001:000220b0       ?SetOperationResult@ArchiveExtractor@@UAGJH@Z 100230b0 f i extract.obj
 0001:000223e0       ?CryptoGetTextPassword@ArchiveExtractor@@UAGJPAPA_W@Z 100233e0 f i extract.obj
 0001:000225e0       ??_EArchiveExtractor@@UAEPAXI@Z 100235e0 f i * CIL library *:* CIL module *
 0001:000225e0       ??_GArchiveExtractor@@UAEPAXI@Z 100235e0 f i extract.obj
 0001:00022610       ??1ArchiveExtractor@@UAE@XZ 10023610 f i extract.obj
 0001:000228c0       ??0Error@@QAE@$$QAU0@@Z    100238c0 f i extract.obj
 0001:000229c0       ?prepare_dst_dir@Archive@@AAEXABV?$basic_string@_WU?$char_traits@_W@std@@V?$allocator@_W@2@@std@@@Z 100239c0 f   extract.obj
 0001:00022a70       ?do_update_ui@PrepareExtract@@EAEXXZ 10023a70 f i extract.obj
 0001:00022ca0       ?prepare_extract@PrepareExtract@@AAEXABU?$pair@V?$_Vector_const_iterator@V?$_Vector_val@U?$_Simple_types@I@std@@@std@@@std@@V12@@std@@ABV?$basic_string@_WU?$char_traits@_W@std@@V?$allocator@_W@2@@3@@Z 10023ca0 f i extract.obj
 0001:00022cf0       ??R<lambda_1>@?1??prepare_extract@PrepareExtract@@AAEXABU?$pair@V?$_Vector_const_iterator@V?$_Vector_val@U?$_Simple_types@I@std@@@std@@@std@@V12@@std@@ABV?$basic_string@_WU?$char_traits@_W@std@@V?$allocator@_W@2@@4@@Z@QBEXI@Z 10023cf0 f i extract.obj
 0001:00022f30       ??_GPrepareExtract@@UAEPAXI@Z 10023f30 f i extract.obj
 0001:00022f30       ??_EPrepareExtract@@UAEPAXI@Z 10023f30 f i * CIL library *:* CIL module *
 0001:00022f60       ?do_update_ui@SetDirAttr@@EAEXXZ 10023f60 f i extract.obj
 0001:00023190       ?set_dir_attr@SetDirAttr@@AAEXABU?$pair@V?$_Vector_const_iterator@V?$_Vector_val@U?$_Simple_types@I@std@@@std@@@std@@V12@@std@@ABV?$basic_string@_WU?$char_traits@_W@std@@V?$allocator@_W@2@@3@@Z 10024190 f i extract.obj
 0001:000231e0       ??R<lambda_1>@?1??set_dir_attr@SetDirAttr@@AAEXABU?$pair@V?$_Vector_const_iterator@V?$_Vector_val@U?$_Simple_types@I@std@@@std@@@std@@V12@@std@@ABV?$basic_string@_WU?$char_traits@_W@std@@V?$allocator@_W@2@@4@@Z@QBEXI@Z 100241e0 f i extract.obj
 0001:000235a0       ?extract@Archive@@QAEXIABV?$vector@IV?$allocator@I@std@@@std@@ABUExtractOptions@@V?$shared_ptr@V?$list@UError@@V?$allocator@UError@@@std@@@std@@@3@PAV23@@Z 100245a0 f   extract.obj
 0001:00024470       ?delete_archive@Archive@@QAEXXZ 10025470 f   extract.obj
 0001:00024710       ?push_back@?$list@IV?$allocator@I@std@@@std@@QAEXABI@Z 10025710 f i extract.obj
 0001:000247a0       ??1?$list@IV?$allocator@I@std@@@std@@QAE@XZ 100257a0 f i extract.obj
 0001:000247a0       ??1?$list@GV?$allocator@G@std@@@std@@QAE@XZ 100257a0 f i rsrc.obj
 0001:000247e0       ??0?$shared_ptr@V?$list@UError@@V?$allocator@UError@@@std@@@std@@@std@@QAE@ABV01@@Z 100257e0 f i extract.obj
 0001:000247e0       ??0?$shared_ptr@VArchive@@@std@@QAE@ABV01@@Z 100257e0 f i extract.obj
 0001:000247e0       ??0?$shared_ptr@VFileWriteCache@@@std@@QAE@ABV01@@Z 100257e0 f i extract.obj
 0001:00024810       ?assign@?$list@UCacheRecord@FileWriteCache@@V?$allocator@UCacheRecord@FileWriteCache@@@std@@@std@@QAEXIABUCacheRecord@FileWriteCache@@@Z 10025810 f i extract.obj
 0001:00024a00       ??1?$list@UCacheRecord@FileWriteCache@@V?$allocator@UCacheRecord@FileWriteCache@@@std@@@std@@QAE@XZ 10025a00 f i extract.obj
 0001:00024a90       ?shared_from_this@?$enable_shared_from_this@VArchive@@@std@@QAE?AV?$shared_ptr@VArchive@@@2@XZ 10025a90 f i extract.obj
 0001:00024af0       ?push_back@?$list@V?$basic_string@_WU?$char_traits@_W@std@@V?$allocator@_W@2@@std@@V?$allocator@V?$basic_string@_WU?$char_traits@_W@std@@V?$allocator@_W@2@@std@@@2@@std@@QAEXABV?$basic_string@_WU?$char_traits@_W@std@@V?$allocator@_W@2@@2@@Z 10025af0 f i extract.obj
 0001:00024b10       ?append@?$basic_string@_WU?$char_traits@_W@std@@V?$allocator@_W@2@@std@@QAEAAV12@I_W@Z 10025b10 f i extract.obj
 0001:00024cc0       ??1?$_List_node_insert_op@V?$allocator@U?$_List_node@UCacheRecord@FileWriteCache@@PAX@std@@@std@@@std@@QAE@XZ 10025cc0 f i extract.obj
 0001:00024d40       ??1?$_Tree@V?$_Tset_traits@IU?$less@I@std@@V?$allocator@I@2@$0A@@std@@@std@@QAE@XZ 10025d40 f i extract.obj
 0001:00024d80       ?data@str_view@SimpleXML@@QBEPBDXZ 10025d80 f i options.obj
 0001:00024d80       ??$?CVArchive@@$0A@@?$shared_ptr@VArchive@@@std@@QBEPAVArchive@@XZ 10025d80 f i extract.obj
 0001:00024d90       ??$insert@$0A@$0A@@?$_Tree@V?$_Tset_traits@IU?$less@I@std@@V?$allocator@I@2@$0A@@std@@@std@@QAE?AU?$pair@V?$_Tree_const_iterator@V?$_Tree_val@U?$_Tree_simple_types@I@std@@@std@@@std@@_N@1@ABI@Z 10025d90 f i extract.obj
 0001:00024e80       ??$copy@V?$_List_iterator@V?$_List_val@U?$_List_simple_types@I@std@@@std@@@std@@V?$back_insert_iterator@V?$vector@IV?$allocator@I@std@@@std@@@2@@std@@YA?AV?$back_insert_iterator@V?$vector@IV?$allocator@I@std@@@std@@@0@V?$_List_iterator@V?$_List_val@U?$_List_simple_types@I@std@@@std@@@0@0V10@@Z 10025e80 f i extract.obj
 0001:00024f50       ?_Destroy@?$_Ref_count@VFileWriteCache@@@std@@EAEXXZ 10025f50 f i extract.obj
 0001:00024f70       ??1?$_Temporary_owner@VFileWriteCache@@@std@@QAE@XZ 10025f70 f i extract.obj
 0001:00024f90       ?_Destroy@?$_Ref_count@W4OverwriteAction@@@std@@EAEXXZ 10025f90 f i extract.obj
 0001:00024fa0       ??1?$_Temporary_owner@W4OverwriteAction@@@std@@QAE@XZ 10025fa0 f i extract.obj
 0001:00024fb0       ?_Destroy@?$_Ref_count@_N@std@@EAEXXZ 10025fb0 f i extract.obj
 0001:00024fc0       ??1?$_Temporary_owner@_N@std@@QAE@XZ 10025fc0 f i extract.obj
 0001:00024fd0       ??1?$_Alloc_construct_ptr@V?$allocator@U?$_List_node@GPAX@std@@@std@@@std@@QAE@XZ 10025fd0 f i rsrc.obj
 0001:00024fd0       ??1?$_Alloc_construct_ptr@V?$allocator@U?$_List_node@IPAX@std@@@std@@@std@@QAE@XZ 10025fd0 f i extract.obj
 0001:00024ff0       ??$_Erase_tree@V?$allocator@U?$_Tree_node@IPAX@std@@@std@@@?$_Tree_val@U?$_Tree_simple_types@I@std@@@std@@QAEXAAV?$allocator@U?$_Tree_node@IPAX@std@@@1@PAU?$_Tree_node@IPAX@1@@Z 10025ff0 f i extract.obj
 0001:00025030       ?_Destroy@?$_Ref_count@V?$set@IU?$less@I@std@@V?$allocator@I@2@@std@@@std@@EAEXXZ 10026030 f i extract.obj
 0001:00025050       ??1?$_Temporary_owner@V?$set@IU?$less@I@std@@V?$allocator@I@2@@std@@@std@@QAE@XZ 10026050 f i extract.obj
 0001:0002506b       ??_ECachedFileExtractStream@@W3AEPAXI@Z 1002606b f i extract.obj
 0001:00025073       ?QueryInterface@ArchiveTester@@W3AGJABU_GUID@@PAPAX@Z 10026073 f i test.obj
 0001:00025073       ?QueryInterface@ArchiveExtractor@@W3AGJABU_GUID@@PAPAX@Z 10026073 f i extract.obj
 0001:0002507d       ??_EArchiveExtractor@@W7AEPAXI@Z 1002607d f i extract.obj
 0001:00025085       ?QueryInterface@ArchiveExtractor@@W7AGJABU_GUID@@PAPAX@Z 10026085 f i extract.obj
 0001:00025085       ?QueryInterface@ArchiveTester@@W7AGJABU_GUID@@PAPAX@Z 10026085 f i test.obj
 0001:0002508f       ?QueryInterface@CachedFileExtractStream@@W3AGJABU_GUID@@PAPAX@Z 1002608f f i extract.obj
 0001:000250a0       ??0bad_weak_ptr@std@@QAE@XZ 100260a0 f i extract.obj
 0001:000250c0       ?what@bad_weak_ptr@std@@UBEPBDXZ 100260c0 f i extract.obj
 0001:000250d0       ??0bad_weak_ptr@std@@QAE@ABV01@@Z 100260d0 f i extract.obj
 0001:00025110       ?_Throw_bad_weak_ptr@std@@YAXXZ 10026110 f i extract.obj
 0001:00025130       ?dialog_proc@Dialog@Far@@MAEHHHPAX@Z 10026130 f i farutils.obj
 0001:00025150       ?get_plugin_module_path@Far@@YA?AV?$basic_string@_WU?$char_traits@_W@std@@V?$allocator@_W@2@@std@@XZ 10026150 f   farutils.obj
 0001:00025360       ?get_msg@Far@@YA?AV?$basic_string@_WU?$char_traits@_W@std@@V?$allocator@_W@2@@std@@H@Z 10026360 f   farutils.obj
 0001:000253c0       ?get_optimal_msg_width@Far@@YAIXZ 100263c0 f   farutils.obj
 0001:00025400       ?message@Far@@YAHABU_GUID@@ABV?$basic_string@_WU?$char_traits@_W@std@@V?$allocator@_W@2@@std@@H_K@Z 10026400 f   farutils.obj
 0001:00025430       ?menu@Far@@YAHABU_GUID@@ABV?$basic_string@_WU?$char_traits@_W@std@@V?$allocator@_W@2@@std@@ABVMenuItems@1@PB_W@Z 10026430 f   farutils.obj
 0001:00025610       ?get_progress_bar_str@Far@@YA?AV?$basic_string@_WU?$char_traits@_W@std@@V?$allocator@_W@2@@std@@I_K0@Z 10026610 f   farutils.obj
 0001:00025730       ?post_macro@Far@@YA_NABV?$basic_string@_WU?$char_traits@_W@std@@V?$allocator@_W@2@@std@@@Z 10026730 f   farutils.obj
 0001:000257b0       ?is_real_file_panel@Far@@YA_NABUPanelInfo@@@Z 100267b0 f   farutils.obj
 0001:000257d0       ?get_panel_dir@Far@@YA?AV?$basic_string@_WU?$char_traits@_W@std@@V?$allocator@_W@2@@std@@PAX@Z 100267d0 f   farutils.obj
 0001:00025920       ?get_panel_item@Far@@YAXPAXW4FILE_CONTROL_COMMANDS@@IAAV?$Buffer@E@@@Z 10026920 f   farutils.obj
 0001:00025b60       ??1PanelItem@Far@@QAE@XZ   10026b60 f i farutils.obj
 0001:00025c00       ?error_dlg@Far@@YAXABV?$basic_string@_WU?$char_traits@_W@std@@V?$allocator@_W@2@@std@@ABUError@@@Z 10026c00 f   farutils.obj
 0001:00026300       ?info_dlg@Far@@YAXABU_GUID@@ABV?$basic_string@_WU?$char_traits@_W@std@@V?$allocator@_W@2@@std@@1@Z 10027300 f   farutils.obj
 0001:00026460       ?input_dlg@Far@@YA_NABU_GUID@@ABV?$basic_string@_WU?$char_traits@_W@std@@V?$allocator@_W@2@@std@@1AAV34@_K@Z 10027460 f   farutils.obj
 0001:00026530       ?get_label_len@Dialog@Far@@IAEIABV?$basic_string@_WU?$char_traits@_W@std@@V?$allocator@_W@2@@std@@_K@Z 10027530 f   farutils.obj
 0001:00026580       ?frame@Dialog@Far@@AAEXABV?$basic_string@_WU?$char_traits@_W@std@@V?$allocator@_W@2@@std@@@Z 10027580 f   farutils.obj
 0001:00026640       ??0DialogItem@Far@@QAE@XZ  10027640 f i farutils.obj
 0001:000266b0       ?internal_dialog_proc@Dialog@Far@@CGHPAXHH0@Z 100276b0 f   farutils.obj
 0001:000267c0       ??0Dialog@Far@@QAE@ABV?$basic_string@_WU?$char_traits@_W@std@@V?$allocator@_W@2@@std@@PBU_GUID@@IPB_W_K@Z 100277c0 f   farutils.obj
 0001:00026870       ??_EDialog@Far@@UAEPAXI@Z  10027870 f i * CIL library *:* CIL module *
 0001:00026870       ??_GDialog@Far@@UAEPAXI@Z  10027870 f i farutils.obj
 0001:000268a0       ??1Dialog@Far@@UAE@XZ      100278a0 f i farutils.obj
 0001:00026900       ?separator@Dialog@Far@@QAEIXZ 10027900 f   farutils.obj
 0001:000269b0       ?separator@Dialog@Far@@QAEIABV?$basic_string@_WU?$char_traits@_W@std@@V?$allocator@_W@2@@std@@@Z 100279b0 f   farutils.obj
 0001:00026a90       ?label@Dialog@Far@@QAEIABV?$basic_string@_WU?$char_traits@_W@std@@V?$allocator@_W@2@@std@@I_K@Z 10027a90 f   farutils.obj
 0001:00026b90       ?edit_box@Dialog@Far@@QAEIABV?$basic_string@_WU?$char_traits@_W@std@@V?$allocator@_W@2@@std@@I_K@Z 10027b90 f   farutils.obj
 0001:00026c90       ?history_edit_box@Dialog@Far@@QAEIABV?$basic_string@_WU?$char_traits@_W@std@@V?$allocator@_W@2@@std@@0I_K@Z 10027c90 f   farutils.obj
 0001:00026d00       ?pwd_edit_box@Dialog@Far@@QAEIABV?$basic_string@_WU?$char_traits@_W@std@@V?$allocator@_W@2@@std@@I_K@Z 10027d00 f   farutils.obj
 0001:00026df0       ?button@Dialog@Far@@QAEIABV?$basic_string@_WU?$char_traits@_W@std@@V?$allocator@_W@2@@std@@_K@Z 10027df0 f   farutils.obj
 0001:00026f00       ?check_box@Dialog@Far@@QAEIABV?$basic_string@_WU?$char_traits@_W@std@@V?$allocator@_W@2@@std@@H_K@Z 10027f00 f   farutils.obj
 0001:00027010       ?radio_button@Dialog@Far@@QAEIABV?$basic_string@_WU?$char_traits@_W@std@@V?$allocator@_W@2@@std@@_N_K@Z 10028010 f   farutils.obj
 0001:00027130       ?combo_box@Dialog@Far@@QAEIABV?$vector@V?$basic_string@_WU?$char_traits@_W@std@@V?$allocator@_W@2@@std@@V?$allocator@V?$basic_string@_WU?$char_traits@_W@std@@V?$allocator@_W@2@@std@@@2@@std@@II_K@Z 10028130 f   farutils.obj
 0001:000272f0       ?show@Dialog@Far@@QAEHXZ   100282f0 f   farutils.obj
 0001:00027650       ?get_text@Dialog@Far@@QBE?AV?$basic_string@_WU?$char_traits@_W@std@@V?$allocator@_W@2@@std@@I@Z 10028650 f   farutils.obj
 0001:00027730       ?set_text@Dialog@Far@@QAEXIABV?$basic_string@_WU?$char_traits@_W@std@@V?$allocator@_W@2@@std@@@Z 10028730 f   farutils.obj
 0001:00027760       ?get_check@Dialog@Far@@QBE_NI@Z 10028760 f   farutils.obj
 0001:00027780       ?set_list_pos@Dialog@Far@@QAEXII@Z 10028780 f   farutils.obj
 0001:000277d0       ?get_absolute_path@Far@@YA?AV?$basic_string@_WU?$char_traits@_W@std@@V?$allocator@_W@2@@std@@ABV23@@Z 100287d0 f   farutils.obj
 0001:000278e0       ?match_masks@Far@@YA_NABV?$basic_string@_WU?$char_traits@_W@std@@V?$allocator@_W@2@@std@@0@Z 100288e0 f   farutils.obj
 0001:00027910       ?panel_go_to_dir@Far@@YA_NPAXABV?$basic_string@_WU?$char_traits@_W@std@@V?$allocator@_W@2@@std@@@Z 10028910 f   farutils.obj
 0001:00027990       ?panel_go_to_file@Far@@YA_NPAXABV?$basic_string@_WU?$char_traits@_W@std@@V?$allocator@_W@2@@std@@@Z 10028990 f   farutils.obj
 0001:00027f20       ?open_help@Far@@YAXABV?$basic_string@_WU?$char_traits@_W@std@@V?$allocator@_W@2@@std@@@Z 10028f20 f   farutils.obj
 0001:00028150       ??1Settings@Far@@QAE@XZ    10029150 f   farutils.obj
 0001:000281b0       ?create@Settings@Far@@QAE_N_N@Z 100291b0 f   farutils.obj
 0001:00028270       ?set_dir@Settings@Far@@QAE_NABV?$basic_string@_WU?$char_traits@_W@std@@V?$allocator@_W@2@@std@@@Z 10029270 f   farutils.obj
 0001:00028340       ?list_dir@Settings@Far@@QAE_NAAV?$vector@V?$basic_string@_WU?$char_traits@_W@std@@V?$allocator@_W@2@@std@@V?$allocator@V?$basic_string@_WU?$char_traits@_W@std@@V?$allocator@_W@2@@std@@@2@@std@@@Z 10029340 f   farutils.obj
 0001:00028530       ?get@Settings@Far@@QAE_NIPB_WAA_K@Z 10029530 f   farutils.obj
 0001:000285a0       ??6?$basic_ostream@_WU?$char_traits@_W@std@@@std@@QAEAAV01@H@Z 100295a0 f i farutils.obj
 0001:00028740       ??1?$unique_ptr@$$BY0A@UPluginPanelItem@@U?$default_delete@$$BY0A@UPluginPanelItem@@@std@@@std@@QAE@XZ 10029740 f i plugin.obj
 0001:00028740       ??1?$unique_ptr@$$BY0A@EU?$default_delete@$$BY0A@E@std@@@std@@QAE@XZ 10029740 f i farutils.obj
 0001:00028750       ??1?$vector@UFarMenuItem@@V?$allocator@UFarMenuItem@@@std@@@std@@QAE@XZ 10029750 f i farutils.obj
 0001:000287b0       ??1?$vector@UDialogItem@Far@@V?$allocator@UDialogItem@Far@@@std@@@std@@QAE@XZ 100297b0 f i farutils.obj
 0001:00028810       ?reserve@?$vector@V?$basic_string@_WU?$char_traits@_W@std@@V?$allocator@_W@2@@std@@V?$allocator@V?$basic_string@_WU?$char_traits@_W@std@@V?$allocator@_W@2@@std@@@2@@std@@QAEXI@Z 10029810 f i farutils.obj
 0001:00028850       ?do_put@?$num_put@_WV?$ostreambuf_iterator@_WU?$char_traits@_W@std@@@std@@@std@@MBE?AV?$ostreambuf_iterator@_WU?$char_traits@_W@std@@@2@V32@AAVios_base@2@_WPBX@Z 10029850 f i farutils.obj
 0001:000288c0       ?do_put@?$num_put@_WV?$ostreambuf_iterator@_WU?$char_traits@_W@std@@@std@@@std@@MBE?AV?$ostreambuf_iterator@_WU?$char_traits@_W@std@@@2@V32@AAVios_base@2@_WO@Z 100298c0 f i farutils.obj
 0001:00028a70       ?do_put@?$num_put@_WV?$ostreambuf_iterator@_WU?$char_traits@_W@std@@@std@@@std@@MBE?AV?$ostreambuf_iterator@_WU?$char_traits@_W@std@@@2@V32@AAVios_base@2@_WN@Z 10029a70 f i farutils.obj
 0001:00028c20       ?do_put@?$num_put@_WV?$ostreambuf_iterator@_WU?$char_traits@_W@std@@@std@@@std@@MBE?AV?$ostreambuf_iterator@_WU?$char_traits@_W@std@@@2@V32@AAVios_base@2@_W_K@Z 10029c20 f i farutils.obj
 0001:00028cf0       ?do_put@?$num_put@_WV?$ostreambuf_iterator@_WU?$char_traits@_W@std@@@std@@@std@@MBE?AV?$ostreambuf_iterator@_WU?$char_traits@_W@std@@@2@V32@AAVios_base@2@_W_J@Z 10029cf0 f i farutils.obj
 0001:00028dc0       ?do_put@?$num_put@_WV?$ostreambuf_iterator@_WU?$char_traits@_W@std@@@std@@@std@@MBE?AV?$ostreambuf_iterator@_WU?$char_traits@_W@std@@@2@V32@AAVios_base@2@_WK@Z 10029dc0 f i farutils.obj
 0001:00028e80       ?do_put@?$num_put@_WV?$ostreambuf_iterator@_WU?$char_traits@_W@std@@@std@@@std@@MBE?AV?$ostreambuf_iterator@_WU?$char_traits@_W@std@@@2@V32@AAVios_base@2@_WJ@Z 10029e80 f i farutils.obj
 0001:00028f40       ?do_put@?$num_put@_WV?$ostreambuf_iterator@_WU?$char_traits@_W@std@@@std@@@std@@MBE?AV?$ostreambuf_iterator@_WU?$char_traits@_W@std@@@2@V32@AAVios_base@2@_W_N@Z 10029f40 f i farutils.obj
 0001:00029150       ?put@?$num_put@_WV?$ostreambuf_iterator@_WU?$char_traits@_W@std@@@std@@@std@@QBE?AV?$ostreambuf_iterator@_WU?$char_traits@_W@std@@@2@V32@AAVios_base@2@_WJ@Z 1002a150 f i farutils.obj
 0001:00029180       ?_Reallocate_exactly@?$vector@UFarMenuItem@@V?$allocator@UFarMenuItem@@@std@@@std@@AAEXI@Z 1002a180 f i farutils.obj
 0001:00029200       ?_Reallocate_exactly@?$vector@V?$basic_string@_WU?$char_traits@_W@std@@V?$allocator@_W@2@@std@@V?$allocator@V?$basic_string@_WU?$char_traits@_W@std@@V?$allocator@_W@2@@std@@@2@@std@@AAEXI@Z 1002a200 f i farutils.obj
 0001:00029250       ??_E?$num_put@_WV?$ostreambuf_iterator@_WU?$char_traits@_W@std@@@std@@@std@@MAEPAXI@Z 1002a250 f i * CIL library *:* CIL module *
 0001:00029250       ??_G?$num_put@_WV?$ostreambuf_iterator@_WU?$char_traits@_W@std@@@std@@@std@@MAEPAXI@Z 1002a250 f i farutils.obj
 0001:00029280       ?do_truename@?$numpunct@_W@std@@MBE?AV?$basic_string@_WU?$char_traits@_W@std@@V?$allocator@_W@2@@2@XZ 1002a280 f i farutils.obj
 0001:000292d0       ?do_falsename@?$numpunct@_W@std@@MBE?AV?$basic_string@_WU?$char_traits@_W@std@@V?$allocator@_W@2@@2@XZ 1002a2d0 f i farutils.obj
 0001:00029320       ?do_grouping@?$numpunct@_W@std@@MBE?AV?$basic_string@DU?$char_traits@D@std@@V?$allocator@D@2@@2@XZ 1002a320 f i farutils.obj
 0001:00029360       ?do_thousands_sep@?$numpunct@_W@std@@MBE_WXZ 1002a360 f i farutils.obj
 0001:00029370       ?do_decimal_point@?$numpunct@_W@std@@MBE_WXZ 1002a370 f i farutils.obj
 0001:00029380       ?_Rep@?$num_put@_WV?$ostreambuf_iterator@_WU?$char_traits@_W@std@@@std@@@std@@ABA?AV?$ostreambuf_iterator@_WU?$char_traits@_W@std@@@2@V32@_WI@Z 1002a380 f i farutils.obj
 0001:000293f0       ?_Put@?$num_put@_WV?$ostreambuf_iterator@_WU?$char_traits@_W@std@@@std@@@std@@ABA?AV?$ostreambuf_iterator@_WU?$char_traits@_W@std@@@2@V32@PB_WI@Z 1002a3f0 f i farutils.obj
 0001:00029470       ?_Iput@?$num_put@_WV?$ostreambuf_iterator@_WU?$char_traits@_W@std@@@std@@@std@@ABA?AV?$ostreambuf_iterator@_WU?$char_traits@_W@std@@@2@V32@AAVios_base@2@_WPADI@Z 1002a470 f i farutils.obj
 0001:000299a0       ?_Fput@?$num_put@_WV?$ostreambuf_iterator@_WU?$char_traits@_W@std@@@std@@@std@@ABA?AV?$ostreambuf_iterator@_WU?$char_traits@_W@std@@@2@V32@AAVios_base@2@_WPBDI@Z 1002a9a0 f i farutils.obj
 0001:00029f10       ?_Ffmt@?$num_put@_WV?$ostreambuf_iterator@_WU?$char_traits@_W@std@@@std@@@std@@ABAPADPADDH@Z 1002af10 f i farutils.obj
 0001:00029fd0       ?_Change_array@?$vector@UFarMenuItem@@V?$allocator@UFarMenuItem@@@std@@@std@@AAEXQAUFarMenuItem@@II@Z 1002afd0 f i farutils.obj
 0001:0002a030       ??_E?$numpunct@_W@std@@MAEPAXI@Z 1002b030 f i * CIL library *:* CIL module *
 0001:0002a030       ??_G?$numpunct@_W@std@@MAEPAXI@Z 1002b030 f i farutils.obj
 0001:0002a080       ??$?H_WU?$char_traits@_W@std@@V?$allocator@_W@1@@std@@YA?AV?$basic_string@_WU?$char_traits@_W@std@@V?$allocator@_W@2@@0@ABV10@_W@Z 1002b080 f i farutils.obj
 0001:0002a220       ??$?H_WU?$char_traits@_W@std@@V?$allocator@_W@1@@std@@YA?AV?$basic_string@_WU?$char_traits@_W@std@@V?$allocator@_W@2@@0@QB_WABV10@@Z 1002b220 f i farutils.obj
 0001:0002a2f0       ??$use_facet@V?$num_put@_WV?$ostreambuf_iterator@_WU?$char_traits@_W@std@@@std@@@std@@@std@@YAABV?$num_put@_WV?$ostreambuf_iterator@_WU?$char_traits@_W@std@@@std@@@0@ABVlocale@0@@Z 1002b2f0 f i farutils.obj
 0001:0002a440       ??$_Emplace_reallocate@ABUFarMenuItem@@@?$vector@UFarMenuItem@@V?$allocator@UFarMenuItem@@@std@@@std@@QAEPAUFarMenuItem@@QAU2@ABU2@@Z 1002b440 f i farutils.obj
 0001:0002a510       ??$_Emplace_reallocate@ABUDialogItem@Far@@@?$vector@UDialogItem@Far@@V?$allocator@UDialogItem@Far@@@std@@@std@@QAEPAUDialogItem@Far@@QAU23@ABU23@@Z 1002b510 f i farutils.obj
 0001:0002a6b0       ??$use_facet@V?$numpunct@_W@std@@@std@@YAABV?$numpunct@_W@0@ABVlocale@0@@Z 1002b6b0 f i farutils.obj
 0001:0002a960       ??1?$_Tidy_guard@V?$numpunct@_W@std@@@std@@QAE@XZ 1002b960 f i farutils.obj
 0001:0002a990       ??$_Maklocstr@D@std@@YAPADPBDPADABU_Cvtvec@@@Z 1002b990 f i farutils.obj
 0001:0002a9e0       ??$_Maklocstr@_W@std@@YAPA_WPBDPA_WABU_Cvtvec@@@Z 1002b9e0 f i farutils.obj
 0001:0002aab0       ??0?$basic_string@_WU?$char_traits@_W@std@@V?$allocator@_W@2@@std@@QAE@I_W@Z 1002bab0 f i farutils.obj
 0001:0002ab80       ?append@?$basic_string@DU?$char_traits@D@std@@V?$allocator@D@2@@std@@QAEAAV12@ID@Z 1002bb80 f i farutils.obj
 0001:0002acf0       ___local_stdio_printf_options 1002bcf0 f i farutils.obj
 0001:0002ad00       __vsprintf_s_l             1002bd00 f i farutils.obj
 0001:0002ad40       _sprintf_s                 1002bd40 f i farutils.obj
 0001:0002aed0       ?msearch@@YA?AV?$vector@UStrPos@@V?$allocator@UStrPos@@@std@@@std@@PAEIABV?$vector@USigData@@V?$allocator@USigData@@@std@@@2@_N@Z 1002bed0 f   msearch.obj
 0001:0002b5b0       ??1?$unique_ptr@VStateMatrix@@U?$default_delete@VStateMatrix@@@std@@@std@@QAE@XZ 1002c5b0 f i msearch.obj
 0001:0002b5d0       ??1?$_Tidy_guard@V?$vector@V?$vector@EV?$allocator@E@std@@@std@@V?$allocator@V?$vector@EV?$allocator@E@std@@@std@@@2@@std@@@std@@QAE@XZ 1002c5d0 f i msearch.obj
 0001:0002b5e0       ?_Reallocate_exactly@?$vector@USigData@@V?$allocator@USigData@@@std@@@std@@AAEXI@Z 1002c5e0 f i open.obj
 0001:0002b5e0       ?_Reallocate_exactly@?$vector@UStrPos@@V?$allocator@UStrPos@@@std@@@std@@AAEXI@Z 1002c5e0 f i msearch.obj
 0001:0002b680       ?_Xlen@?$vector@_NV?$allocator@_N@std@@@std@@QBEXXZ 1002c680 f i msearch.obj
 0001:0002b690       ?_Change_array@?$vector@UStrPos@@V?$allocator@UStrPos@@@std@@@std@@AAEXQAUStrPos@@II@Z 1002c690 f i msearch.obj
 0001:0002b690       ?_Change_array@?$vector@USigData@@V?$allocator@USigData@@@std@@@std@@AAEXQAUSigData@@II@Z 1002c690 f i open.obj
 0001:0002b6f0       ?allocate@?$allocator@USigData@@@std@@QAEPAUSigData@@I@Z 1002c6f0 f i open.obj
 0001:0002b6f0       ?allocate@?$allocator@UStrPos@@@std@@QAEPAUStrPos@@I@Z 1002c6f0 f i msearch.obj
 0001:0002b750       ??0?$vector@IV?$allocator@I@std@@@std@@QAE@IABIABV?$allocator@I@1@@Z 1002c750 f i msearch.obj
 0001:0002b7b0       ??$_Emplace_reallocate@UStrPos@@@?$vector@UStrPos@@V?$allocator@UStrPos@@@std@@@std@@QAEPAUStrPos@@QAU2@$$QAU2@@Z 1002c7b0 f i msearch.obj
 0001:0002b7b0       ??$_Emplace_reallocate@USigData@@@?$vector@USigData@@V?$allocator@USigData@@@std@@@std@@QAEPAUSigData@@QAU2@$$QAU2@@Z 1002c7b0 f i open.obj
 0001:0002b8c0       ??1?$_Tree_head_scoped_ptr@V?$allocator@U?$_Tree_node@U?$pair@$$CBV?$basic_string@_WU?$char_traits@_W@std@@V?$allocator@_W@2@@std@@V12@@std@@PAX@std@@@std@@V?$_Tree_val@U?$_Tree_simple_types@U?$pair@$$CBV?$basic_string@_WU?$char_traits@_W@std@@V?$allocator@_W@2@@std@@V12@@std@@@std@@@2@@std@@QAE@XZ 1002c8c0 f i msearch.obj
 0001:0002b8f0       ??$_Sort_unchecked@PAUStrPos@@U?$less@X@std@@@std@@YAXPAUStrPos@@0HU?$less@X@0@@Z 1002c8f0 f i msearch.obj
 0001:0002bb00       ??$_Partition_by_median_guess_unchecked@PAUStrPos@@U?$less@X@std@@@std@@YA?AU?$pair@PAUStrPos@@PAU1@@0@PAUStrPos@@0U?$less@X@0@@Z 1002cb00 f i msearch.obj
 0001:0002bd00       ??$_Guess_median_unchecked@PAUStrPos@@U?$less@X@std@@@std@@YAXPAUStrPos@@00U?$less@X@0@@Z 1002cd00 f i msearch.obj
 0001:0002bf60       ??$_Pop_heap_hole_by_index@PAUStrPos@@U1@U?$less@X@std@@@std@@YAXPAUStrPos@@HH$$QAU1@U?$less@X@0@@Z 1002cf60 f i msearch.obj
 0001:0002c010       ??4PropVariant@@QAEAAV0@PB_W@Z 1002d010 f i open.obj
 0001:0002c0a0       ??4PropVariant@@QAEAAV0@I@Z 1002d0a0 f i open.obj
 0001:0002c100       ??4PropVariant@@QAEAAV0@_K@Z 1002d100 f i open.obj
 0001:0002c160       ??4PropVariant@@QAEAAV0@ABU_FILETIME@@@Z 1002d160 f i open.obj
 0001:0002c1c0       ??0Archive@@QAE@XZ         1002d1c0 f i open.obj
 0001:0002c370       ??1?$enable_shared_from_this@VArchive@@@std@@IAE@XZ 1002d370 f i open.obj
 0001:0002c3a0       ??1?$set@V?$basic_string@_WU?$char_traits@_W@std@@V?$allocator@_W@2@@std@@U?$less@V?$basic_string@_WU?$char_traits@_W@std@@V?$allocator@_W@2@@std@@@2@V?$allocator@V?$basic_string@_WU?$char_traits@_W@std@@V?$allocator@_W@2@@std@@@2@@std@@QAE@XZ 1002d3a0 f i open.obj
 0001:0002c3a0       ??1?$set@V?$basic_string@_WU?$char_traits@_W@std@@V?$allocator@_W@2@@std@@UItemCompare@?1??show@MultiSelectDialog@@QAE_NXZ@V?$allocator@V?$basic_string@_WU?$char_traits@_W@std@@V?$allocator@_W@2@@std@@@2@@std@@QAE@XZ 1002d3a0 f i ui.obj
 0001:0002c3c0       ??1ArcChain@@QAE@XZ        1002d3c0 f i open.obj
 0001:0002c3d0       ??0OpenOptions@@QAE@XZ     1002d3d0 f   open.obj
 0001:0002c460       ?QueryInterface@ArchiveSubStream@@UAGJABU_GUID@@PAPAX@Z 1002d460 f i open.obj
 0001:0002c540       ?Read@ArchiveSubStream@@UAGJPAXIPAI@Z 1002d540 f i open.obj
 0001:0002c590       ?Seek@ArchiveSubStream@@UAGJ_JIPA_K@Z 1002d590 f i open.obj
 0001:0002c620       ??_GArchiveSubStream@@UAEPAXI@Z 1002d620 f i open.obj
 0001:0002c620       ??_EArchiveSubStream@@UAEPAXI@Z 1002d620 f i * CIL library *:* CIL module *
 0001:0002c690       ?check_device_file@ArchiveOpenStream@@AAEXXZ 1002d690 f i open.obj
 0001:0002c850       ??0ArchiveOpenStream@@QAE@ABV?$basic_string@_WU?$char_traits@_W@std@@V?$allocator@_W@2@@std@@@Z 1002d850 f i open.obj
 0001:0002c900       ?QueryInterface@ArchiveOpenStream@@UAGJABU_GUID@@PAPAX@Z 1002d900 f i open.obj
 0001:0002c9e0       ?Read@ArchiveOpenStream@@UAGJPAXIPAI@Z 1002d9e0 f i open.obj
 0001:0002cbf0       ?Seek@ArchiveOpenStream@@UAGJ_JIPA_K@Z 1002dbf0 f i open.obj
 0001:0002cda0       ?get_info@ArchiveOpenStream@@QAE?AUFindData@@XZ 1002dda0 f i open.obj
 0001:0002cee0       ??_EArchiveOpenStream@@UAEPAXI@Z 1002dee0 f i * CIL library *:* CIL module *
 0001:0002cee0       ??_GArchiveOpenStream@@UAEPAXI@Z 1002dee0 f i open.obj
 0001:0002cf10       ?do_update_ui@ArchiveOpener@@EAEXXZ 1002df10 f i open.obj
 0001:0002d470       ??0ArchiveOpener@@QAE@V?$shared_ptr@VArchive@@@std@@@Z 1002e470 f i open.obj
 0001:0002d680       ?QueryInterface@ArchiveOpener@@UAGJABU_GUID@@PAPAX@Z 1002e680 f i open.obj
 0001:0002d790       ?AddRef@SimpleUpdateStream@@UAGKXZ 1002e790 f i update.obj
 0001:0002d790       ?AddRef@ArchiveOpener@@UAGKXZ 1002e790 f i open.obj
 0001:0002d790       ?AddRef@SfxUpdateStream@@UAGKXZ 1002e790 f i update.obj
 0001:0002d790       ?AddRef@MultiVolumeUpdateStream@@UAGKXZ 1002e790 f i update.obj
 0001:0002d7b0       ?Release@ArchiveOpener@@UAGKXZ 1002e7b0 f i open.obj
 0001:0002d7e0       ?SetTotal@ArchiveOpener@@UAGJPB_K0@Z 1002e7e0 f i open.obj
 0001:0002d8d0       ?SetCompleted@ArchiveOpener@@UAGJPB_K0@Z 1002e8d0 f i open.obj
 0001:0002d9c0       ?GetProperty@ArchiveOpener@@UAGJKPAUtagPROPVARIANT@@@Z 1002e9c0 f i open.obj
 0001:0002db90       ?GetStream@ArchiveOpener@@UAGJPB_WPAPAUIInStream@@@Z 1002eb90 f i open.obj
 0001:0002dea0       ?CryptoGetTextPassword@ArchiveOpener@@UAGJPAPA_W@Z 1002eea0 f i open.obj
 0001:0002e0a0       ??_EArchiveOpener@@UAEPAXI@Z 1002f0a0 f i * CIL library *:* CIL module *
 0001:0002e0a0       ??_GArchiveOpener@@UAEPAXI@Z 1002f0a0 f i open.obj
 0001:0002e110       ?get_stream@Archive@@QAE_NIPAPAUIInStream@@@Z 1002f110 f   open.obj
 0001:0002e220       ?copy_prologue@Archive@@QAEJPAUIOutStream@@@Z 1002f220 f   open.obj
 0001:0002e340       ?open@Archive@@AAE_NPAUIInStream@@ABV?$vector@EV?$allocator@E@std@@@std@@@Z 1002f340 f   open.obj
 0001:0002e910       ?detect@Archive@@CA?AV?$list@UArcEntry@@V?$allocator@UArcEntry@@@std@@@std@@PAEI_NABV?$basic_string@_WU?$char_traits@_W@std@@V?$allocator@_W@2@@3@ABV?$list@V?$vector@EV?$allocator@E@std@@@std@@V?$allocator@V?$vector@EV?$allocator@E@std@@@std@@@2@@3@PAUIInStream@@@Z 1002f910 f   open.obj
 0001:0002f0b0       ??1?$set@V?$vector@EV?$allocator@E@std@@@std@@U?$less@V?$vector@EV?$allocator@E@std@@@std@@@2@V?$allocator@V?$vector@EV?$allocator@E@std@@@std@@@2@@std@@QAE@XZ 100300b0 f i open.obj
 0001:0002f0d0       ?get_physize@Archive@@AAE_KXZ 100300d0 f   open.obj
 0001:0002f1a0       ?open@Archive@@CAXABUOpenOptions@@AAV?$vector@V?$shared_ptr@VArchive@@@std@@V?$allocator@V?$shared_ptr@VArchive@@@std@@@2@@std@@@Z 100301a0 f   open.obj
 0001:0002fc60       ?open@Archive@@SA?AV?$unique_ptr@V?$vector@V?$shared_ptr@VArchive@@@std@@V?$allocator@V?$shared_ptr@VArchive@@@std@@@2@@std@@U?$default_delete@V?$vector@V?$shared_ptr@VArchive@@@std@@V?$allocator@V?$shared_ptr@VArchive@@@std@@@2@@std@@@2@@std@@ABUOpenOptions@@@Z 10030c60 f   open.obj
 0001:0002fd20       ?reopen@Archive@@QAEXXZ    10030d20 f   open.obj
 0001:00030040       ?close@Archive@@QAEXXZ     10031040 f   open.obj
 0001:000300a0       ??1?$unique_ptr@V?$vector@V?$shared_ptr@VArchive@@@std@@V?$allocator@V?$shared_ptr@VArchive@@@std@@@2@@std@@U?$default_delete@V?$vector@V?$shared_ptr@VArchive@@@std@@V?$allocator@V?$shared_ptr@VArchive@@@std@@@2@@std@@@2@@std@@QAE@XZ 100310a0 f i open.obj
 0001:000300b0       ??1?$ComObject@UIArchiveOpenCallback@@@@QAE@XZ 100310b0 f i open.obj
 0001:00030120       ??6?$basic_ostream@_WU?$char_traits@_W@std@@@std@@QAEAAV01@_K@Z 10031120 f i open.obj
 0001:000302b0       ??1?$vector@UArcFileInfo@@V?$allocator@UArcFileInfo@@@std@@@std@@QAE@XZ 100312b0 f i open.obj
 0001:00030310       ??0?$set@V?$basic_string@_WU?$char_traits@_W@std@@V?$allocator@_W@2@@std@@U?$less@V?$basic_string@_WU?$char_traits@_W@std@@V?$allocator@_W@2@@std@@@2@V?$allocator@V?$basic_string@_WU?$char_traits@_W@std@@V?$allocator@_W@2@@std@@@2@@std@@QAE@XZ 10031310 f i open.obj
 0001:00030350       ??4?$shared_ptr@VArchive@@@std@@QAEAAV01@ABV01@@Z 10031350 f i open.obj
 0001:000303c0       ??1?$list@UArcEntry@@V?$allocator@UArcEntry@@@std@@@std@@QAE@XZ 100313c0 f i open.obj
 0001:00030450       ??_G?$vector@V?$shared_ptr@VArchive@@@std@@V?$allocator@V?$shared_ptr@VArchive@@@std@@@2@@std@@QAEPAXI@Z 10031450 f i open.obj
 0001:000304c0       ?deallocate@?$allocator@USigData@@@std@@QAEXQAUSigData@@I@Z 100314c0 f i open.obj
 0001:00030500       ??$?8EV?$allocator@E@std@@@std@@YA_NABV?$vector@EV?$allocator@E@std@@@0@0@Z 10031500 f i open.obj
 0001:00030570       ??$insert@$0A@$0A@@?$_Tree@V?$_Tset_traits@V?$basic_string@_WU?$char_traits@_W@std@@V?$allocator@_W@2@@std@@U?$less@V?$basic_string@_WU?$char_traits@_W@std@@V?$allocator@_W@2@@std@@@2@V?$allocator@V?$basic_string@_WU?$char_traits@_W@std@@V?$allocator@_W@2@@std@@@2@$0A@@std@@@std@@QAE?AU?$pair@V?$_Tree_const_iterator@V?$_Tree_val@U?$_Tree_simple_types@V?$basic_string@_WU?$char_traits@_W@std@@V?$allocator@_W@2@@std@@@std@@@std@@@std@@_N@1@$$QAV?$basic_string@_WU?$char_traits@_W@std@@V?$allocator@_W@2@@1@@Z 10031570 f i open.obj
 0001:00030870       ??$insert@$0A@$0A@@?$_Tree@V?$_Tset_traits@V?$vector@EV?$allocator@E@std@@@std@@U?$less@V?$vector@EV?$allocator@E@std@@@std@@@2@V?$allocator@V?$vector@EV?$allocator@E@std@@@std@@@2@$0A@@std@@@std@@QAE?AU?$pair@V?$_Tree_const_iterator@V?$_Tree_val@U?$_Tree_simple_types@V?$vector@EV?$allocator@E@std@@@std@@@std@@@std@@@std@@_N@1@ABV?$vector@EV?$allocator@E@std@@@1@@Z 10031870 f i open.obj
 0001:00030df0       ??$?0VArchive@@$0A@@?$shared_ptr@VArchive@@@std@@QAE@PAVArchive@@@Z 10031df0 f i open.obj
 0001:00030f00       ??$_Move_unchecked@PAV?$shared_ptr@VArchive@@@std@@PAV12@@std@@YAPAV?$shared_ptr@VArchive@@@0@PAV10@00@Z 10031f00 f i open.obj
 0001:00030f90       ??$_Emplace_reallocate@ABV?$shared_ptr@VArchive@@@std@@@?$vector@V?$shared_ptr@VArchive@@@std@@V?$allocator@V?$shared_ptr@VArchive@@@std@@@2@@std@@QAEPAV?$shared_ptr@VArchive@@@1@QAV21@ABV21@@Z 10031f90 f i open.obj
 0001:00031100       ??$_Erase_tree_and_orphan@V?$allocator@U?$_Tree_node@V?$basic_string@_WU?$char_traits@_W@std@@V?$allocator@_W@2@@std@@PAX@std@@@std@@@?$_Tree_val@U?$_Tree_simple_types@V?$basic_string@_WU?$char_traits@_W@std@@V?$allocator@_W@2@@std@@@std@@@std@@QAEXAAV?$allocator@U?$_Tree_node@V?$basic_string@_WU?$char_traits@_W@std@@V?$allocator@_W@2@@std@@PAX@std@@@1@PAU?$_Tree_node@V?$basic_string@_WU?$char_traits@_W@std@@V?$allocator@_W@2@@std@@PAX@1@@Z 10032100 f i open.obj
 0001:00031100       ??$_Erase_tree@V?$allocator@U?$_Tree_node@V?$basic_string@_WU?$char_traits@_W@std@@V?$allocator@_W@2@@std@@PAX@std@@@std@@@?$_Tree_val@U?$_Tree_simple_types@V?$basic_string@_WU?$char_traits@_W@std@@V?$allocator@_W@2@@std@@@std@@@std@@QAEXAAV?$allocator@U?$_Tree_node@V?$basic_string@_WU?$char_traits@_W@std@@V?$allocator@_W@2@@std@@PAX@std@@@1@PAU?$_Tree_node@V?$basic_string@_WU?$char_traits@_W@std@@V?$allocator@_W@2@@std@@PAX@1@@Z 10032100 f i open.obj
 0001:000311a0       ??$_Freenode@V?$allocator@U?$_List_node@UArcEntry@@PAX@std@@@std@@@?$_List_node@UArcEntry@@PAX@std@@SAXAAV?$allocator@U?$_List_node@UArcEntry@@PAX@std@@@1@PAU01@@Z 100321a0 f i open.obj
 0001:00031200       ??$_Emplace@ABUArcEntry@@@?$list@UArcEntry@@V?$allocator@UArcEntry@@@std@@@std@@QAEPAU?$_List_node@UArcEntry@@PAX@1@QAU21@ABUArcEntry@@@Z 10032200 f i open.obj
 0001:000312a0       ??$_Emplace@UArcEntry@@@?$list@UArcEntry@@V?$allocator@UArcEntry@@@std@@@std@@QAEPAU?$_List_node@UArcEntry@@PAX@1@QAU21@$$QAUArcEntry@@@Z 100322a0 f i open.obj
 0001:00031370       ??$_Destroy_range@V?$allocator@V?$shared_ptr@VArchive@@@std@@@std@@@std@@YAXPAV?$shared_ptr@VArchive@@@0@QAV10@AAV?$allocator@V?$shared_ptr@VArchive@@@std@@@0@@Z 10032370 f i open.obj
 0001:000313d0       ?_Destroy@?$_Ref_count@VArchive@@@std@@EAEXXZ 100323d0 f i open.obj
 0001:000313f0       ??1?$_Temporary_owner@VArchive@@@std@@QAE@XZ 100323f0 f i open.obj
 0001:00031410       ??1Archive@@QAE@XZ         10032410 f i open.obj
 0001:00031730       ??$_Assign_cast@AAUArcEntry@@V?$_List_unchecked_iterator@V?$_List_val@U?$_List_simple_types@UArcEntry@@@std@@@std@@@std@@@?$list@UArcEntry@@V?$allocator@UArcEntry@@@std@@@std@@AAEXV?$_List_unchecked_iterator@V?$_List_val@U?$_List_simple_types@UArcEntry@@@std@@@std@@@1@V21@@Z 10032730 f i open.obj
 0001:00031920       ??$_Erase_tree@V?$allocator@U?$_Tree_node@V?$vector@EV?$allocator@E@std@@@std@@PAX@std@@@std@@@?$_Tree_val@U?$_Tree_simple_types@V?$vector@EV?$allocator@E@std@@@std@@@std@@@std@@QAEXAAV?$allocator@U?$_Tree_node@V?$vector@EV?$allocator@E@std@@@std@@PAX@std@@@1@PAU?$_Tree_node@V?$vector@EV?$allocator@E@std@@@std@@PAX@1@@Z 10032920 f i open.obj
 0001:000319c0       ??$_Copy_nodes@U_Copy_tag@?$_Tree@V?$_Tset_traits@V?$basic_string@_WU?$char_traits@_W@std@@V?$allocator@_W@2@@std@@U?$less@V?$basic_string@_WU?$char_traits@_W@std@@V?$allocator@_W@2@@std@@@2@V?$allocator@V?$basic_string@_WU?$char_traits@_W@std@@V?$allocator@_W@2@@std@@@2@$0A@@std@@@std@@@?$_Tree@V?$_Tset_traits@V?$basic_string@_WU?$char_traits@_W@std@@V?$allocator@_W@2@@std@@U?$less@V?$basic_string@_WU?$char_traits@_W@std@@V?$allocator@_W@2@@std@@@2@V?$allocator@V?$basic_string@_WU?$char_traits@_W@std@@V?$allocator@_W@2@@std@@@2@$0A@@std@@@std@@IAEPAU?$_Tree_node@V?$basic_string@_WU?$char_traits@_W@std@@V?$allocator@_W@2@@std@@PAX@1@PAU21@0U_Copy_tag@01@@Z 100329c0 f i open.obj
 0001:00031ab0       ??$_Uninitialized_move@PAV?$shared_ptr@VArchive@@@std@@V?$allocator@V?$shared_ptr@VArchive@@@std@@@2@@std@@YAPAV?$shared_ptr@VArchive@@@0@QAV10@0PAV10@AAV?$allocator@V?$shared_ptr@VArchive@@@std@@@0@@Z 10032ab0 f i open.obj
 0001:00031b10       ??1?$_List_node_insert_op@V?$allocator@U?$_List_node@UArcEntry@@PAX@std@@@std@@@std@@QAE@XZ 10032b10 f i open.obj
 0001:00031b90       ??1?$_Tree_temp_node_alloc@V?$allocator@U?$_Tree_node@V?$vector@EV?$allocator@E@std@@@std@@PAX@std@@@std@@@std@@QAE@XZ 10032b90 f i open.obj
 0001:00031b90       ??1?$_Alloc_construct_ptr@V?$allocator@U?$_Tree_node@V?$vector@EV?$allocator@E@std@@@std@@PAX@std@@@std@@@std@@QAE@XZ 10032b90 f i open.obj
 0001:00031b90       ??1?$_Alloc_construct_ptr@V?$allocator@U?$_List_node@UIconImage@@PAX@std@@@std@@@std@@QAE@XZ 10032b90 f i rsrc.obj
 0001:00031bb0       ??1?$_Alloc_construct_ptr@V?$allocator@U?$_List_node@UIdLang@@PAX@std@@@std@@@std@@QAE@XZ 10032bb0 f i rsrc.obj
 0001:00031bb0       ??1?$_Alloc_construct_ptr@V?$allocator@U?$_Tree_node@V?$basic_string@_WU?$char_traits@_W@std@@V?$allocator@_W@2@@std@@PAX@std@@@std@@@std@@QAE@XZ 10032bb0 f i open.obj
 0001:00031bb0       ??1?$_Tree_temp_node_alloc@V?$allocator@U?$_Tree_node@V?$basic_string@_WU?$char_traits@_W@std@@V?$allocator@_W@2@@std@@PAX@std@@@std@@@std@@QAE@XZ 10032bb0 f i open.obj
 0001:00031bd0       ??$_Lower_bound_duplicate@V?$basic_string@_WU?$char_traits@_W@std@@V?$allocator@_W@2@@std@@@?$_Tree@V?$_Tset_traits@V?$basic_string@_WU?$char_traits@_W@std@@V?$allocator@_W@2@@std@@U?$less@V?$basic_string@_WU?$char_traits@_W@std@@V?$allocator@_W@2@@std@@@2@V?$allocator@V?$basic_string@_WU?$char_traits@_W@std@@V?$allocator@_W@2@@std@@@2@$0A@@std@@@std@@IBE_NQAU?$_Tree_node@V?$basic_string@_WU?$char_traits@_W@std@@V?$allocator@_W@2@@std@@PAX@1@ABV?$basic_string@_WU?$char_traits@_W@std@@V?$allocator@_W@2@@1@@Z 10032bd0 f i open.obj
 0001:00031c25       ?AddRef@ArchiveOpener@@WM@AGKXZ 10032c25 f i open.obj
 0001:00031c25       ?AddRef@SfxUpdateStream@@WM@AGKXZ 10032c25 f i update.obj
 0001:00031c25       ?AddRef@MultiVolumeUpdateStream@@WM@AGKXZ 10032c25 f i update.obj
 0001:00031c25       ?AddRef@SimpleUpdateStream@@WM@AGKXZ 10032c25 f i update.obj
 0001:00031c2f       ??_EArchiveSubStream@@W3AEPAXI@Z 10032c2f f i open.obj
 0001:00031c37       ??_EArchiveOpener@@WM@AEPAXI@Z 10032c37 f i open.obj
 0001:00031c3f       ??_EArchiveOpenStream@@W3AEPAXI@Z 10032c3f f i open.obj
 0001:00031c47       ?QueryInterface@ArchiveSubStream@@W3AGJABU_GUID@@PAPAX@Z 10032c47 f i open.obj
 0001:00031c51       ?QueryInterface@ArchiveOpenStream@@W3AGJABU_GUID@@PAPAX@Z 10032c51 f i open.obj
 0001:00031c5b       ?Release@ArchiveOpener@@W3AGKXZ 10032c5b f i open.obj
 0001:00031c65       ?QueryInterface@ArchiveOpener@@W3AGJABU_GUID@@PAPAX@Z 10032c65 f i open.obj
 0001:00031c6f       ??_EArchiveOpener@@WBI@AEPAXI@Z 10032c6f f i open.obj
 0001:00031c77       ?Release@ArchiveOpener@@W7AGKXZ 10032c77 f i open.obj
 0001:00031c81       ?QueryInterface@ArchiveOpener@@W7AGJABU_GUID@@PAPAX@Z 10032c81 f i open.obj
 0001:00031c8b       ?AddRef@ArchiveOpener@@W3AGKXZ 10032c8b f i open.obj
 0001:00031c95       ?Release@ArchiveOpener@@WM@AGKXZ 10032c95 f i open.obj
 0001:00031c9f       ?QueryInterface@ArchiveOpener@@WM@AGJABU_GUID@@PAPAX@Z 10032c9f f i open.obj
 0001:00031ca9       ?AddRef@ArchiveOpener@@W7AGKXZ 10032ca9 f i open.obj
 0001:00031cc0       ?size@str_view@SimpleXML@@QBEIXZ 10032cc0 f i options.obj
 0001:00031cd0       ??_GIParseCallback@SimpleXML@@UAEPAXI@Z 10032cd0 f i options.obj
 0001:00031cd0       ??_EIParseCallback@SimpleXML@@UAEPAXI@Z 10032cd0 f i * CIL library *:* CIL module *
 0001:00031ed0       ?OnTag@xml_parser@@UBE?AW4cbRet@SimpleXML@@HPBVstr_view@3@ABV43@@Z 10032ed0 f i options.obj
 0001:00031fd0       ?OnBody@xml_parser@@UBE?AW4cbRet@SimpleXML@@HPBVstr_view@3@ABV43@@Z 10032fd0 f i options.obj
 0001:000321a0       ?OnAttr@xml_parser@@UBE?AW4cbRet@SimpleXML@@HPBVstr_view@3@ABV43@1@Z 100331a0 f i options.obj
 0001:00032470       ?parse@xml_parser@@QAE_NABV?$basic_string@_WU?$char_traits@_W@std@@V?$allocator@_W@2@@std@@@Z 10033470 f i options.obj
 0001:000325e0       ??_Exml_parser@@UAEPAXI@Z  100335e0 f i * CIL library *:* CIL module *
 0001:000325e0       ??_Gxml_parser@@UAEPAXI@Z  100335e0 f i options.obj
 0001:00032610       ??1xml_parser@@UAE@XZ      10033610 f i options.obj
 0001:00032630       ??1ExternalCodec@@QAE@XZ   10033630 f i options.obj
 0001:00032ae0       ?get_str@OptionsKey@@QAE?AV?$basic_string@_WU?$char_traits@_W@std@@V?$allocator@_W@2@@std@@PB_WABV23@@Z 10033ae0 f i options.obj
 0001:00032be0       ?set_int@OptionsKey@@QAEXPB_WII@Z 10033be0 f i options.obj
 0001:00032c60       ?set_bool@OptionsKey@@QAEXPB_W_N1@Z 10033c60 f i options.obj
 0001:00032ce0       ?set_str@OptionsKey@@QAEXPB_WABV?$basic_string@_WU?$char_traits@_W@std@@V?$allocator@_W@2@@std@@1@Z 10033ce0 f i options.obj
 0001:00032d90       ??1Options@@QAE@XZ         10033d90 f i options.obj
 0001:00033170       ??0Options@@QAE@XZ         10034170 f   options.obj
 0001:00033ca0       ?load@Options@@QAEXXZ      10034ca0 f   options.obj
 0001:00034950       ??1OptionsKey@@QAE@XZ      10035950 f i options.obj
 0001:000349b0       ?save@Options@@QBEXXZ      100359b0 f   options.obj
 0001:000350d0       ??0ProfileOptions@@QAE@XZ  100360d0 f   options.obj
 0001:00035180       ??0UpdateOptions@@QAE@XZ   10036180 f   options.obj
 0001:000351e0       ??0SfxOptions@@QAE@XZ      100361e0 f   options.obj
 0001:00035320       ?load@UpdateProfiles@@QAEXXZ 10036320 f   options.obj
 0001:00035f90       ??1UpdateProfile@@QAE@XZ   10036f90 f i options.obj
 0001:00035ff0       ?save@UpdateProfiles@@QBEXXZ 10036ff0 f   options.obj
 0001:000362b0       ?find_by_name@UpdateProfiles@@QAEIABV?$basic_string@_WU?$char_traits@_W@std@@V?$allocator@_W@2@@std@@@Z 100372b0 f   options.obj
 0001:00036460       ?find_by_options@UpdateProfiles@@QAEIABUUpdateOptions@@@Z 10037460 f   options.obj
 0001:000364b0       ??R<lambda_2>@?1??get_available_formats@SettingsDialog@@AAE?AV?$basic_string@_WU?$char_traits@_W@std@@V?$allocator@_W@2@@std@@XZ@QBE_NABV34@0@Z 100374b0 f   ui.obj
 0001:000364b0       ??RItemCompare@?1??show@MultiSelectDialog@@QAE_NXZ@QBE_NABV?$basic_string@_WU?$char_traits@_W@std@@V?$allocator@_W@2@@std@@0@Z 100374b0 f   ui.obj
 0001:000365f0       ?update@UpdateProfiles@@QAEXABV?$basic_string@_WU?$char_traits@_W@std@@V?$allocator@_W@2@@std@@ABUUpdateOptions@@@Z 100375f0 f   options.obj
 0001:000368e0       ??1?$vector@UExternalCodec@@V?$allocator@UExternalCodec@@@std@@@std@@QAE@XZ 100378e0 f i options.obj
 0001:00036960       ?erase@?$vector@UUpdateProfile@@V?$allocator@UUpdateProfile@@@std@@@std@@QAE?AV?$_Vector_iterator@V?$_Vector_val@U?$_Simple_types@UUpdateProfile@@@std@@@std@@@2@V?$_Vector_const_iterator@V?$_Vector_val@U?$_Simple_types@UUpdateProfile@@@std@@@std@@@2@@Z 10037960 f i options.obj
 0001:00036a90       ?push_back@?$vector@UUpdateProfile@@V?$allocator@UUpdateProfile@@@std@@@std@@QAEXABUUpdateProfile@@@Z 10037a90 f i options.obj
 0001:00036b20       ??1?$vector@UUpdateProfile@@V?$allocator@UUpdateProfile@@@std@@@std@@QAE@XZ 10037b20 f i options.obj
 0001:00036bb0       ??4?$vector@EV?$allocator@E@std@@@std@@QAEAAV01@$$QAV01@@Z 10037bb0 f i options.obj
 0001:00036c40       ?_Xrange@?$vector@UUpdateProfile@@V?$allocator@UUpdateProfile@@@std@@@std@@CAXXZ 10037c40 f i options.obj
 0001:00036c50       ?_Destroy@?$vector@UUpdateProfile@@V?$allocator@UUpdateProfile@@@std@@@std@@AAEXPAUUpdateProfile@@0@Z 10037c50 f i options.obj
 0001:00036c80       ?_Destroy@?$vector@UExternalCodec@@V?$allocator@UExternalCodec@@@std@@@std@@AAEXPAUExternalCodec@@0@Z 10037c80 f i options.obj
 0001:00036cb0       ?deallocate@?$allocator@UExternalCodec@@@std@@QAEXQAUExternalCodec@@I@Z 10037cb0 f i options.obj
 0001:00036cf0       ?deallocate@?$allocator@UUpdateProfile@@@std@@QAEXQAUUpdateProfile@@I@Z 10037cf0 f i options.obj
 0001:00036d30       ??$equal@PBDPBD@std@@YA_NQBD000@Z 10037d30 f i options.obj
 0001:00037090       ??$construct@UExternalCodec@@ABU1@@?$_Default_allocator_traits@V?$allocator@UExternalCodec@@@std@@@std@@SAXAAV?$allocator@UExternalCodec@@@1@QAUExternalCodec@@ABU3@@Z 10038090 f i options.obj
 0001:00037120       ??$_Emplace_reallocate@ABUExternalCodec@@@?$vector@UExternalCodec@@V?$allocator@UExternalCodec@@@std@@@std@@QAEPAUExternalCodec@@QAU2@ABU2@@Z 10038120 f i options.obj
 0001:00037320       ??$_Emplace_reallocate@ABUUpdateProfile@@@?$vector@UUpdateProfile@@V?$allocator@UUpdateProfile@@@std@@@std@@QAEPAUUpdateProfile@@QAU2@ABU2@@Z 10038320 f i options.obj
 0001:00037540       ??4UpdateProfile@@QAEAAU0@$$QAU0@@Z 10038540 f i options.obj
 0001:00037610       ??0ProfileOptions@@QAE@ABU0@@Z 10038610 f i options.obj
 0001:00037710       ??4SfxOptions@@QAEAAU0@$$QAU0@@Z 10038710 f i options.obj
 0001:00037810       ??0SfxOptions@@QAE@ABU0@@Z 10038810 f i options.obj
 0001:00037cf0       ??$_Uninitialized_move@PAUExternalCodec@@V?$allocator@UExternalCodec@@@std@@@std@@YAPAUExternalCodec@@QAU1@0PAU1@AAV?$allocator@UExternalCodec@@@0@@Z 10038cf0 f i options.obj
 0001:00037e10       ??$_Uninitialized_move@PAUUpdateProfile@@V?$allocator@UUpdateProfile@@@std@@@std@@YAPAUUpdateProfile@@QAU1@0PAU1@AAV?$allocator@UUpdateProfile@@@0@@Z 10038e10 f i options.obj
 0001:00039910       ??$iter_swap@PAUUpdateProfile@@PAU1@@std@@YAXPAUUpdateProfile@@0@Z 1003a910 f i options.obj
 0001:00039fe0       ?GetOEMCP@patched@@SGIXZ   1003afe0 f i Patch7zCP.obj
 0001:00039ff0       ?GetACP@patched@@SGIXZ     1003aff0 f i Patch7zCP.obj
 0001:0003a000       ?MultiByteToWideChar@patched@@SGHIKPBDHPA_WH@Z 1003b000 f i Patch7zCP.obj
 0001:0003a030       ?WideCharToMultiByte@patched@@SGHIKPB_WHPADHPBDPAH@Z 1003b030 f i Patch7zCP.obj
 0001:0003a260       ?SetCP@Patch7zCP@@SAXII@Z  1003b260 f   Patch7zCP.obj
 0001:0003a320       ?long_path@@YA?AV?$basic_string@_WU?$char_traits@_W@std@@V?$allocator@_W@2@@std@@ABV12@@Z 1003b320 f   pathutils.obj
 0001:0003a420       ?long_path_norm@@YA?AV?$basic_string@_WU?$char_traits@_W@std@@V?$allocator@_W@2@@std@@ABV12@@Z 1003b420 f   pathutils.obj
 0001:0003a4f0       ?add_trailing_slash@@YA?AV?$basic_string@_WU?$char_traits@_W@std@@V?$allocator@_W@2@@std@@ABV12@@Z 1003b4f0 f   pathutils.obj
 0001:0003a630       ?extract_file_name@@YA?AV?$basic_string@_WU?$char_traits@_W@std@@V?$allocator@_W@2@@std@@ABV12@@Z 1003b630 f   pathutils.obj
 0001:0003a790       ?extract_file_path@@YA?AV?$basic_string@_WU?$char_traits@_W@std@@V?$allocator@_W@2@@std@@ABV12@@Z 1003b790 f   pathutils.obj
 0001:0003a910       ?extract_file_ext@@YA?AV?$basic_string@_WU?$char_traits@_W@std@@V?$allocator@_W@2@@std@@ABV12@@Z 1003b910 f   pathutils.obj
 0001:0003aa00       ?is_root_path@@YA_NABV?$basic_string@_WU?$char_traits@_W@std@@V?$allocator@_W@2@@std@@@Z 1003ba00 f   pathutils.obj
 0001:0003aa50       ?is_absolute_path@@YA_NABV?$basic_string@_WU?$char_traits@_W@std@@V?$allocator@_W@2@@std@@@Z 1003ba50 f   pathutils.obj
 0001:0003ab40       ?remove_path_root@@YA?AV?$basic_string@_WU?$char_traits@_W@std@@V?$allocator@_W@2@@std@@ABV12@@Z 1003bb40 f   pathutils.obj
 0001:0003ac40       ?correct_filename@@YA?AV?$basic_string@_WU?$char_traits@_W@std@@V?$allocator@_W@2@@std@@ABV12@H_N@Z 1003bc40 f   pathutils.obj
 0001:0003b0a0       ?back@?$basic_string@_WU?$char_traits@_W@std@@V?$allocator@_W@2@@std@@QAEAA_WXZ 1003c0a0 f i pathutils.obj
 0001:0003b0c0       ??0Error@@QAE@ABV?$basic_string@_WU?$char_traits@_W@std@@V?$allocator@_W@2@@std@@0PBDH@Z 1003c0c0 f i plugin.obj
 0001:0003b1c0       ?Append@Error@@QAEXABU1@@Z 1003c1c0 f i plugin.obj
 0001:0003b210       ?updatable@Archive@@QBE_NXZ 1003c210 f i plugin.obj
 0001:0003b280       ??0Plugin@@QAE@_N@Z        1003c280 f i plugin.obj
 0001:0003b360       ?open@Plugin@@SAPAV1@ABV?$vector@V?$shared_ptr@VArchive@@@std@@V?$allocator@V?$shared_ptr@VArchive@@@std@@@2@@std@@_N@Z 1003c360 f i plugin.obj
 0001:0003b610       ?info@Plugin@@QAEXPAUOpenPanelInfo@@@Z 1003c610 f i plugin.obj
 0001:0003b9c0       ?set_dir@Plugin@@QAEXABV?$basic_string@_WU?$char_traits@_W@std@@V?$allocator@_W@2@@std@@@Z 1003c9c0 f i plugin.obj
 0001:0003bc90       ?get_separate_dir_path@Plugin@@SA?AV?$basic_string@_WU?$char_traits@_W@std@@V?$allocator@_W@2@@std@@ABV23@0@Z 1003cc90 f i plugin.obj
 0001:0003be80       ?extract@Plugin@@QAEXABVPluginPanelItemAccessor@1@AAV?$basic_string@_WU?$char_traits@_W@std@@V?$allocator@_W@2@@std@@_N_K@Z 1003ce80 f i plugin.obj
 0001:0003c6c0       ??R<lambda_1>@?1??extract@Plugin@@QAEXABVPluginPanelItemAccessor@2@AAV?$basic_string@_WU?$char_traits@_W@std@@V?$allocator@_W@2@@std@@_N_K@Z@QBEXXZ 1003d6c0 f i plugin.obj
 0001:0003c7f0       ?get@PluginPanelItems@?1??get_files@Plugin@@QAEXPBUPluginPanelItem@@HHPAPB_W_K@Z@UBEPBU4@I@Z 1003d7f0 f i plugin.obj
 0001:0003c800       ?length@pcharNode@@UBEHXZ  1003d800 f i libvcruntime:undname.obj
 0001:0003c800       ?size@PluginPanelItems@?1??get_files@Plugin@@QAEXPBUPluginPanelItem@@HHPAPB_W_K@Z@UBEIXZ 1003d800 f i plugin.obj
 0001:0003c800       ?raw_length@pcharNode@@UBEHXZ 1003d800 f i libvcruntime:undname.obj
 0001:0003c800       ?length@DNameStatusNode@@UBEHXZ 1003d800 f i libvcruntime:undname.obj
 0001:0003c800       ?raw_length@DNameStatusNode@@UBEHXZ 1003d800 f i libvcruntime:undname.obj
 0001:0003c810       ?get@PluginPanelItems@?1??extract@Plugin@@QAEXXZ@UBEPBUPluginPanelItem@@I@Z 1003d810 f i plugin.obj
 0001:0003c840       ?size@PluginPanelItems@?1??extract@Plugin@@QAEXXZ@UBEIXZ 1003d840 f i plugin.obj
 0001:0003c850       ?extract@Plugin@@SAXABV?$vector@V?$basic_string@_WU?$char_traits@_W@std@@V?$allocator@_W@2@@std@@V?$allocator@V?$basic_string@_WU?$char_traits@_W@std@@V?$allocator@_W@2@@std@@@2@@std@@UExtractOptions@@@Z 1003d850 f i plugin.obj
 0001:0003d490       ?bulk_extract@Plugin@@SAXABV?$vector@V?$basic_string@_WU?$char_traits@_W@std@@V?$allocator@_W@2@@std@@V?$allocator@V?$basic_string@_WU?$char_traits@_W@std@@V?$allocator@_W@2@@std@@@2@@std@@@Z 1003e490 f i plugin.obj
 0001:0003d830       ?cmdline_extract@Plugin@@SAXABUExtractCommand@@@Z 1003e830 f i plugin.obj
 0001:0003da80       ?delete_items@Plugin@@SAXABV?$basic_string@_WU?$char_traits@_W@std@@V?$allocator@_W@2@@std@@ABUExtractOptions@@ABV?$vector@V?$basic_string@_WU?$char_traits@_W@std@@V?$allocator@_W@2@@std@@V?$allocator@V?$basic_string@_WU?$char_traits@_W@std@@V?$allocator@_W@2@@std@@@2@@3@@Z 1003ea80 f i plugin.obj
 0001:0003df00       ?extract_items@Plugin@@SAXABV?$basic_string@_WU?$char_traits@_W@std@@V?$allocator@_W@2@@std@@ABUExtractOptions@@ABV?$vector@V?$basic_string@_WU?$char_traits@_W@std@@V?$allocator@_W@2@@std@@V?$allocator@V?$basic_string@_WU?$char_traits@_W@std@@V?$allocator@_W@2@@std@@@2@@3@@Z 1003ef00 f i plugin.obj
 0001:0003e600       ?cmdline_extract@Plugin@@SAXABUExtractItemsCommand@@@Z 1003f600 f i plugin.obj
 0001:0003e750       ?cmdline_delete@Plugin@@SAXABUExtractItemsCommand@@@Z 1003f750 f i plugin.obj
 0001:0003e850       ?test_files@Plugin@@QAEXPAUPluginPanelItem@@H_K@Z 1003f850 f i plugin.obj
 0001:0003ec90       ?bulk_test@Plugin@@SAXABV?$vector@V?$basic_string@_WU?$char_traits@_W@std@@V?$allocator@_W@2@@std@@V?$allocator@V?$basic_string@_WU?$char_traits@_W@std@@V?$allocator@_W@2@@std@@@2@@std@@@Z 1003fc90 f i plugin.obj
 0001:0003f8c0       ?cmdline_test@Plugin@@SAXABUTestCommand@@@Z 100408c0 f i plugin.obj
 0001:0003fa10       ?put_files@Plugin@@QAEXPBUPluginPanelItem@@HHPB_W_K@Z 10040a10 f i plugin.obj
 0001:00041070       ?create_archive@Plugin@@SAXXZ 10042070 f i plugin.obj
 0001:00041a80       ?cmdline_update@Plugin@@SAXABUUpdateCommand@@@Z 10042a80 f i plugin.obj
 0001:00042460       ?delete_files@Plugin@@QAEXPBUPluginPanelItem@@H_K@Z 10043460 f i plugin.obj
 0001:00042750       ?create_dir@Plugin@@QAEXPAPB_W_K@Z 10043750 f i plugin.obj
 0001:000429e0       ?show_attr@Plugin@@QAEXXZ  100439e0 f i plugin.obj
 0001:00042d90       ?close@Plugin@@QAEXXZ      10043d90 f i plugin.obj
 0001:00042e20       ??4ExtractOptions@@QAEAAU0@ABU0@@Z 10043e20 f i plugin.obj
 0001:00042ea0       ??_EPluginPanelItems@?1??get_files@Plugin@@QAEXPBUPluginPanelItem@@HHPAPB_W_K@Z@UAEPAXI@Z 10043ea0 f i * CIL library *:* CIL module *
 0001:00042ea0       ??_GPluginPanelItems@?1??get_files@Plugin@@QAEXPBUPluginPanelItem@@HHPAPB_W_K@Z@UAEPAXI@Z 10043ea0 f i plugin.obj
 0001:00042ec0       ??_GPluginPanelItems@?1??extract@Plugin@@QAEXXZ@UAEPAXI@Z 10043ec0 f i plugin.obj
 0001:00042ec0       ??_EPluginPanelItems@?1??extract@Plugin@@QAEXXZ@UAEPAXI@Z 10043ec0 f i * CIL library *:* CIL module *
 0001:00042ef0       ??1PluginPanelItems@?1??extract@Plugin@@QAEXXZ@UAE@XZ 10043ef0 f i plugin.obj
 0001:00042f00       _GetGlobalInfoW@4          10043f00 f   plugin.obj
 0001:00042f90       _SetStartupInfoW@4         10043f90 f   plugin.obj
 0001:00043030       _GetPluginInfoW@4          10044030 f   plugin.obj
 0001:000439a0       _AnalyseW@4                100449a0 f   plugin.obj
 0001:00043ab0       _CloseAnalyseW@4           10044ab0 f   plugin.obj
 0001:00043ad0       _OpenW@4                   10044ad0 f   plugin.obj
 0001:00045050       _ClosePanelW@4             10046050 f   plugin.obj
 0001:000450e0       ??1Plugin@@QAE@XZ          100460e0 f i plugin.obj
 0001:00045310       _GetOpenPanelInfoW@4       10046310 f   plugin.obj
 0001:00045440       _SetDirectoryW@4           10046440 f   plugin.obj
 0001:000455d0       _GetFindDataW@4            100465d0 f   plugin.obj
 0001:000457a0       _FreeFindDataW@4           100467a0 f   plugin.obj
 0001:000457f0       _GetFilesW@4               100467f0 f   plugin.obj
 0001:000459f0       _PutFilesW@4               100469f0 f   plugin.obj
 0001:00045b10       _DeleteFilesW@4            10046b10 f   plugin.obj
 0001:00045c20       _MakeDirectoryW@4          10046c20 f   plugin.obj
 0001:00045d30       _ProcessHostFileW@4        10046d30 f   plugin.obj
 0001:00046140       _ProcessPanelInputW@4      10047140 f   plugin.obj
 0001:00046380       _ConfigureW@4              10047380 f   plugin.obj
 0001:00046810       ??1PluginSettings@@QAE@XZ  10047810 f i plugin.obj
 0001:00046950       _ExitFARW@4                10047950 f   plugin.obj
 0001:00046970       ?count@?$_Tree@V?$_Tmap_traits@V?$vector@EV?$allocator@E@std@@@std@@UArcFormat@@U?$less@V?$vector@EV?$allocator@E@std@@@std@@@2@V?$allocator@U?$pair@$$CBV?$vector@EV?$allocator@E@std@@@std@@UArcFormat@@@std@@@2@$0A@@std@@@std@@QBEIABV?$vector@EV?$allocator@E@std@@@2@@Z 10047970 f i plugin.obj
 0001:000469b0       ??4?$list@V?$basic_string@_WU?$char_traits@_W@std@@V?$allocator@_W@2@@std@@V?$allocator@V?$basic_string@_WU?$char_traits@_W@std@@V?$allocator@_W@2@@std@@@2@@std@@QAEAAV01@V?$initializer_list@V?$basic_string@_WU?$char_traits@_W@std@@V?$allocator@_W@2@@std@@@1@@Z 100479b0 f i plugin.obj
 0001:00046ab0       ?_Reallocate_exactly@?$vector@UInfoPanelLine@@V?$allocator@UInfoPanelLine@@@std@@@std@@AAEXI@Z 10047ab0 f i plugin.obj
 0001:00046b30       ?_Change_array@?$vector@UInfoPanelLine@@V?$allocator@UInfoPanelLine@@@std@@@std@@AAEXQAUInfoPanelLine@@II@Z 10047b30 f i plugin.obj
 0001:00046b90       ?allocate@?$allocator@UInfoPanelLine@@@std@@QAEPAUInfoPanelLine@@I@Z 10047b90 f i plugin.obj
 0001:00046bf0       ??$for_each@V?$_Vector_const_iterator@V?$_Vector_val@U?$_Simple_types@I@std@@@std@@@std@@V<lambda_1>@?1??list@Plugin@@QAEXPAPAUPluginPanelItem@@PAI@Z@@std@@YA?AV<lambda_1>@?1??list@Plugin@@QAEXPAPAUPluginPanelItem@@PAI@Z@V?$_Vector_const_iterator@V?$_Vector_val@U?$_Simple_types@I@std@@@std@@@0@2V1?1??23@QAEX01@Z@@Z 10047bf0 f i plugin.obj
 0001:00046f40       ??$?0V?$list@UError@@V?$allocator@UError@@@std@@@std@@$0A@@?$shared_ptr@V?$list@UError@@V?$allocator@UError@@@std@@@std@@@std@@QAE@PAV?$list@UError@@V?$allocator@UError@@@std@@@1@@Z 10047f40 f i plugin.obj
 0001:00046fc0       ??$for_each@V?$_Vector_const_iterator@V?$_Vector_val@U?$_Simple_types@V?$basic_string@_WU?$char_traits@_W@std@@V?$allocator@_W@2@@std@@@std@@@std@@@std@@V<lambda_1>@?1??cmdline_test@Plugin@@SAXABUTestCommand@@@Z@@std@@YA?AV<lambda_1>@?1??cmdline_test@Plugin@@SAXABUTestCommand@@@Z@V?$_Vector_const_iterator@V?$_Vector_val@U?$_Simple_types@V?$basic_string@_WU?$char_traits@_W@std@@V?$allocator@_W@2@@std@@@std@@@std@@@0@1V1?1??23@SAX0@Z@@Z 10047fc0 f i plugin.obj
 0001:00046fc0       ??$for_each@V?$_Vector_const_iterator@V?$_Vector_val@U?$_Simple_types@V?$basic_string@_WU?$char_traits@_W@std@@V?$allocator@_W@2@@std@@@std@@@std@@@std@@V<lambda_1>@?1??cmdline_update@Plugin@@SAXABUUpdateCommand@@@Z@@std@@YA?AV<lambda_1>@?1??cmdline_update@Plugin@@SAXABUUpdateCommand@@@Z@V?$_Vector_const_iterator@V?$_Vector_val@U?$_Simple_types@V?$basic_string@_WU?$char_traits@_W@std@@V?$allocator@_W@2@@std@@@std@@@std@@@0@1V1?1??23@SAX0@Z@@Z 10047fc0 f i plugin.obj
 0001:00046fc0       ??$for_each@V?$_Vector_const_iterator@V?$_Vector_val@U?$_Simple_types@V?$basic_string@_WU?$char_traits@_W@std@@V?$allocator@_W@2@@std@@@std@@@std@@@std@@V<lambda_1>@?1??cmdline_extract@Plugin@@SAXABUExtractCommand@@@Z@@std@@YA?AV<lambda_1>@?1??cmdline_extract@Plugin@@SAXABUExtractCommand@@@Z@V?$_Vector_const_iterator@V?$_Vector_val@U?$_Simple_types@V?$basic_string@_WU?$char_traits@_W@std@@V?$allocator@_W@2@@std@@@std@@@std@@@0@1V1?1??23@SAX0@Z@@Z 10047fc0 f i plugin.obj
 0001:00047090       ??$for_each@V?$_Vector_const_iterator@V?$_Vector_val@U?$_Simple_types@V?$basic_string@_WU?$char_traits@_W@std@@V?$allocator@_W@2@@std@@@std@@@std@@@std@@V<lambda_2>@?1??cmdline_update@Plugin@@SAXABUUpdateCommand@@@Z@@std@@YA?AV<lambda_2>@?1??cmdline_update@Plugin@@SAXABUUpdateCommand@@@Z@V?$_Vector_const_iterator@V?$_Vector_val@U?$_Simple_types@V?$basic_string@_WU?$char_traits@_W@std@@V?$allocator@_W@2@@std@@@std@@@std@@@0@1V1?1??23@SAX0@Z@@Z 10048090 f i plugin.obj
 0001:000472c0       ??$for_each@V?$_Vector_iterator@V?$_Vector_val@U?$_Simple_types@V?$basic_string@_WU?$char_traits@_W@std@@V?$allocator@_W@2@@std@@@std@@@std@@@std@@V<lambda_3>@?1??cmdline_update@Plugin@@SAXABUUpdateCommand@@@Z@@std@@YA?AV<lambda_3>@?1??cmdline_update@Plugin@@SAXABUUpdateCommand@@@Z@V?$_Vector_iterator@V?$_Vector_val@U?$_Simple_types@V?$basic_string@_WU?$char_traits@_W@std@@V?$allocator@_W@2@@std@@@std@@@std@@@0@1V1?1??23@SAX0@Z@@Z 100482c0 f i plugin.obj
 0001:000476f0       ??$copy@V?$_List_const_iterator@V?$_List_val@U?$_List_simple_types@V?$basic_string@_WU?$char_traits@_W@std@@V?$allocator@_W@2@@std@@@std@@@std@@@std@@V?$insert_iterator@V?$set@V?$basic_string@_WU?$char_traits@_W@std@@V?$allocator@_W@2@@std@@U?$less@V?$basic_string@_WU?$char_traits@_W@std@@V?$allocator@_W@2@@std@@@2@V?$allocator@V?$basic_string@_WU?$char_traits@_W@std@@V?$allocator@_W@2@@std@@@2@@std@@@2@@std@@YA?AV?$insert_iterator@V?$set@V?$basic_string@_WU?$char_traits@_W@std@@V?$allocator@_W@2@@std@@U?$less@V?$basic_string@_WU?$char_traits@_W@std@@V?$allocator@_W@2@@std@@@2@V?$allocator@V?$basic_string@_WU?$char_traits@_W@std@@V?$allocator@_W@2@@std@@@2@@std@@@0@V?$_List_const_iterator@V?$_List_val@U?$_List_simple_types@V?$basic_string@_WU?$char_traits@_W@std@@V?$allocator@_W@2@@std@@@std@@@std@@@0@0V10@@Z 100486f0 f i plugin.obj
 0001:00047810       ??$_Emplace@ABUError@@@?$list@UError@@V?$allocator@UError@@@std@@@std@@QAEPAU?$_List_node@UError@@PAX@1@QAU21@ABUError@@@Z 10048810 f i plugin.obj
 0001:000478f0       ??$_Emplace_reallocate@ABUInfoPanelLine@@@?$vector@UInfoPanelLine@@V?$allocator@UInfoPanelLine@@@std@@@std@@QAEPAUInfoPanelLine@@QAU2@ABU2@@Z 100488f0 f i plugin.obj
 0001:000479d0       ?_Destroy@?$_Ref_count@V?$list@UError@@V?$allocator@UError@@@std@@@std@@@std@@EAEXXZ 100489d0 f i plugin.obj
 0001:000479f0       ??1?$_Temporary_owner@V?$list@UError@@V?$allocator@UError@@@std@@@std@@@std@@QAE@XZ 100489f0 f i plugin.obj
 0001:00047a10       ??1?$_Alloc_construct_ptr@V?$allocator@U?$_List_node@UError@@PAX@std@@@std@@@std@@QAE@XZ 10048a10 f i plugin.obj
 0001:00047a30       ??$_Sort_unchecked@PAIV<lambda_1>@?BC@??extract_items@Plugin@@SAXABV?$basic_string@_WU?$char_traits@_W@std@@V?$allocator@_W@2@@std@@ABUExtractOptions@@ABV?$vector@V?$basic_string@_WU?$char_traits@_W@std@@V?$allocator@_W@2@@std@@V?$allocator@V?$basic_string@_WU?$char_traits@_W@std@@V?$allocator@_W@2@@std@@@2@@5@@Z@@std@@YAXPAI0HV<lambda_1>@?BC@??extract_items@Plugin@@SAXABV?$basic_string@_WU?$char_traits@_W@std@@V?$allocator@_W@2@@0@ABUExtractOptions@@ABV?$vector@V?$basic_string@_WU?$char_traits@_W@std@@V?$allocator@_W@2@@std@@V?$allocator@V?$basic_string@_WU?$char_traits@_W@std@@V?$allocator@_W@2@@std@@@2@@0@@Z@@Z 10048a30 f i plugin.obj
 0001:00047be0       ??$_Assign_cast@AAUAttr@@V?$_List_unchecked_const_iterator@V?$_List_val@U?$_List_simple_types@UAttr@@@std@@@std@@U_Iterator_base0@2@@std@@@?$list@UAttr@@V?$allocator@UAttr@@@std@@@std@@AAEXV?$_List_unchecked_const_iterator@V?$_List_val@U?$_List_simple_types@UAttr@@@std@@@std@@U_Iterator_base0@2@@1@V21@@Z 10048be0 f i plugin.obj
 0001:00047d90       ??1?$_List_node_insert_op@V?$allocator@U?$_List_node@UAttr@@PAX@std@@@std@@@std@@QAE@XZ 10048d90 f i plugin.obj
 0001:00047e30       ??$_Partition_by_median_guess_unchecked@PAIV<lambda_1>@?BC@??extract_items@Plugin@@SAXABV?$basic_string@_WU?$char_traits@_W@std@@V?$allocator@_W@2@@std@@ABUExtractOptions@@ABV?$vector@V?$basic_string@_WU?$char_traits@_W@std@@V?$allocator@_W@2@@std@@V?$allocator@V?$basic_string@_WU?$char_traits@_W@std@@V?$allocator@_W@2@@std@@@2@@5@@Z@@std@@YA?AU?$pair@PAIPAI@0@PAI0V<lambda_1>@?BC@??extract_items@Plugin@@SAXABV?$basic_string@_WU?$char_traits@_W@std@@V?$allocator@_W@2@@0@ABUExtractOptions@@ABV?$vector@V?$basic_string@_WU?$char_traits@_W@std@@V?$allocator@_W@2@@std@@V?$allocator@V?$basic_string@_WU?$char_traits@_W@std@@V?$allocator@_W@2@@std@@@2@@0@@Z@@Z 10048e30 f i plugin.obj
 0001:00047f90       ??$_Find_hint@V?$basic_string@_WU?$char_traits@_W@std@@V?$allocator@_W@2@@std@@@?$_Tree@V?$_Tset_traits@V?$basic_string@_WU?$char_traits@_W@std@@V?$allocator@_W@2@@std@@U?$less@V?$basic_string@_WU?$char_traits@_W@std@@V?$allocator@_W@2@@std@@@2@V?$allocator@V?$basic_string@_WU?$char_traits@_W@std@@V?$allocator@_W@2@@std@@@2@$0A@@std@@@std@@IBE?AU?$_Tree_find_hint_result@PAU?$_Tree_node@V?$basic_string@_WU?$char_traits@_W@std@@V?$allocator@_W@2@@std@@PAX@std@@@1@QAU?$_Tree_node@V?$basic_string@_WU?$char_traits@_W@std@@V?$allocator@_W@2@@std@@PAX@1@ABV?$basic_string@_WU?$char_traits@_W@std@@V?$allocator@_W@2@@1@@Z 10048f90 f i plugin.obj
 0001:00048130       ??F?$_Tree_unchecked_const_iterator@V?$_Tree_val@U?$_Tree_simple_types@V?$basic_string@_WU?$char_traits@_W@std@@V?$allocator@_W@2@@std@@@std@@@std@@U_Iterator_base0@2@@std@@QAEAAV01@XZ 10049130 f i plugin.obj
 0001:000481c0       ??8type_info@@QBE_NABV0@@Z 100491c0 f i plugin.obj
 0001:000481e0       ??BRsrcId@@QBEPB_WXZ       100491e0 f i rsrc.obj
 0001:00048710       ??1IconImage@@QAE@XZ       10049710 f i rsrc.obj
 0001:00048a70       ??1IconRsrc@@QAE@XZ        10049a70 f i rsrc.obj
 0001:00048ad0       ??1IconImageRsrc@@QAE@XZ   10049ad0 f i rsrc.obj
 0001:00048b20       ??0IconRsrc@@QAE@$$QAU0@@Z 10049b20 f i rsrc.obj
 0001:00048df0       ??1RsrcModule@@QAE@XZ      10049df0 f i rsrc.obj
 0001:00048e10       ??0ResourceUpdate@@QAE@ABV?$basic_string@_WU?$char_traits@_W@std@@V?$allocator@_W@2@@std@@@Z 10049e10 f i rsrc.obj
 0001:00048e70       ??1ResourceUpdate@@QAE@XZ  10049e70 f i rsrc.obj
 0001:00048e80       ?update@ResourceUpdate@@QAEXPB_W0GPBEK@Z 10049e80 f i rsrc.obj
 0001:00048ee0       ?finalize@ResourceUpdate@@QAEXXZ 10049ee0 f i rsrc.obj
 0001:00048f40       ?replace_icon@@YAXABV?$basic_string@_WU?$char_traits@_W@std@@V?$allocator@_W@2@@std@@0@Z 10049f40 f   rsrc.obj
 0001:000498d0       ?encode_WORD@VersionEncoder@@QAEXG@Z 1004a8d0 f i rsrc.obj
 0001:000498f0       ?pad@VersionEncoder@@QAEXXZ 1004a8f0 f i rsrc.obj
 0001:00049920       ?replace_ver_info@@YAXABV?$basic_string@_WU?$char_traits@_W@std@@V?$allocator@_W@2@@std@@ABUSfxVersionInfo@@@Z 1004a920 f   rsrc.obj
 0001:0004a8e0       ??6?$basic_ostream@_WU?$char_traits@_W@std@@@std@@QAEAAV01@G@Z 1004b8e0 f i rsrc.obj
 0001:0004aa70       ??1?$list@UIdLang@@V?$allocator@UIdLang@@@std@@@std@@QAE@XZ 1004ba70 f i rsrc.obj
 0001:0004ab00       ??1?$list@UIconRsrc@@V?$allocator@UIconRsrc@@@std@@@std@@QAE@XZ 1004bb00 f i rsrc.obj
 0001:0004ab50       ??1?$list@VRsrcId@@V?$allocator@VRsrcId@@@std@@@std@@QAE@XZ 1004bb50 f i rsrc.obj
 0001:0004abe0       ?push_back@?$list@UIconImageRsrc@@V?$allocator@UIconImageRsrc@@@std@@@std@@QAEXABUIconImageRsrc@@@Z 1004bbe0 f i rsrc.obj
 0001:0004acb0       ??1?$list@UIconImageRsrc@@V?$allocator@UIconImageRsrc@@@std@@@std@@QAE@XZ 1004bcb0 f i rsrc.obj
 0001:0004ad40       ??1?$list@UIconImage@@V?$allocator@UIconImage@@@std@@@std@@QAE@XZ 1004bd40 f i rsrc.obj
 0001:0004add0       ?insert@?$vector@EV?$allocator@E@std@@@std@@QAE?AV?$_Vector_iterator@V?$_Vector_val@U?$_Simple_types@E@std@@@std@@@2@V?$_Vector_const_iterator@V?$_Vector_val@U?$_Simple_types@E@std@@@std@@@2@IABE@Z 1004bdd0 f i rsrc.obj
 0001:0004afa0       ?_Change_array@?$vector@EV?$allocator@E@std@@@std@@AAEXQAEII@Z 1004bfa0 f i rsrc.obj
 0001:0004b000       ?_Reallocate_exactly@?$vector@EV?$allocator@E@std@@@std@@AAEXI@Z 1004c000 f i rsrc.obj
 0001:0004b5a0       ??$_Emplace@ABUIconRsrc@@@?$list@UIconRsrc@@V?$allocator@UIconRsrc@@@std@@@std@@QAEPAU?$_List_node@UIconRsrc@@PAX@1@QAU21@ABUIconRsrc@@@Z 1004c5a0 f i rsrc.obj
 0001:0004b680       ??1?$_Alloc_construct_ptr@V?$allocator@U?$_List_node@VRsrcId@@PAX@std@@@std@@@std@@QAE@XZ 1004c680 f i rsrc.obj
 0001:0004b6a0       ??$_Insert_range@PBE@?$vector@EV?$allocator@E@std@@@std@@AAEXV?$_Vector_const_iterator@V?$_Vector_val@U?$_Simple_types@E@std@@@std@@@1@PBE1Uforward_iterator_tag@1@@Z 1004c6a0 f i rsrc.obj
 0001:0004b810       ??$_Construct_range_unchecked@V?$_List_unchecked_const_iterator@V?$_List_val@U?$_List_simple_types@UIconImageRsrc@@@std@@@std@@U_Iterator_base0@2@@std@@@?$list@UIconImageRsrc@@V?$allocator@UIconImageRsrc@@@std@@@std@@AAEXV?$_List_unchecked_const_iterator@V?$_List_val@U?$_List_simple_types@UIconImageRsrc@@@std@@@std@@U_Iterator_base0@2@@1@0@Z 1004c810 f i rsrc.obj
 0001:0004b9d0       ??1?$_List_node_insert_op@V?$allocator@U?$_List_node@UIconImageRsrc@@PAX@std@@@std@@@std@@QAE@XZ 1004c9d0 f i rsrc.obj
 0001:0004ba50       ??0DisableEvents@Dialog@Far@@QAE@AAV12@@Z 1004ca50 f i sfx.obj
 0001:0004ba80       ??1DisableEvents@Dialog@Far@@QAE@XZ 1004ca80 f i sfx.obj
 0001:0004bad0       ?def_button@Dialog@Far@@QAEIABV?$basic_string@_WU?$char_traits@_W@std@@V?$allocator@_W@2@@std@@_K@Z 1004cad0 f i sfx.obj
 0001:0004baf0       ?check_box@Dialog@Far@@QAEIABV?$basic_string@_WU?$char_traits@_W@std@@V?$allocator@_W@2@@std@@_N_K@Z 1004caf0 f i sfx.obj
 0001:0004bb10       ?check_box3@Dialog@Far@@QAEIABV?$basic_string@_WU?$char_traits@_W@std@@V?$allocator@_W@2@@std@@W4TriState@@_K@Z 1004cb10 f i sfx.obj
 0001:0004bb60       ?do_update_ui@AttachSfxModuleProgress@@EAEXXZ 1004cb60 f i sfx.obj
 0001:0004be00       ??_EAttachSfxModuleProgress@@UAEPAXI@Z 1004ce00 f i * CIL library *:* CIL module *
 0001:0004be00       ??_GAttachSfxModuleProgress@@UAEPAXI@Z 1004ce00 f i sfx.obj
 0001:0004be30       ??1AttachSfxModuleProgress@@UAE@XZ 1004ce30 f i sfx.obj
 0001:0004be30       ??1PrepareUpdate@@UAE@XZ   1004ce30 f i update.obj
 0001:0004c390       ?create_sfx_module@@YAXABV?$basic_string@_WU?$char_traits@_W@std@@V?$allocator@_W@2@@std@@ABUSfxOptions@@@Z 1004d390 f   sfx.obj
 0001:0004c6b0       ?attach_sfx_module@@YAXABV?$basic_string@_WU?$char_traits@_W@std@@V?$allocator@_W@2@@std@@ABUSfxOptions@@@Z 1004d6b0 f   sfx.obj
 0001:0004cd50       ?set_control_state@SfxOptionsDialog@@AAEXXZ 1004dd50 f i sfx.obj
 0001:0004cf00       ?read_controls@SfxOptionsDialog@@AAE?AUSfxOptions@@XZ 1004df00 f i sfx.obj
 0001:0004d490       ?write_controls@SfxOptionsDialog@@AAEXABUSfxOptions@@@Z 1004e490 f i sfx.obj
 0001:0004d7c0       ?dialog_proc@SfxOptionsDialog@@EAEHHHPAX@Z 1004e7c0 f i sfx.obj
 0001:0004da60       ??0SfxOptionsDialog@@QAE@AAUSfxOptions@@ABUUpdateProfiles@@@Z 1004ea60 f i sfx.obj
 0001:0004dcc0       ?show@SfxOptionsDialog@@QAE_NXZ 1004ecc0 f i sfx.obj
 0001:0004f650       ??_ESfxOptionsDialog@@UAEPAXI@Z 10050650 f i * CIL library *:* CIL module *
 0001:0004f650       ??_GSfxOptionsDialog@@UAEPAXI@Z 10050650 f i sfx.obj
 0001:0004f680       ??1SfxOptionsDialog@@UAE@XZ 10050680 f i sfx.obj
 0001:0004f6a0       ??1SfxProfile@@QAE@XZ      100506a0 f i sfx.obj
 0001:0004f700       ?sfx_options_dialog@@YA_NAAUSfxOptions@@ABUUpdateProfiles@@@Z 10050700 f   sfx.obj
 0001:0004f7d0       ??1?$vector@USfxProfile@@V?$allocator@USfxProfile@@@std@@@std@@QAE@XZ 100507d0 f i sfx.obj
 0001:0004f850       ?_Destroy@?$vector@USfxProfile@@V?$allocator@USfxProfile@@@std@@@std@@AAEXPAUSfxProfile@@0@Z 10050850 f i sfx.obj
 0001:0004f880       ?deallocate@?$allocator@USfxProfile@@@std@@QAEXQAUSfxProfile@@I@Z 10050880 f i sfx.obj
 0001:0004f8c0       ??$for_each@V?$_Vector_const_iterator@V?$_Vector_val@U?$_Simple_types@USfxModule@@@std@@@std@@@std@@V<lambda_1>@?1??show@SfxOptionsDialog@@QAE_NXZ@@std@@YA?AV<lambda_1>@?1??show@SfxOptionsDialog@@QAE_NXZ@V?$_Vector_const_iterator@V?$_Vector_val@U?$_Simple_types@USfxModule@@@std@@@std@@@0@0V1?1??23@QAE_NXZ@@Z 100508c0 f i sfx.obj
 0001:0004f9c0       ??$_Emplace_reallocate@ABUSfxProfile@@@?$vector@USfxProfile@@V?$allocator@USfxProfile@@@std@@@std@@QAEPAUSfxProfile@@QAU2@ABU2@@Z 100509c0 f i sfx.obj
 0001:0004fbe0       ??$_Uninitialized_move@PAUSfxProfile@@V?$allocator@USfxProfile@@@std@@@std@@YAPAUSfxProfile@@QAU1@0PAU1@AAV?$allocator@USfxProfile@@@0@@Z 10050be0 f i sfx.obj
 0001:0004fc70       ??0ParseException@SimpleXML@@QAE@W4parseRet@1@PBD@Z 10050c70 f i SimpleXML.obj
 0001:0004fc90       ?ensure_next@View@SimpleXML@@QAEXABVstr_view@2@@Z 10050c90 f i SimpleXML.obj
 0001:0004fd00       ?skip_name@View@SimpleXML@@QAEDH@Z 10050d00 f i SimpleXML.obj
 0001:0004fdb0       ?find_tag_end@View@SimpleXML@@QAEDXZ 10050db0 f i SimpleXML.obj
 0001:0004fe30       ?parse@SimpleXML@@YA?AW4parseRet@1@PBDIPBVIParseCallback@1@@Z 10050e30 f   SimpleXML.obj
 0001:000507c0       ?substr_match@@YA_NABV?$basic_string@_WU?$char_traits@_W@std@@V?$allocator@_W@2@@std@@IPB_W@Z 100517c0 f   strutils.obj
 0001:00050840       ?word_wrap@@YA?AV?$basic_string@_WU?$char_traits@_W@std@@V?$allocator@_W@2@@std@@ABV12@I@Z 10051840 f   strutils.obj
 0001:00050be0       ?strip@@YA?AV?$basic_string@_WU?$char_traits@_W@std@@V?$allocator@_W@2@@std@@ABV12@@Z 10051be0 f   strutils.obj
 0001:00050c90       ?int_to_str@@YA?AV?$basic_string@_WU?$char_traits@_W@std@@V?$allocator@_W@2@@std@@H@Z 10051c90 f   strutils.obj
 0001:00050d20       ?str_to_uint@@YA_KABV?$basic_string@_WU?$char_traits@_W@std@@V?$allocator@_W@2@@std@@@Z 10051d20 f   strutils.obj
 0001:00050dd0       ?uint_to_str@@YA?AV?$basic_string@_WU?$char_traits@_W@std@@V?$allocator@_W@2@@std@@_K@Z 10051dd0 f   strutils.obj
 0001:00050f00       ?split@@YA?AV?$list@V?$basic_string@_WU?$char_traits@_W@std@@V?$allocator@_W@2@@std@@V?$allocator@V?$basic_string@_WU?$char_traits@_W@std@@V?$allocator@_W@2@@std@@@2@@std@@ABV?$basic_string@_WU?$char_traits@_W@std@@V?$allocator@_W@2@@2@_W@Z 10051f00 f   strutils.obj
 0001:00051100       ?format_data_size@@YA?AV?$basic_string@_WU?$char_traits@_W@std@@V?$allocator@_W@2@@std@@_KQAPB_W@Z 10052100 f   strutils.obj
 0001:00051860       ?unquote@@YA?AV?$basic_string@_WU?$char_traits@_W@std@@V?$allocator@_W@2@@std@@ABV12@@Z 10052860 f   strutils.obj
 0001:000518c0       ?search_and_replace@@YA?AV?$basic_string@_WU?$char_traits@_W@std@@V?$allocator@_W@2@@std@@ABV12@00@Z 100528c0 f   strutils.obj
 0001:00051b60       ??0Error@@QAE@JABV?$basic_string@_WU?$char_traits@_W@std@@V?$allocator@_W@2@@std@@PBDH@Z 10052b60 f i sysutils.obj
 0001:00051c50       ??_GCriticalSection@@UAEPAXI@Z 10052c50 f i sysutils.obj
 0001:00051c50       ??_ECriticalSection@@UAEPAXI@Z 10052c50 f i * CIL library *:* CIL module *
 0001:00051c80       ?get_system_message@@YA?AV?$basic_string@_WU?$char_traits@_W@std@@V?$allocator@_W@2@@std@@JK@Z 10052c80 f   sysutils.obj
 0001:00051ff0       ?ansi_to_unicode@@YA?AV?$basic_string@_WU?$char_traits@_W@std@@V?$allocator@_W@2@@std@@ABV?$basic_string@DU?$char_traits@D@std@@V?$allocator@D@2@@2@I@Z 10052ff0 f   sysutils.obj
 0001:00052120       ?expand_env_vars@@YA?AV?$basic_string@_WU?$char_traits@_W@std@@V?$allocator@_W@2@@std@@ABV12@@Z 10053120 f   sysutils.obj
 0001:00052240       ??1File@@QAE@XZ            10053240 f   sysutils.obj
 0001:000522b0       ?open@File@@QAEXABV?$basic_string@_WU?$char_traits@_W@std@@V?$allocator@_W@2@@std@@KKKK@Z 100532b0 f   sysutils.obj
 0001:00052310       ?open_nt@File@@QAE_NABV?$basic_string@_WU?$char_traits@_W@std@@V?$allocator@_W@2@@std@@KKKK@Z 10053310 f   sysutils.obj
 0001:00052420       ?size@File@@QAE_KXZ        10053420 f   sysutils.obj
 0001:00052490       ?read@File@@QAEIPAXI@Z     10053490 f   sysutils.obj
 0001:00052500       ?read_nt@File@@QAE_NPAXIAAI@Z 10053500 f   sysutils.obj
 0001:00052540       ?write@File@@QAEIPBXI@Z    10053540 f   sysutils.obj
 0001:000525b0       ?set_pos@File@@QAE_K_JK@Z  100535b0 f   sysutils.obj
 0001:00052620       ?set_end@File@@QAEXXZ      10053620 f   sysutils.obj
 0001:00052680       ?exists@File@@SA_NABV?$basic_string@_WU?$char_traits@_W@std@@V?$allocator@_W@2@@std@@@Z 10053680 f   sysutils.obj
 0001:00052720       ?set_attr@File@@SAXABV?$basic_string@_WU?$char_traits@_W@std@@V?$allocator@_W@2@@std@@K@Z 10053720 f   sysutils.obj
 0001:00052860       ?set_attr_nt@File@@SA_NABV?$basic_string@_WU?$char_traits@_W@std@@V?$allocator@_W@2@@std@@K@Z 10053860 f   sysutils.obj
 0001:00052900       ?delete_file@File@@SAXABV?$basic_string@_WU?$char_traits@_W@std@@V?$allocator@_W@2@@std@@@Z 10053900 f   sysutils.obj
 0001:00052a40       ?delete_file_nt@File@@SA_NABV?$basic_string@_WU?$char_traits@_W@std@@V?$allocator@_W@2@@std@@@Z 10053a40 f   sysutils.obj
 0001:00052ae0       ?create_dir@File@@SAXABV?$basic_string@_WU?$char_traits@_W@std@@V?$allocator@_W@2@@std@@@Z 10053ae0 f   sysutils.obj
 0001:00052c20       ?create_dir_nt@File@@SA_NABV?$basic_string@_WU?$char_traits@_W@std@@V?$allocator@_W@2@@std@@@Z 10053c20 f   sysutils.obj
 0001:00052cc0       ?remove_dir@File@@SAXABV?$basic_string@_WU?$char_traits@_W@std@@V?$allocator@_W@2@@std@@@Z 10053cc0 f   sysutils.obj
 0001:00052e00       ?move_file@File@@SAXABV?$basic_string@_WU?$char_traits@_W@std@@V?$allocator@_W@2@@std@@0K@Z 10053e00 f   sysutils.obj
 0001:00053020       ?get_find_data@File@@SA?AUFindData@@ABV?$basic_string@_WU?$char_traits@_W@std@@V?$allocator@_W@2@@std@@@Z 10054020 f   sysutils.obj
 0001:00053080       ?get_find_data_nt@File@@SA_NABV?$basic_string@_WU?$char_traits@_W@std@@V?$allocator@_W@2@@std@@AAUFindData@@@Z 10054080 f   sysutils.obj
 0001:00053150       ??1Key@@QAE@XZ             10054150 f   sysutils.obj
 0001:00053170       ?query_str_nt@Key@@QAE_NAAV?$basic_string@_WU?$char_traits@_W@std@@V?$allocator@_W@2@@std@@PB_W@Z 10054170 f   sysutils.obj
 0001:00053270       ??1FileEnum@@QAE@XZ        10054270 f   sysutils.obj
 0001:00053320       ?next@FileEnum@@QAE_NXZ    10054320 f   sysutils.obj
 0001:000534d0       ?next_nt@FileEnum@@QAE_NAA_N@Z 100544d0 f   sysutils.obj
 0001:00053960       ??0DirList@@QAE@ABV?$basic_string@_WU?$char_traits@_W@std@@V?$allocator@_W@2@@std@@@Z 10054960 f   sysutils.obj
 0001:00053ae0       ??0TempFile@@QAE@XZ        10054ae0 f   sysutils.obj
 0001:00053d10       ??1TempFile@@QAE@XZ        10054d10 f   sysutils.obj
 0001:00053d80       ?format_file_time@@YA?AV?$basic_string@_WU?$char_traits@_W@std@@V?$allocator@_W@2@@std@@ABU_FILETIME@@@Z 10054d80 f   sysutils.obj
 0001:00053f60       ?upcase@@YA?AV?$basic_string@_WU?$char_traits@_W@std@@V?$allocator@_W@2@@std@@ABV12@@Z 10054f60 f   sysutils.obj
 0001:00054020       ??6?$basic_ostream@_WU?$char_traits@_W@std@@@std@@QAEAAV01@J@Z 10055020 f i sysutils.obj
 0001:000541c0       ?find_last_of@?$basic_string@_WU?$char_traits@_W@std@@V?$allocator@_W@2@@std@@QBEI_WI@Z 100551c0 f i sysutils.obj
 0001:00054210       ??1?$_Alloc_construct_ptr@V?$allocator@U?$_List_node@UFindData@@PAX@std@@@std@@@std@@QAE@XZ 10055210 f i sysutils.obj
 0001:00054230       ?do_update_ui@ArchiveTester@@EAEXXZ 10055230 f i test.obj
 0001:00054860       ??0ArchiveTester@@QAE@IV?$shared_ptr@VArchive@@@std@@@Z 10055860 f i test.obj
 0001:00054a30       ?SetTotal@ArchiveTester@@UAGJ_K@Z 10055a30 f i test.obj
 0001:00054b00       ?SetCompleted@ArchiveTester@@UAGJPB_K@Z 10055b00 f i test.obj
 0001:00054be0       ?GetStream@ArchiveTester@@UAGJIPAPAUISequentialOutStream@@H@Z 10055be0 f i test.obj
 0001:00054e40       ?SetOperationResult@ArchiveTester@@UAGJH@Z 10055e40 f i test.obj
 0001:00054fe0       ?CryptoGetTextPassword@ArchiveTester@@UAGJPAPA_W@Z 10055fe0 f i test.obj
 0001:00055180       ??_EArchiveTester@@UAEPAXI@Z 10056180 f i * CIL library *:* CIL module *
 0001:00055180       ??_GArchiveTester@@UAEPAXI@Z 10056180 f i test.obj
 0001:00055260       ?prepare_test@Archive@@AAEXIAAV?$list@IV?$allocator@I@std@@@std@@@Z 10056260 f   test.obj
 0001:000552e0       ?test@Archive@@QAEXIABV?$vector@IV?$allocator@I@std@@@std@@@Z 100562e0 f   test.obj
 0001:000556ab       ??_EArchiveTester@@W7AEPAXI@Z 100566ab f i test.obj
 0001:000556b3       ??_EArchiveTester@@WBA@AEPAXI@Z 100566b3 f i test.obj
 0001:000556c0       ?get_error_dlg_title@@YA?AV?$basic_string@_WU?$char_traits@_W@std@@V?$allocator@_W@2@@std@@XZ 100566c0 f   ui.obj
 0001:00055720       ??0ProgressMonitor@@QAE@ABV?$basic_string@_WU?$char_traits@_W@std@@V?$allocator@_W@2@@std@@_N1@Z 10056720 f   ui.obj
 0001:00055900       ??_EProgressMonitor@@UAEPAXI@Z 10056900 f i * CIL library *:* CIL module *
 0001:00055900       ??_GProgressMonitor@@UAEPAXI@Z 10056900 f i ui.obj
 0001:00055930       ??1ProgressMonitor@@UAE@XZ 10056930 f   ui.obj
 0001:00055ab0       ?display@ProgressMonitor@@AAEXXZ 10056ab0 f   ui.obj
 0001:000560a0       ?update_ui@ProgressMonitor@@QAEX_N@Z 100570a0 f   ui.obj
 0001:00056320       ?handle_esc@ProgressMonitor@@IAEXXZ 10057320 f   ui.obj
 0001:000568b0       ?dialog_proc@PasswordDialog@@EAEHHHPAX@Z 100578b0 f i ui.obj
 0001:00056930       ?show@PasswordDialog@@QAE_NXZ 10057930 f i ui.obj
 0001:00056c60       ??_EPasswordDialog@@UAEPAXI@Z 10057c60 f i * CIL library *:* CIL module *
 0001:00056c60       ??_GPasswordDialog@@UAEPAXI@Z 10057c60 f i ui.obj
 0001:00056c90       ??1OverwriteDialog@@UAE@XZ 10057c90 f i ui.obj
 0001:00056c90       ??1PasswordDialog@@UAE@XZ  10057c90 f i ui.obj
 0001:00056cf0       ?password_dialog@@YA_NAAV?$basic_string@_WU?$char_traits@_W@std@@V?$allocator@_W@2@@std@@ABV12@@Z 10057cf0 f   ui.obj
 0001:00056ec0       ?dialog_proc@OverwriteDialog@@EAEHHHPAX@Z 10057ec0 f i ui.obj
 0001:00056fb0       ?show@OverwriteDialog@@QAE_NXZ 10057fb0 f i ui.obj
 0001:00057aa0       ??_EOverwriteDialog@@UAEPAXI@Z 10058aa0 f i * CIL library *:* CIL module *
 0001:00057aa0       ??_GOverwriteDialog@@UAEPAXI@Z 10058aa0 f i ui.obj
 0001:00057ad0       ?overwrite_dialog@@YA_NABV?$basic_string@_WU?$char_traits@_W@std@@V?$allocator@_W@2@@std@@ABUOverwriteFileInfo@@1W4OverwriteDialogKind@@AAUOverwriteOptions@@@Z 10058ad0 f   ui.obj
 0001:00057d10       ?read_controls@ExtractDialog@@AAEXAAUExtractOptions@@@Z 10058d10 f i ui.obj
 0001:00058280       ?dialog_proc@ExtractDialog@@EAEHHHPAX@Z 10059280 f i ui.obj
 0001:00058440       ?show@ExtractDialog@@QAE_NXZ 10059440 f i ui.obj
 0001:00059150       ??_EExtractDialog@@UAEPAXI@Z 1005a150 f i * CIL library *:* CIL module *
 0001:00059150       ??_GExtractDialog@@UAEPAXI@Z 1005a150 f i ui.obj
 0001:00059180       ??1AttrDialog@@UAE@XZ      1005a180 f i ui.obj
 0001:00059180       ??1SettingsDialog@@UAE@XZ  1005a180 f i ui.obj
 0001:00059180       ??1ExtractDialog@@UAE@XZ   1005a180 f i ui.obj
 0001:00059190       ?extract_dialog@@YA_NAAUExtractOptions@@@Z 1005a190 f   ui.obj
 0001:00059310       ?retry_or_ignore_error@@YAXABUError@@AA_N1AAV?$list@UError@@V?$allocator@UError@@@std@@@std@@AAVProgressMonitor@@_N4@Z 1005a310 f   ui.obj
 0001:00059bd0       ?show_error_log@@YAXABV?$list@UError@@V?$allocator@UError@@@std@@@std@@@Z 1005abd0 f   ui.obj
 0001:0005ac70       ??8@YA_NABUSfxOptions@@0@Z 1005bc70 f   ui.obj
 0001:0005ae20       ??8@YA_NABUProfileOptions@@0@Z 1005be20 f   ui.obj
 0001:0005af70       ?get_default_ext@UpdateDialog@@ABE?AV?$basic_string@_WU?$char_traits@_W@std@@V?$allocator@_W@2@@std@@XZ 1005bf70 f i ui.obj
 0001:0005b1b0       ?change_extension@UpdateDialog@@AAE_NXZ 1005c1b0 f i ui.obj
 0001:0005b490       ?arc_levels@UpdateDialog@@AAE_ND@Z 1005c490 f i ui.obj
 0001:0005b860       ?update_level_list@UpdateDialog@@AAEXXZ 1005c860 f i ui.obj
 0001:0005bb60       ?set_control_state@UpdateDialog@@AAEXXZ 1005cb60 f i ui.obj
 0001:0005bf60       ?eval_arc_path@UpdateDialog@@AAE?AV?$basic_string@_WU?$char_traits@_W@std@@V?$allocator@_W@2@@std@@XZ 1005cf60 f i ui.obj
 0001:0005c5f0       ?read_controls@UpdateDialog@@AAEXAAUUpdateOptions@@@Z 1005d5f0 f i ui.obj
 0001:0005cf30       ?write_controls@UpdateDialog@@AAEXABUProfileOptions@@@Z 1005df30 f i ui.obj
 0001:0005d9f0       ?populate_profile_list@UpdateDialog@@AAEXXZ 1005e9f0 f i ui.obj
 0001:0005dbf0       ?dialog_proc@UpdateDialog@@EAEHHHPAX@Z 1005ebf0 f i ui.obj
 0001:0005e940       ?show@UpdateDialog@@QAE_NXZ 1005f940 f i ui.obj
 0001:000611c0       ??_GUpdateDialog@@UAEPAXI@Z 100621c0 f i ui.obj
 0001:000611c0       ??_EUpdateDialog@@UAEPAXI@Z 100621c0 f i * CIL library *:* CIL module *
 0001:000611f0       ??1UpdateDialog@@UAE@XZ    100621f0 f i ui.obj
 0001:00061310       ?update_dialog@@YA_N_N0AAUUpdateOptions@@AAUUpdateProfiles@@@Z 10062310 f   ui.obj
 0001:000614d0       ?estimate_column_widths@MultiSelectDialog@@AAE?AV?$vector@IV?$allocator@I@std@@@std@@ABV?$vector@V?$basic_string@_WU?$char_traits@_W@std@@V?$allocator@_W@2@@std@@V?$allocator@V?$basic_string@_WU?$char_traits@_W@std@@V?$allocator@_W@2@@std@@@2@@3@@Z 100624d0 f i ui.obj
 0001:00061860       ?dialog_proc@MultiSelectDialog@@EAEHHHPAX@Z 10062860 f i ui.obj
 0001:00061a40       ??0MultiSelectDialog@@QAE@ABV?$basic_string@_WU?$char_traits@_W@std@@V?$allocator@_W@2@@std@@0AAV12@@Z 10062a40 f i ui.obj
 0001:00061ad0       ?show@MultiSelectDialog@@QAE_NXZ 10062ad0 f i ui.obj
 0001:00061f30       ??_EMultiSelectDialog@@UAEPAXI@Z 10062f30 f i * CIL library *:* CIL module *
 0001:00061f30       ??_GMultiSelectDialog@@UAEPAXI@Z 10062f30 f i ui.obj
 0001:00061f60       ??1MultiSelectDialog@@UAE@XZ 10062f60 f i ui.obj
 0001:00061fd0       ?get_formats@FormatLibraryInfoDialog@@AAE?AV?$basic_string@_WU?$char_traits@_W@std@@V?$allocator@_W@2@@std@@I@Z 10062fd0 f i ui.obj
 0001:000621a0       ?dialog_proc@FormatLibraryInfoDialog@@EAEHHHPAX@Z 100631a0 f i ui.obj
 0001:00062600       ?show@FormatLibraryInfoDialog@@QAEXXZ 10063600 f i ui.obj
 0001:00063430       ??_GFormatLibraryInfoDialog@@UAEPAXI@Z 10064430 f i ui.obj
 0001:00063430       ??_EFormatLibraryInfoDialog@@UAEPAXI@Z 10064430 f i * CIL library *:* CIL module *
 0001:00063470       ??1FormatLibraryInfoDialog@@UAE@XZ 10064470 f i ui.obj
 0001:00063490       ?dialog_proc@SettingsDialog@@EAEHHHPAX@Z 10064490 f i ui.obj
 0001:00063fc0       ?get_available_formats@SettingsDialog@@AAE?AV?$basic_string@_WU?$char_traits@_W@std@@V?$allocator@_W@2@@std@@XZ 10064fc0 f i ui.obj
 0001:00064200       ?show@SettingsDialog@@QAE_NXZ 10065200 f i ui.obj
 0001:00065960       ??_GSettingsDialog@@UAEPAXI@Z 10066960 f i ui.obj
 0001:00065960       ??_ESettingsDialog@@UAEPAXI@Z 10066960 f i * CIL library *:* CIL module *
 0001:00065990       ?dialog_proc@AttrDialog@@EAEHHHPAX@Z 10066990 f i ui.obj
 0001:00065b50       ?show@AttrDialog@@QAEXXZ   10066b50 f i ui.obj
 0001:00065c80       ??_GAttrDialog@@UAEPAXI@Z  10066c80 f i ui.obj
 0001:00065c80       ??_EAttrDialog@@UAEPAXI@Z  10066c80 f i * CIL library *:* CIL module *
 0001:00065cb0       ??A?$map@HIU?$less@H@std@@V?$allocator@U?$pair@$$CBHI@std@@@2@@std@@QAEAAI$$QAH@Z 10066cb0 f i ui.obj
 0001:00065d70       ?find@?$_Tree@V?$_Tmap_traits@HIU?$less@H@std@@V?$allocator@U?$pair@$$CBHI@std@@@2@$0A@@std@@@std@@QAE?AV?$_Tree_iterator@V?$_Tree_val@U?$_Tree_simple_types@U?$pair@$$CBHI@std@@@std@@@std@@@2@ABH@Z 10066d70 f i ui.obj
 0001:00065dc0       ??1?$vector@UFarListItem@@V?$allocator@UFarListItem@@@std@@@std@@QAE@XZ 10066dc0 f i ui.obj
 0001:00065e20       ?reset@?$shared_ptr@VFileFilter@Far@@@std@@QAEXXZ 10066e20 f i ui.obj
 0001:00065e70       ??$?H_WU?$char_traits@_W@std@@V?$allocator@_W@1@@std@@YA?AV?$basic_string@_WU?$char_traits@_W@std@@V?$allocator@_W@2@@0@ABV10@0@Z 10066e70 f i ui.obj
 0001:00065f10       ??$?H_WU?$char_traits@_W@std@@V?$allocator@_W@1@@std@@YA?AV?$basic_string@_WU?$char_traits@_W@std@@V?$allocator@_W@2@@0@ABV10@$$QAV10@@Z 10066f10 f i ui.obj
 0001:00065f80       ??$insert@V?$_List_const_iterator@V?$_List_val@U?$_List_simple_types@V?$basic_string@_WU?$char_traits@_W@std@@V?$allocator@_W@2@@std@@@std@@@std@@@std@@@?$_Tree@V?$_Tset_traits@V?$basic_string@_WU?$char_traits@_W@std@@V?$allocator@_W@2@@std@@UItemCompare@?1??show@MultiSelectDialog@@QAE_NXZ@V?$allocator@V?$basic_string@_WU?$char_traits@_W@std@@V?$allocator@_W@2@@std@@@2@$0A@@std@@@std@@QAEXV?$_List_const_iterator@V?$_List_val@U?$_List_simple_types@V?$basic_string@_WU?$char_traits@_W@std@@V?$allocator@_W@2@@std@@@std@@@std@@@1@0@Z 10066f80 f i ui.obj
 0001:00066080       ??$for_each@V?$_List_const_iterator@V?$_List_val@U?$_List_simple_types@V?$basic_string@_WU?$char_traits@_W@std@@V?$allocator@_W@2@@std@@@std@@@std@@@std@@V<lambda_1>@?6??get_masks@FormatLibraryInfoDialog@@AAE?AV?$basic_string@_WU?$char_traits@_W@std@@V?$allocator@_W@2@@2@I@Z@@std@@YA?AV<lambda_1>@?6??get_masks@FormatLibraryInfoDialog@@AAE?AV?$basic_string@_WU?$char_traits@_W@std@@V?$allocator@_W@2@@0@I@Z@V?$_List_const_iterator@V?$_List_val@U?$_List_simple_types@V?$basic_string@_WU?$char_traits@_W@std@@V?$allocator@_W@2@@std@@@std@@@std@@@0@0V1?6??23@AAE?AV40@I@Z@@Z 10067080 f i ui.obj
 0001:00066080       ??$for_each@V?$_List_const_iterator@V?$_List_val@U?$_List_simple_types@V?$basic_string@_WU?$char_traits@_W@std@@V?$allocator@_W@2@@std@@@std@@@std@@@std@@V<lambda_1>@?1???R3?1??generate_masks@SettingsDialog@@AAEXXZ@QBE@ABU?$pair@$$CBV?$vector@EV?$allocator@E@std@@@std@@UArcFormat@@@2@@Z@@std@@YA?AV<lambda_1>@?1???R1?1??generate_masks@SettingsDialog@@AAEXXZ@QBE@ABU?$pair@$$CBV?$vector@EV?$allocator@E@std@@@std@@UArcFormat@@@0@@Z@V?$_List_const_iterator@V?$_List_val@U?$_List_simple_types@V?$basic_string@_WU?$char_traits@_W@std@@V?$allocator@_W@2@@std@@@std@@@std@@@0@1V1?1???R1?1??23@AAEXXZ@QBE@0@Z@@Z 10067080 f i ui.obj
 0001:000661f0       ??$_Find_lower_bound@V?$basic_string@_WU?$char_traits@_W@std@@V?$allocator@_W@2@@std@@@?$_Tree@V?$_Tset_traits@V?$basic_string@_WU?$char_traits@_W@std@@V?$allocator@_W@2@@std@@UItemCompare@?1??show@MultiSelectDialog@@QAE_NXZ@V?$allocator@V?$basic_string@_WU?$char_traits@_W@std@@V?$allocator@_W@2@@std@@@2@$0A@@std@@@std@@IBE?AU?$_Tree_find_result@PAU?$_Tree_node@V?$basic_string@_WU?$char_traits@_W@std@@V?$allocator@_W@2@@std@@PAX@std@@@1@ABV?$basic_string@_WU?$char_traits@_W@std@@V?$allocator@_W@2@@1@@Z 100671f0 f i ui.obj
 0001:00066470       ??$_Emplace_reallocate@ABUFarListItem@@@?$vector@UFarListItem@@V?$allocator@UFarListItem@@@std@@@std@@QAEPAUFarListItem@@QAU2@ABU2@@Z 10067470 f i ui.obj
 0001:00066610       ??$_Traits_find_last_of@U?$char_traits@_W@std@@@std@@YAIQB_WII0IU?$integral_constant@_N$00@0@@Z 10067610 f i ui.obj
 0001:00066770       ??$_Sort_unchecked@PAV?$vector@EV?$allocator@E@std@@@std@@V<lambda_2>@?4??show@UpdateDialog@@QAE_NXZ@@std@@YAXPAV?$vector@EV?$allocator@E@std@@@0@0HV<lambda_2>@?4??show@UpdateDialog@@QAE_NXZ@@Z 10067770 f i ui.obj
 0001:00066a30       ??$_Assign_range@V?$_List_unchecked_const_iterator@V?$_List_val@U?$_List_simple_types@V?$basic_string@_WU?$char_traits@_W@std@@V?$allocator@_W@2@@std@@@std@@@std@@U_Iterator_base0@2@@std@@@?$vector@V?$basic_string@_WU?$char_traits@_W@std@@V?$allocator@_W@2@@std@@V?$allocator@V?$basic_string@_WU?$char_traits@_W@std@@V?$allocator@_W@2@@std@@@2@@std@@AAEXV?$_List_unchecked_const_iterator@V?$_List_val@U?$_List_simple_types@V?$basic_string@_WU?$char_traits@_W@std@@V?$allocator@_W@2@@std@@@std@@@std@@U_Iterator_base0@2@@1@0Uforward_iterator_tag@1@@Z 10067a30 f i ui.obj
 0001:00066c10       ??$_Sort_unchecked@PAV?$basic_string@_WU?$char_traits@_W@std@@V?$allocator@_W@2@@std@@UItemCompare@?1??show@MultiSelectDialog@@QAE_NXZ@@std@@YAXPAV?$basic_string@_WU?$char_traits@_W@std@@V?$allocator@_W@2@@0@0HUItemCompare@?1??show@MultiSelectDialog@@QAE_NXZ@@Z 10067c10 f i ui.obj
 0001:00066ed0       ??$_Sort_unchecked@PAV?$basic_string@_WU?$char_traits@_W@std@@V?$allocator@_W@2@@std@@V<lambda_2>@?1??get_available_formats@SettingsDialog@@AAE?AV12@XZ@@std@@YAXPAV?$basic_string@_WU?$char_traits@_W@std@@V?$allocator@_W@2@@0@0HV<lambda_2>@?1??get_available_formats@SettingsDialog@@AAE?AV10@XZ@@Z 10067ed0 f i ui.obj
 0001:00067190       ??$_Find_lower_bound@H@?$_Tree@V?$_Tmap_traits@HIU?$less@H@std@@V?$allocator@U?$pair@$$CBHI@std@@@2@$0A@@std@@@std@@IBE?AU?$_Tree_find_result@PAU?$_Tree_node@U?$pair@$$CBHI@std@@PAX@std@@@1@ABH@Z 10068190 f i ui.obj
 0001:000671e0       ?_Destroy@?$_Ref_count@VFileFilter@Far@@@std@@EAEXXZ 100681e0 f i ui.obj
 0001:00067250       ??1?$_Temporary_owner@VFileFilter@Far@@@std@@QAE@XZ 10068250 f i ui.obj
 0001:000672c0       ??$_Partition_by_median_guess_unchecked@PAV?$vector@EV?$allocator@E@std@@@std@@V<lambda_2>@?4??show@UpdateDialog@@QAE_NXZ@@std@@YA?AU?$pair@PAV?$vector@EV?$allocator@E@std@@@std@@PAV12@@0@PAV?$vector@EV?$allocator@E@std@@@0@0V<lambda_2>@?4??show@UpdateDialog@@QAE_NXZ@@Z 100682c0 f i ui.obj
 0001:00067ad0       ??$?RV?$vector@EV?$allocator@E@std@@@std@@V01@@<lambda_2>@?4??show@UpdateDialog@@QAE_NXZ@QBE_NABV?$vector@EV?$allocator@E@std@@@std@@0@Z 10068ad0 f i ui.obj
 0001:00067b80       ??$_Insertion_sort_unchecked@PAV?$vector@EV?$allocator@E@std@@@std@@V<lambda_2>@?4??show@UpdateDialog@@QAE_NXZ@@std@@YAPAV?$vector@EV?$allocator@E@std@@@0@PAV10@QAV10@V<lambda_2>@?4??show@UpdateDialog@@QAE_NXZ@@Z 10068b80 f i ui.obj
 0001:00067f70       ??$_Find_hint@V?$basic_string@_WU?$char_traits@_W@std@@V?$allocator@_W@2@@std@@@?$_Tree@V?$_Tset_traits@V?$basic_string@_WU?$char_traits@_W@std@@V?$allocator@_W@2@@std@@UItemCompare@?1??show@MultiSelectDialog@@QAE_NXZ@V?$allocator@V?$basic_string@_WU?$char_traits@_W@std@@V?$allocator@_W@2@@std@@@2@$0A@@std@@@std@@IBE?AU?$_Tree_find_hint_result@PAU?$_Tree_node@V?$basic_string@_WU?$char_traits@_W@std@@V?$allocator@_W@2@@std@@PAX@std@@@1@QAU?$_Tree_node@V?$basic_string@_WU?$char_traits@_W@std@@V?$allocator@_W@2@@std@@PAX@1@ABV?$basic_string@_WU?$char_traits@_W@std@@V?$allocator@_W@2@@1@@Z 10068f70 f i ui.obj
 0001:00068120       ??$_Copy_unchecked@V?$_List_unchecked_const_iterator@V?$_List_val@U?$_List_simple_types@V?$basic_string@_WU?$char_traits@_W@std@@V?$allocator@_W@2@@std@@@std@@@std@@U_Iterator_base0@2@@std@@PAV?$basic_string@_WU?$char_traits@_W@std@@V?$allocator@_W@2@@2@@std@@YAPAV?$basic_string@_WU?$char_traits@_W@std@@V?$allocator@_W@2@@0@V?$_List_unchecked_const_iterator@V?$_List_val@U?$_List_simple_types@V?$basic_string@_WU?$char_traits@_W@std@@V?$allocator@_W@2@@std@@@std@@@std@@U_Iterator_base0@2@@0@0PAV10@@Z 10069120 f i ui.obj
 0001:00068170       ??$_Partition_by_median_guess_unchecked@PAV?$basic_string@_WU?$char_traits@_W@std@@V?$allocator@_W@2@@std@@UItemCompare@?1??show@MultiSelectDialog@@QAE_NXZ@@std@@YA?AU?$pair@PAV?$basic_string@_WU?$char_traits@_W@std@@V?$allocator@_W@2@@std@@PAV12@@0@PAV?$basic_string@_WU?$char_traits@_W@std@@V?$allocator@_W@2@@0@0UItemCompare@?1??show@MultiSelectDialog@@QAE_NXZ@@Z 10069170 f i ui.obj
 0001:000695e0       ??$_Insertion_sort_unchecked@PAV?$basic_string@_WU?$char_traits@_W@std@@V?$allocator@_W@2@@std@@V<lambda_2>@?1??get_available_formats@SettingsDialog@@AAE?AV12@XZ@@std@@YAPAV?$basic_string@_WU?$char_traits@_W@std@@V?$allocator@_W@2@@0@PAV10@QAV10@V<lambda_2>@?1??get_available_formats@SettingsDialog@@AAE?AV10@XZ@@Z 1006a5e0 f i ui.obj
 0001:000695e0       ??$_Insertion_sort_unchecked@PAV?$basic_string@_WU?$char_traits@_W@std@@V?$allocator@_W@2@@std@@UItemCompare@?1??show@MultiSelectDialog@@QAE_NXZ@@std@@YAPAV?$basic_string@_WU?$char_traits@_W@std@@V?$allocator@_W@2@@0@PAV10@QAV10@UItemCompare@?1??show@MultiSelectDialog@@QAE_NXZ@@Z 1006a5e0 f i ui.obj
 0001:00069c10       ??$_Partition_by_median_guess_unchecked@PAV?$basic_string@_WU?$char_traits@_W@std@@V?$allocator@_W@2@@std@@V<lambda_2>@?1??get_available_formats@SettingsDialog@@AAE?AV12@XZ@@std@@YA?AU?$pair@PAV?$basic_string@_WU?$char_traits@_W@std@@V?$allocator@_W@2@@std@@PAV12@@0@PAV?$basic_string@_WU?$char_traits@_W@std@@V?$allocator@_W@2@@0@0V<lambda_2>@?1??get_available_formats@SettingsDialog@@AAE?AV20@XZ@@Z 1006ac10 f i ui.obj
 0001:0006b080       ??$_Pop_heap_hole_by_index@PAV?$vector@EV?$allocator@E@std@@@std@@V12@V<lambda_2>@?4??show@UpdateDialog@@QAE_NXZ@@std@@YAXPAV?$vector@EV?$allocator@E@std@@@0@HH$$QAV10@V<lambda_2>@?4??show@UpdateDialog@@QAE_NXZ@@Z 1006c080 f i ui.obj
 0001:0006b250       ??$_Pop_heap_hole_by_index@PAV?$basic_string@_WU?$char_traits@_W@std@@V?$allocator@_W@2@@std@@V12@UItemCompare@?1??show@MultiSelectDialog@@QAE_NXZ@@std@@YAXPAV?$basic_string@_WU?$char_traits@_W@std@@V?$allocator@_W@2@@0@HH$$QAV10@UItemCompare@?1??show@MultiSelectDialog@@QAE_NXZ@@Z 1006c250 f i ui.obj
 0001:0006b250       ??$_Pop_heap_hole_by_index@PAV?$basic_string@_WU?$char_traits@_W@std@@V?$allocator@_W@2@@std@@V12@V<lambda_2>@?1??get_available_formats@SettingsDialog@@AAE?AV12@XZ@@std@@YAXPAV?$basic_string@_WU?$char_traits@_W@std@@V?$allocator@_W@2@@0@HH$$QAV10@V<lambda_2>@?1??get_available_formats@SettingsDialog@@AAE?AV10@XZ@@Z 1006c250 f i ui.obj
 0001:0006b5a0       ??$_Move_backward_unchecked@PAV?$basic_string@_WU?$char_traits@_W@std@@V?$allocator@_W@2@@std@@PAV12@@std@@YAPAV?$basic_string@_WU?$char_traits@_W@std@@V?$allocator@_W@2@@0@PAV10@00@Z 1006c5a0 f i ui.obj
 0001:0006b660       ??$_Med3_unchecked@PAV?$vector@EV?$allocator@E@std@@@std@@V<lambda_2>@?4??show@UpdateDialog@@QAE_NXZ@@std@@YAXPAV?$vector@EV?$allocator@E@std@@@0@00V<lambda_2>@?4??show@UpdateDialog@@QAE_NXZ@@Z 1006c660 f i ui.obj
 0001:0006b710       ??$_Push_heap_by_index@PAV?$vector@EV?$allocator@E@std@@@std@@V12@V<lambda_2>@?4??show@UpdateDialog@@QAE_NXZ@@std@@YAXPAV?$vector@EV?$allocator@E@std@@@0@HH$$QAV10@V<lambda_2>@?4??show@UpdateDialog@@QAE_NXZ@@Z 1006c710 f i ui.obj
 0001:0006b890       ??$_Med3_unchecked@PAV?$basic_string@_WU?$char_traits@_W@std@@V?$allocator@_W@2@@std@@UItemCompare@?1??show@MultiSelectDialog@@QAE_NXZ@@std@@YAXPAV?$basic_string@_WU?$char_traits@_W@std@@V?$allocator@_W@2@@0@00UItemCompare@?1??show@MultiSelectDialog@@QAE_NXZ@@Z 1006c890 f i ui.obj
 0001:0006b890       ??$_Med3_unchecked@PAV?$basic_string@_WU?$char_traits@_W@std@@V?$allocator@_W@2@@std@@V<lambda_2>@?1??get_available_formats@SettingsDialog@@AAE?AV12@XZ@@std@@YAXPAV?$basic_string@_WU?$char_traits@_W@std@@V?$allocator@_W@2@@0@00V<lambda_2>@?1??get_available_formats@SettingsDialog@@AAE?AV10@XZ@@Z 1006c890 f i ui.obj
 0001:0006ba20       ??$_Push_heap_by_index@PAV?$basic_string@_WU?$char_traits@_W@std@@V?$allocator@_W@2@@std@@V12@V<lambda_2>@?1??get_available_formats@SettingsDialog@@AAE?AV12@XZ@@std@@YAXPAV?$basic_string@_WU?$char_traits@_W@std@@V?$allocator@_W@2@@0@HH$$QAV10@V<lambda_2>@?1??get_available_formats@SettingsDialog@@AAE?AV10@XZ@@Z 1006ca20 f i ui.obj
 0001:0006ba20       ??$_Push_heap_by_index@PAV?$basic_string@_WU?$char_traits@_W@std@@V?$allocator@_W@2@@std@@V12@UItemCompare@?1??show@MultiSelectDialog@@QAE_NXZ@@std@@YAXPAV?$basic_string@_WU?$char_traits@_W@std@@V?$allocator@_W@2@@0@HH$$QAV10@UItemCompare@?1??show@MultiSelectDialog@@QAE_NXZ@@Z 1006ca20 f i ui.obj
 0001:0006bc50       ??0PropVariant@@QAE@ABV0@@Z 1006cc50 f i update.obj
 0001:0006bca0       ??4PropVariant@@QAEAAV0@ABV?$basic_string@_WU?$char_traits@_W@std@@V?$allocator@_W@2@@std@@@Z 1006cca0 f i update.obj
 0001:0006bd20       ?do_update_ui@ArchiveUpdateProgress@@EAEXXZ 1006cd20 f i update.obj
 0001:0006cc40       ??0ArchiveUpdateProgress@@QAE@_NABV?$basic_string@_WU?$char_traits@_W@std@@V?$allocator@_W@2@@std@@@Z 1006dc40 f i update.obj
 0001:0006cdd0       ?on_write_archive@ArchiveUpdateProgress@@QAEXI@Z 1006ddd0 f i update.obj
 0001:0006ce80       ??_GArchiveUpdateProgress@@UAEPAXI@Z 1006de80 f i update.obj
 0001:0006ce80       ??_EArchiveUpdateProgress@@UAEPAXI@Z 1006de80 f i * CIL library *:* CIL module *
 0001:0006cf70       ??0UpdateStream@@QAE@V?$shared_ptr@VArchiveUpdateProgress@@@std@@@Z 1006df70 f i update.obj
 0001:0006cff0       ??1UpdateStream@@UAE@XZ    1006dff0 f i update.obj
 0001:0006d040       ??_EUpdateStream@@UAEPAXI@Z 1006e040 f i * CIL library *:* CIL module *
 0001:0006d040       ??_GUpdateStream@@UAEPAXI@Z 1006e040 f i update.obj
 0001:0006d0a0       ??0SimpleUpdateStream@@QAE@ABV?$basic_string@_WU?$char_traits@_W@std@@V?$allocator@_W@2@@std@@V?$shared_ptr@VArchiveUpdateProgress@@@2@@Z 1006e0a0 f i update.obj
 0001:0006d200       ?QueryInterface@MultiVolumeUpdateStream@@UAGJABU_GUID@@PAPAX@Z 1006e200 f i update.obj
 0001:0006d200       ?QueryInterface@SimpleUpdateStream@@UAGJABU_GUID@@PAPAX@Z 1006e200 f i update.obj
 0001:0006d200       ?QueryInterface@SfxUpdateStream@@UAGJABU_GUID@@PAPAX@Z 1006e200 f i update.obj
 0001:0006d2e0       ?Release@SimpleUpdateStream@@UAGKXZ 1006e2e0 f i update.obj
 0001:0006d2e0       ?Release@MultiVolumeUpdateStream@@UAGKXZ 1006e2e0 f i update.obj
 0001:0006d2e0       ?Release@SfxUpdateStream@@UAGKXZ 1006e2e0 f i update.obj
 0001:0006d300       ?Write@SimpleUpdateStream@@UAGJPBXIPAI@Z 1006e300 f i update.obj
 0001:0006d300       ?Write@SfxUpdateStream@@UAGJPBXIPAI@Z 1006e300 f i update.obj
 0001:0006d440       ?Seek@SimpleUpdateStream@@UAGJ_JIPA_K@Z 1006e440 f i update.obj
 0001:0006d570       ?SetSize@SimpleUpdateStream@@UAGJ_K@Z 1006e570 f i update.obj
 0001:0006d6d0       ?clean_files@SfxUpdateStream@@UAEXXZ 1006e6d0 f i update.obj
 0001:0006d6d0       ?clean_files@SimpleUpdateStream@@UAEXXZ 1006e6d0 f i update.obj
 0001:0006d780       ??_ESimpleUpdateStream@@UAEPAXI@Z 1006e780 f i * CIL library *:* CIL module *
 0001:0006d780       ??_GSimpleUpdateStream@@UAEPAXI@Z 1006e780 f i update.obj
 0001:0006d7f0       ??0SfxUpdateStream@@QAE@ABV?$basic_string@_WU?$char_traits@_W@std@@V?$allocator@_W@2@@std@@ABUSfxOptions@@V?$shared_ptr@VArchiveUpdateProgress@@@2@@Z 1006e7f0 f i update.obj
 0001:0006d980       ?Seek@SfxUpdateStream@@UAGJ_JIPA_K@Z 1006e980 f i update.obj
 0001:0006db00       ?SetSize@SfxUpdateStream@@UAGJ_K@Z 1006eb00 f i update.obj
 0001:0006dc70       ??_GSfxUpdateStream@@UAEPAXI@Z 1006ec70 f i update.obj
 0001:0006dc70       ??_ESfxUpdateStream@@UAEPAXI@Z 1006ec70 f i * CIL library *:* CIL module *
 0001:0006dce0       ?get_volume_path@MultiVolumeUpdateStream@@AAE?AV?$basic_string@_WU?$char_traits@_W@std@@V?$allocator@_W@2@@std@@_K@Z 1006ece0 f i update.obj
 0001:0006dfe0       ?get_last_volume_idx@MultiVolumeUpdateStream@@AAE_KXZ 1006efe0 f i update.obj
 0001:0006e010       ??0MultiVolumeUpdateStream@@QAE@ABV?$basic_string@_WU?$char_traits@_W@std@@V?$allocator@_W@2@@std@@_KV?$shared_ptr@VArchiveUpdateProgress@@@2@@Z 1006f010 f i update.obj
 0001:0006e1e0       ?Write@MultiVolumeUpdateStream@@UAGJPBXIPAI@Z 1006f1e0 f i update.obj
 0001:0006e870       ?Seek@MultiVolumeUpdateStream@@UAGJ_JIPA_K@Z 1006f870 f i update.obj
 0001:0006ea20       ?SetSize@MultiVolumeUpdateStream@@UAGJ_K@Z 1006fa20 f i update.obj
 0001:0006ee00       ?clean_files@MultiVolumeUpdateStream@@UAEXXZ 1006fe00 f i update.obj
 0001:0006efe0       ??_EMultiVolumeUpdateStream@@UAEPAXI@Z 1006ffe0 f i * CIL library *:* CIL module *
 0001:0006efe0       ??_GMultiVolumeUpdateStream@@UAEPAXI@Z 1006ffe0 f i update.obj
 0001:0006f0a0       ?QueryInterface@FileReadStream@@UAGJABU_GUID@@PAPAX@Z 100700a0 f i update.obj
 0001:0006f1a0       ?Read@FileReadStream@@UAGJPAXIPAI@Z 100701a0 f i update.obj
 0001:0006f340       ?Seek@FileReadStream@@UAGJ_JIPA_K@Z 10070340 f i update.obj
 0001:0006f470       ?GetSize@FileReadStream@@UAGJPA_K@Z 10070470 f i update.obj
 0001:0006f560       ??_GFileReadStream@@UAEPAXI@Z 10070560 f i update.obj
 0001:0006f560       ??_EFileReadStream@@UAEPAXI@Z 10070560 f i * CIL library *:* CIL module *
 0001:0006f5d0       ?do_update_ui@PrepareUpdate@@EAEXXZ 100705d0 f i update.obj
 0001:0006f800       ?process_file@PrepareUpdate@@AAE_NABV?$basic_string@_WU?$char_traits@_W@std@@V?$allocator@_W@2@@std@@ABUFindData@@IAAI@Z 10070800 f i update.obj
 0001:0006fd40       ??R<lambda_1>@?1??process_file@PrepareUpdate@@AAE_NABV?$basic_string@_WU?$char_traits@_W@std@@V?$allocator@_W@2@@std@@ABUFindData@@IAAI@Z@QBE_NII@Z 10070d40 f i update.obj
 0001:0006fdc0       ?process_file_enum@PrepareUpdate@@AAE_NAAVFileEnum@@ABV?$basic_string@_WU?$char_traits@_W@std@@V?$allocator@_W@2@@std@@I@Z 10070dc0 f i update.obj
 0001:00070270       ??0PrepareUpdate@@QAE@ABV?$basic_string@_WU?$char_traits@_W@std@@V?$allocator@_W@2@@std@@ABV?$vector@V?$basic_string@_WU?$char_traits@_W@std@@V?$allocator@_W@2@@std@@V?$allocator@V?$basic_string@_WU?$char_traits@_W@std@@V?$allocator@_W@2@@std@@@2@@2@IAAVArchive@@AAV?$map@IUFileIndexInfo@@U?$less@I@std@@V?$allocator@U?$pair@$$CBIUFileIndexInfo@@@std@@@3@@2@AAIW4OverwriteAction@@AA_NAAV?$list@UError@@V?$allocator@UError@@@std@@@2@PAVFileFilter@Far@@6@Z 10071270 f i update.obj
 0001:00070630       ??1DirList@@QAE@XZ         10071630 f i update.obj
 0001:00070640       ??_GPrepareUpdate@@UAEPAXI@Z 10071640 f i update.obj
 0001:00070640       ??_EPrepareUpdate@@UAEPAXI@Z 10071640 f i * CIL library *:* CIL module *
 0001:00070670       ??0ArchiveUpdater@@QAE@ABV?$basic_string@_WU?$char_traits@_W@std@@V?$allocator@_W@2@@std@@0IV?$shared_ptr@V?$map@IUFileIndexInfo@@U?$less@I@std@@V?$allocator@U?$pair@$$CBIUFileIndexInfo@@@std@@@3@@std@@@2@ABUUpdateOptions@@V?$shared_ptr@_N@2@V?$shared_ptr@V?$list@UError@@V?$allocator@UError@@@std@@@std@@@2@V?$shared_ptr@VArchiveUpdateProgress@@@2@@Z 10071670 f i update.obj
 0001:00070890       ?QueryInterface@ArchiveUpdater@@UAGJABU_GUID@@PAPAX@Z 10071890 f i update.obj
 0001:00070990       ?SetTotal@ArchiveUpdater@@UAGJ_K@Z 10071990 f i update.obj
 0001:00070b10       ?SetCompleted@ArchiveUpdater@@UAGJPB_K@Z 10071b10 f i update.obj
 0001:00070cb0       ?GetUpdateItemInfo@ArchiveUpdater@@UAGJIPAH0PAI@Z 10071cb0 f i update.obj
 0001:00070d60       ?GetProperty@ArchiveUpdater@@UAGJIKPAUtagPROPVARIANT@@@Z 10071d60 f i update.obj
 0001:00070ff0       ?GetStream@ArchiveUpdater@@UAGJIPAPAUISequentialInStream@@@Z 10071ff0 f i update.obj
 0001:00071410       ?SetOperationResult@ArchiveUpdater@@UAGJH@Z 10072410 f i update.obj
 0001:00071560       ?CryptoGetTextPassword2@ArchiveUpdater@@UAGJPAHPAPA_W@Z 10072560 f i update.obj
 0001:000716d0       ??_EArchiveUpdater@@UAEPAXI@Z 100726d0 f i * CIL library *:* CIL module *
 0001:000716d0       ??_GArchiveUpdater@@UAEPAXI@Z 100726d0 f i update.obj
 0001:00071700       ??1ArchiveUpdater@@UAE@XZ  10072700 f i update.obj
 0001:000718a0       ?set_properties@Archive@@AAEXPAUIOutArchive@@ABUUpdateOptions@@@Z 100728a0 f   update.obj
 0001:00074150       ?do_update_ui@DeleteSrcFiles@@EAEXXZ 10075150 f i update.obj
 0001:00074380       ?delete_src_file@DeleteSrcFiles@@AAEXABV?$basic_string@_WU?$char_traits@_W@std@@V?$allocator@_W@2@@std@@@Z 10075380 f i update.obj
 0001:00074460       ?delete_src_dir@DeleteSrcFiles@@AAEXABV?$basic_string@_WU?$char_traits@_W@std@@V?$allocator@_W@2@@std@@@Z 10075460 f i update.obj
 0001:00074720       ??0DeleteSrcFiles@@QAE@ABV?$basic_string@_WU?$char_traits@_W@std@@V?$allocator@_W@2@@std@@ABV?$vector@V?$basic_string@_WU?$char_traits@_W@std@@V?$allocator@_W@2@@std@@V?$allocator@V?$basic_string@_WU?$char_traits@_W@std@@V?$allocator@_W@2@@std@@@2@@2@AA_NAAV?$list@UError@@V?$allocator@UError@@@std@@@2@@Z 10075720 f i update.obj
 0001:00074a00       ?create@Archive@@QAEXABV?$basic_string@_WU?$char_traits@_W@std@@V?$allocator@_W@2@@std@@ABV?$vector@V?$basic_string@_WU?$char_traits@_W@std@@V?$allocator@_W@2@@std@@V?$allocator@V?$basic_string@_WU?$char_traits@_W@std@@V?$allocator@_W@2@@std@@@2@@3@ABUUpdateOptions@@V?$shared_ptr@V?$list@UError@@V?$allocator@UError@@@std@@@std@@@3@@Z 10075a00 f   update.obj
 0001:000753e0       ?update@Archive@@QAEXABV?$basic_string@_WU?$char_traits@_W@std@@V?$allocator@_W@2@@std@@ABV?$vector@V?$basic_string@_WU?$char_traits@_W@std@@V?$allocator@_W@2@@std@@V?$allocator@V?$basic_string@_WU?$char_traits@_W@std@@V?$allocator@_W@2@@std@@@2@@3@0ABUUpdateOptions@@V?$shared_ptr@V?$list@UError@@V?$allocator@UError@@@std@@@std@@@3@@Z 100763e0 f   update.obj
 0001:00075e30       ?create_dir@Archive@@QAEXABV?$basic_string@_WU?$char_traits@_W@std@@V?$allocator@_W@2@@std@@0@Z 10076e30 f   update.obj
 0001:000769b0       ??1?$vector@VPropVariant@@V?$allocator@VPropVariant@@@std@@@std@@QAE@XZ 100779b0 f i update.obj
 0001:00076a10       ??A?$map@IUFileIndexInfo@@U?$less@I@std@@V?$allocator@U?$pair@$$CBIUFileIndexInfo@@@std@@@3@@std@@QAEAAUFileIndexInfo@@ABI@Z 10077a10 f i update.obj
 0001:00076af0       ?erase@?$_Tree@V?$_Tmap_traits@IUFileIndexInfo@@U?$less@I@std@@V?$allocator@U?$pair@$$CBIUFileIndexInfo@@@std@@@3@$0A@@std@@@std@@QAEIABI@Z 10077af0 f i update.obj
 0001:00076c20       ??6?$basic_ostream@_WU?$char_traits@_W@std@@@std@@QAEAAV01@I@Z 10077c20 f i update.obj
 0001:00076da0       ?deallocate@?$allocator@PB_W@std@@QAEXQAPB_WI@Z 10077da0 f i update.obj
 0001:00076de0       ?_Destroy@?$vector@VPropVariant@@V?$allocator@VPropVariant@@@std@@@std@@AAEXPAVPropVariant@@0@Z 10077de0 f i update.obj
 0001:00076e00       ?deallocate@?$allocator@VPropVariant@@@std@@QAEXQAVPropVariant@@I@Z 10077e00 f i update.obj
 0001:00076e40       ?_Extract@?$_Tree_val@U?$_Tree_simple_types@U?$pair@$$CBIUFileIndexInfo@@@std@@@std@@@std@@QAEPAU?$_Tree_node@U?$pair@$$CBIUFileIndexInfo@@@std@@PAX@2@V?$_Tree_unchecked_const_iterator@V?$_Tree_val@U?$_Tree_simple_types@U?$pair@$$CBIUFileIndexInfo@@@std@@@std@@@std@@U_Iterator_base0@2@@2@@Z 10077e40 f i update.obj
 0001:00077100       ?_Rrotate@?$_Tree_val@U?$_Tree_simple_types@U?$pair@$$CBIUFileIndexInfo@@@std@@@std@@@std@@QAEXPAU?$_Tree_node@U?$pair@$$CBIUFileIndexInfo@@@std@@PAX@2@@Z 10078100 f i update.obj
 0001:00077160       ?_Lrotate@?$_Tree_val@U?$_Tree_simple_types@U?$pair@$$CBIUFileIndexInfo@@@std@@@std@@@std@@QAEXPAU?$_Tree_node@U?$pair@$$CBIUFileIndexInfo@@@std@@PAX@2@@Z 10078160 f i update.obj
 0001:000771c0       ??$equal_range@V?$_Vector_iterator@V?$_Vector_val@U?$_Simple_types@I@std@@@std@@@std@@HV<lambda_1>@?1??process_file@PrepareUpdate@@AAE_NABV?$basic_string@_WU?$char_traits@_W@std@@V?$allocator@_W@2@@2@ABUFindData@@IAAI@Z@@std@@YA?AU?$pair@V?$_Vector_iterator@V?$_Vector_val@U?$_Simple_types@I@std@@@std@@@std@@V12@@0@V?$_Vector_iterator@V?$_Vector_val@U?$_Simple_types@I@std@@@std@@@0@0ABHV<lambda_1>@?1??process_file@PrepareUpdate@@AAE_NABV?$basic_string@_WU?$char_traits@_W@std@@V?$allocator@_W@2@@0@ABUFindData@@IAAI@Z@@Z 100781c0 f i update.obj
 0001:000773c0       ??$construct@VPropVariant@@V1@@?$_Default_allocator_traits@V?$allocator@VPropVariant@@@std@@@std@@SAXAAV?$allocator@VPropVariant@@@1@QAVPropVariant@@$$QAV3@@Z 100783c0 f i update.obj
 0001:00077400       ??$_Emplace_reallocate@VPropVariant@@@?$vector@VPropVariant@@V?$allocator@VPropVariant@@@std@@@std@@QAEPAVPropVariant@@QAV2@$$QAV2@@Z 10078400 f i update.obj
 0001:00077680       ??$_Destroy_range@V?$allocator@VPropVariant@@@std@@@std@@YAXPAVPropVariant@@QAV1@AAV?$allocator@VPropVariant@@@0@@Z 10078680 f i update.obj
 0001:00077720       ??$_Erase_tree@V?$allocator@U?$_Tree_node@U?$pair@$$CBIUFileIndexInfo@@@std@@PAX@std@@@std@@@?$_Tree_val@U?$_Tree_simple_types@U?$pair@$$CBIUFileIndexInfo@@@std@@@std@@@std@@QAEXAAV?$allocator@U?$_Tree_node@U?$pair@$$CBIUFileIndexInfo@@@std@@PAX@std@@@1@PAU?$_Tree_node@U?$pair@$$CBIUFileIndexInfo@@@std@@PAX@1@@Z 10078720 f i update.obj
 0001:000777c0       ??$_Freenode@V?$allocator@U?$_Tree_node@U?$pair@$$CBIUFileIndexInfo@@@std@@PAX@std@@@std@@@?$_Tree_node@U?$pair@$$CBIUFileIndexInfo@@@std@@PAX@std@@SAXAAV?$allocator@U?$_Tree_node@U?$pair@$$CBIUFileIndexInfo@@@std@@PAX@std@@@1@PAU01@@Z 100787c0 f i update.obj
 0001:00077830       ?_Destroy@?$_Ref_count@V?$map@IUFileIndexInfo@@U?$less@I@std@@V?$allocator@U?$pair@$$CBIUFileIndexInfo@@@std@@@3@@std@@@std@@EAEXXZ 10078830 f i update.obj
 0001:00077860       ??1?$_Temporary_owner@V?$map@IUFileIndexInfo@@U?$less@I@std@@V?$allocator@U?$pair@$$CBIUFileIndexInfo@@@std@@@3@@std@@@std@@QAE@XZ 10078860 f i update.obj
 0001:00077890       ?_Umove@?$vector@VPropVariant@@V?$allocator@VPropVariant@@@std@@@std@@AAEPAVPropVariant@@PAV3@00@Z 10078890 f i update.obj
 0001:00077940       ??1?$_Alloc_construct_ptr@V?$allocator@U?$_Tree_node@U?$pair@$$CBIUFileIndexInfo@@@std@@PAX@std@@@std@@@std@@QAE@XZ 10078940 f i update.obj
 0001:00077960       ??1?$_Uninitialized_backout_al@V?$allocator@VPropVariant@@@std@@@std@@QAE@XZ 10078960 f i update.obj
 0001:0007796d       ?Release@MultiVolumeUpdateStream@@WM@AGKXZ 1007896d f i update.obj
 0001:0007796d       ?Release@SfxUpdateStream@@WM@AGKXZ 1007896d f i update.obj
 0001:0007796d       ?Release@SimpleUpdateStream@@WM@AGKXZ 1007896d f i update.obj
 0001:00077977       ??_ESimpleUpdateStream@@WM@AEPAXI@Z 10078977 f i update.obj
 0001:0007797f       ?QueryInterface@SimpleUpdateStream@@WM@AGJABU_GUID@@PAPAX@Z 1007897f f i update.obj
 0001:0007797f       ?QueryInterface@MultiVolumeUpdateStream@@WM@AGJABU_GUID@@PAPAX@Z 1007897f f i update.obj
 0001:0007797f       ?QueryInterface@SfxUpdateStream@@WM@AGJABU_GUID@@PAPAX@Z 1007897f f i update.obj
 0001:00077989       ??_ESfxUpdateStream@@WM@AEPAXI@Z 10078989 f i update.obj
 0001:00077991       ?QueryInterface@ArchiveUpdater@@W3AGJABU_GUID@@PAPAX@Z 10078991 f i update.obj
 0001:0007799b       ?QueryInterface@ArchiveUpdater@@W7AGJABU_GUID@@PAPAX@Z 1007899b f i update.obj
 0001:000779a5       ?QueryInterface@FileReadStream@@W3AGJABU_GUID@@PAPAX@Z 100789a5 f i update.obj
 0001:000779af       ??_EArchiveUpdater@@W7AEPAXI@Z 100789af f i update.obj
 0001:000779b7       ??_EFileReadStream@@W7AEPAXI@Z 100789b7 f i update.obj
 0001:000779bf       ?QueryInterface@FileReadStream@@W7AGJABU_GUID@@PAPAX@Z 100789bf f i update.obj
 0001:000779c9       ??_EMultiVolumeUpdateStream@@WM@AEPAXI@Z 100789c9 f i update.obj
 0001:000779e0       _EncodePointerWrapper@4    100789e0 f   vc_crt_fix_impl.obj
 0001:00077aa0       _DecodePointerWrapper@4    10078aa0 f   vc_crt_fix_impl.obj
 0001:00077af0       _GetModuleHandleExWWrapper@12 10078af0 f   vc_crt_fix_impl.obj
 0001:00077e30       _InitializeSListHeadWrapper@4 10078e30 f   vc_crt_fix_impl.obj
 0001:00077e80       _InterlockedFlushSListWrapper@4 10078e80 f   vc_crt_fix_impl.obj
 0001:00077ed0       _InterlockedPopEntrySListWrapper@4 10078ed0 f   vc_crt_fix_impl.obj
 0001:00077f20       _InterlockedPushEntrySListWrapper@8 10078f20 f   vc_crt_fix_impl.obj
 0001:00077f70       _InterlockedPushListSListExWrapper@16 10078f70 f   vc_crt_fix_impl.obj
 0001:00077fc0       _RtlFirstEntrySListWrapper@4 10078fc0 f   vc_crt_fix_impl.obj
 0001:00078010       _QueryDepthSListWrapper@4  10079010 f   vc_crt_fix_impl.obj
 0001:00078060       _GetNumaHighestNodeNumberWrapper@4 10079060 f   vc_crt_fix_impl.obj
 0001:000780d0       _GetLogicalProcessorInformationWrapper@8 100790d0 f   vc_crt_fix_impl.obj
 0001:00078130       _SetThreadStackGuaranteeWrapper@4 10079130 f   vc_crt_fix_impl.obj
 0001:00078190       _InitializeCriticalSectionExWrapper@12 10079190 f   vc_crt_fix_impl.obj
 0001:00078210       _CompareStringExWrapper@36 10079210 f   vc_crt_fix_impl.obj
 0001:00078290       _LCMapStringExWrapper@36   10079290 f   vc_crt_fix_impl.obj
 0001:00078310       ??0bad_alloc@std@@QAE@XZ   10079310 f i libcpmt:xthrow.obj
 0001:00078328       ??0length_error@std@@QAE@ABV01@@Z 10079328 f i libcpmt:xthrow.obj
 0001:00078343       ??0length_error@std@@QAE@PBD@Z 10079343 f i libcpmt:xthrow.obj
 0001:00078362       ??0logic_error@std@@QAE@ABV01@@Z 10079362 f i libcpmt:xthrow.obj
 0001:0007837d       ??0out_of_range@std@@QAE@ABV01@@Z 1007937d f i libcpmt:xthrow.obj
 0001:00078398       ??0out_of_range@std@@QAE@PBD@Z 10079398 f i libcpmt:xthrow.obj
 0001:000783b7       ??0runtime_error@std@@QAE@PBD@Z 100793b7 f i libcpmt:xthrow.obj
 0001:000783d6       ??_Ebad_exception@std@@UAEPAXI@Z 100793d6 f i libvcruntime:frame.obj
 0001:000783d6       ??_Gbad_exception@std@@UAEPAXI@Z 100793d6 f i libvcruntime:frame.obj
 0001:000783d6       ??_Gbad_typeid@std@@UAEPAXI@Z 100793d6 f i libvcruntime:rtti.obj
 0001:000783d6       ??_Ebad_typeid@std@@UAEPAXI@Z 100793d6 f i libvcruntime:rtti.obj
 0001:000783d6       ??_Glogic_error@std@@UAEPAXI@Z 100793d6 f i libcpmt:xthrow.obj
 0001:000783d6       ??_Gout_of_range@std@@UAEPAXI@Z 100793d6 f i libcpmt:xthrow.obj
 0001:000783d6       ??_Elength_error@std@@UAEPAXI@Z 100793d6 f i libcpmt:xthrow.obj
 0001:000783d6       ??_E__non_rtti_object@std@@UAEPAXI@Z 100793d6 f i libvcruntime:rtti.obj
 0001:000783d6       ??_Eout_of_range@std@@UAEPAXI@Z 100793d6 f i libcpmt:xthrow.obj
 0001:000783d6       ??_G__non_rtti_object@std@@UAEPAXI@Z 100793d6 f i libvcruntime:rtti.obj
 0001:000783d6       ??_Elogic_error@std@@UAEPAXI@Z 100793d6 f i libcpmt:xthrow.obj
 0001:000783d6       ??_Glength_error@std@@UAEPAXI@Z 100793d6 f i libcpmt:xthrow.obj
 0001:00078403       ?__scrt_throw_std_bad_alloc@@YAXXZ 10079403 f   LIBCMT:throw_bad_alloc.obj
 0001:00078403       ?_Xbad_alloc@std@@YAXXZ    10079403 f   libcpmt:xthrow.obj
 0001:00078420       ?_Xlength_error@std@@YAXPBD@Z 10079420 f   libcpmt:xthrow.obj
 0001:00078440       ?_Xout_of_range@std@@YAXPBD@Z 10079440 f   libcpmt:xthrow.obj
 0001:00078460       ?_Xruntime_error@std@@YAXPBD@Z 10079460 f   libcpmt:xthrow.obj
 0001:00078480       ?setw@std@@YA?AU?$_Smanip@_J@1@_J@Z 10079480 f   libcpmt:iomanip.obj
 0001:000784ae       ?_Callfns@ios_base@std@@AAEXW4event@12@@Z 100794ae f i libcpmt:ios.obj
 0001:000784e1       ?_Ios_base_dtor@ios_base@std@@CAXPAV12@@Z 100794e1 f   libcpmt:ios.obj
 0001:00078521       ?_Tidy@ios_base@std@@AAEXXZ 10079521 f i libcpmt:ios.obj
 0001:00078597       ??0_Locimp@locale@std@@AAE@_N@Z 10079597 f i libcpmt:locale0.obj
 0001:000785d8       ??1_Fac_node@std@@QAE@XZ   100795d8 f i libcpmt:locale0.obj
 0001:00078609       ??1_Fac_tidy_reg_t@std@@QAE@XZ 10079609 f i libcpmt:locale0.obj
 0001:00078630       ??1_Locimp@locale@std@@MAE@XZ 10079630 f i libcpmt:locale0.obj
 0001:0007865b       ??4?$_Yarn@D@std@@QAEAAV01@PBD@Z 1007965b f i libcpmt:locale0.obj
 0001:000786af       ??_E_Locimp@locale@std@@MAEPAXI@Z 100796af f i libcpmt:locale0.obj
 0001:000786af       ??_G_Locimp@locale@std@@MAEPAXI@Z 100796af f i libcpmt:locale0.obj
 0001:000786d1       ?_Facet_Register@std@@YAXPAV_Facet_base@1@@Z 100796d1 f   libcpmt:locale0.obj
 0001:000786fd       ?_Getgloballocale@locale@std@@CAPAV_Locimp@12@XZ 100796fd f   libcpmt:locale0.obj
 0001:00078703       ?_Init@locale@std@@CAPAV_Locimp@12@_N@Z 10079703 f   libcpmt:locale0.obj
 0001:00078793       ?_Locimp_dtor@_Locimp@locale@std@@CAXPAV123@@Z 10079793 f   libcpmt:locale0.obj
 0001:00078803       ?_Locinfo_ctor@_Locinfo@std@@SAXPAV12@PBD@Z 10079803 f   libcpmt:locale0.obj
 0001:0007884e       ?_Locinfo_dtor@_Locinfo@std@@SAXPAV12@@Z 1007984e f   libcpmt:locale0.obj
 0001:00078868       ?_New_Locimp@_Locimp@locale@std@@CAPAV123@_N@Z 10079868 f   libcpmt:locale0.obj
 0001:0007888b       ?_Setgloballocale@locale@std@@CAXPAX@Z 1007988b f   libcpmt:locale0.obj
 0001:000788b3       __Deletegloballocale       100798b3 f   libcpmt:locale0.obj
 0001:00078918       ?_Syserror_map@std@@YAPBDH@Z 10079918 f   libcpmt:syserror.obj
 0001:0007893d       ?_Execute_once@std@@YAHAAUonce_flag@1@P6GHPAX1PAPAX@Z1@Z 1007993d f   libcpmt:xonce.obj
 0001:00078955       __Mbrtowc                  10079955 f   libcpmt:xmbtowc.obj
 0001:00078ade       ??0_Init_locks@std@@QAE@XZ 10079ade f   libcpmt:xlock.obj
 0001:00078b0b       ??0_Lockit@std@@QAE@H@Z    10079b0b f   libcpmt:xlock.obj
 0001:00078b3c       ??1_Init_locks@std@@QAE@XZ 10079b3c f   libcpmt:xlock.obj
 0001:00078b63       ??1_Lockit@std@@QAE@XZ     10079b63 f   libcpmt:xlock.obj
 0001:00078b82       __Getcvt                   10079b82 f   libcpmt:xwctomb.obj
 0001:00078bf5       __Wcrtomb                  10079bf5 f   libcpmt:xwctomb.obj
 0001:00078c51       __Getctype                 10079c51 f   libcpmt:_tolower.obj
 0001:00078cbc       __Towupper                 10079cbc f   libcpmt:xtowupper.obj
 0001:00078d20       __Towlower                 10079d20 f   libcpmt:xtowlower.obj
 0001:00078d80       __Getwctype                10079d80 f   libcpmt:xgetwctype.obj
 0001:00078da0       __Getwctypes               10079da0 f   libcpmt:xgetwctype.obj
 0001:00078dbf       ?uncaught_exception@std@@YA_NXZ 10079dbf f   libcpmt:uncaught_exception.obj
 0001:00078dc4       ??1_Init_atexit@@QAE@XZ    10079dc4 f i libcpmt:iosptrs.obj
 0001:00078e27       ?_Atexit@@YAXP6AXXZ@Z      10079e27 f   libcpmt:iosptrs.obj
 0001:00079112       ___crtInitOnceExecuteOnce  1007a112 f   libcpmt:winapisupp.obj
 0001:0007919c       ___crtInitializeCriticalSectionEx 1007a19c f   libcpmt:winapisupp.obj
 0001:000791d1       __Mtxdst                   1007a1d1 f   libcpmt:xmtx.obj
 0001:000791df       __Mtxinit                  1007a1df f   libcpmt:xmtx.obj
 0001:000791f6       __Mtxlock                  1007a1f6 f   libcpmt:xmtx.obj
 0001:00079204       __Mtxunlock                1007a204 f   libcpmt:xmtx.obj
 0001:00079212       __freea_crt                1007a212 f i libcpmt:StlLCMapStringA.obj
 0001:00079230       ___crtLCMapStringW         1007a230 f   libcpmt:StlLCMapStringW.obj
 0001:0007926a       _GetTableIndexFromLocaleName 1007a26a f   libcpmt:winapinls.obj
 0001:000792b8       ___crtDownlevelLocaleNameToLCID 1007a2b8 f   libcpmt:winapinls.obj
 0001:000792e2       ___crtLCMapStringEx        1007a2e2 f   libcpmt:winapinls.obj
 0001:00079335       ___wcsnicmp_ascii          1007a335 f   libcpmt:winapinls.obj
 0001:0007939d       @__security_check_cookie@4 1007a39d f   LIBCMT:secchk.obj
 0001:000793ae       ??3@YAXPAXI@Z              1007a3ae f   LIBCMT:delete_scalar_size.obj
 0001:000793bc       ??_M@YGXPAXIIP6EX0@Z@Z     1007a3bc f   LIBCMT:ehvecdtr.obj
 0001:00079441       ?__ArrayUnwind@@YGXPAXIIP6EX0@Z@Z 1007a441 f   LIBCMT:ehvecdtr.obj
 0001:000794d1       ??2@YAPAXI@Z               1007a4d1 f   LIBCMT:new_scalar.obj
 0001:00079501       ??_Gtype_info@@UAEPAXI@Z   1007a501 f i LIBCMT:std_type_info_static.obj
 0001:00079501       ??_Etype_info@@UAEPAXI@Z   1007a501 f i LIBCMT:std_type_info_static.obj
 0001:00079568       ___scrt_acquire_startup_lock 1007a568 f   LIBCMT:utility.obj
 0001:0007959a       ___scrt_dllmain_after_initialize_c 1007a59a f   LIBCMT:utility.obj
 0001:000795c5       ___scrt_dllmain_before_initialize_c 1007a5c5 f   LIBCMT:utility.obj
 0001:000795d3       ___scrt_dllmain_crt_thread_attach 1007a5d3 f   LIBCMT:utility.obj
 0001:000795f2       ___scrt_dllmain_crt_thread_detach 1007a5f2 f   LIBCMT:utility.obj
 0001:000795ff       ___scrt_dllmain_exception_filter 1007a5ff f   LIBCMT:utility.obj
 0001:00079633       ___scrt_dllmain_uninitialize_c 1007a633 f   LIBCMT:utility.obj
 0001:00079656       ___scrt_dllmain_uninitialize_critical 1007a656 f   LIBCMT:utility.obj
 0001:00079663       ___scrt_initialize_crt     1007a663 f   LIBCMT:utility.obj
 0001:0007969c       ___scrt_initialize_onexit_tables 1007a69c f   LIBCMT:utility.obj
 0001:00079723       ___scrt_is_nonwritable_in_current_image 1007a723 f   LIBCMT:utility.obj
 0001:000797b7       ___scrt_release_startup_lock 1007a7b7 f   LIBCMT:utility.obj
 0001:000797d4       ___scrt_uninitialize_crt   1007a7d4 f   LIBCMT:utility.obj
 0001:000797fc       __onexit                   1007a7fc f   LIBCMT:utility.obj
 0001:00079829       _atexit                    1007a829 f   LIBCMT:utility.obj
 0001:0007983e       ??_V@YAXPAX@Z              1007a83e f   LIBCMT:delete_array.obj
 0001:00079843       ??_U@YAPAXI@Z              1007a843 f   LIBCMT:new_array.obj
 0001:0007984c       ?__scrt_initialize_type_info@@YAXXZ 1007a84c f   LIBCMT:tncleanup.obj
 0001:00079858       ?__scrt_uninitialize_type_info@@YAXXZ 1007a858 f   LIBCMT:tncleanup.obj
 0001:00079864       ??_L@YGXPAXIIP6EX0@Z1@Z    1007a864 f   LIBCMT:ehvecctr.obj
 0001:00079c13       __DllMainCRTStartup@12     1007ac13 f   LIBCMT:dll_dllmain.obj
 0001:00079c36       __EH_epilog3               1007ac36 f   LIBCMT:ehprolg3.obj
 0001:00079c4b       __EH_epilog3_GS            1007ac4b f   LIBCMT:ehprolg3.obj
 0001:00079c5c       __EH_prolog3               1007ac5c f   LIBCMT:ehprolg3.obj
 0001:00079c90       __EH_prolog3_GS            1007ac90 f   LIBCMT:ehprolg3.obj
 0001:00079cc7       __EH_prolog3_catch         1007acc7 f   LIBCMT:ehprolg3.obj
 0001:00079d00       __alloca_probe_16          1007ad00 f   LIBCMT:alloca16.obj
 0001:00079d16       __alloca_probe_8           1007ad16     LIBCMT:alloca16.obj
 0001:00079d30       __allmul                   1007ad30 f   LIBCMT:llmul.obj
 0001:00079d70       __aulldiv                  1007ad70 f   LIBCMT:ulldiv.obj
 0001:00079dd8       ___raise_securityfailure   1007add8 f   LIBCMT:gs_report.obj
 0001:00079e00       ___report_gsfailure        1007ae00 f   LIBCMT:gs_report.obj
 0001:00079ef9       ___report_rangecheckfailure 1007aef9 f   LIBCMT:gs_report.obj
 0001:00079f05       ___report_securityfailure  1007af05 f   LIBCMT:gs_report.obj
 0001:00079fd3       ??3@YAXPAX@Z               1007afd3 f   LIBCMT:delete_scalar.obj
 0001:00079ff0       __SEH_prolog4              1007aff0 f   LIBCMT:sehprolg4.obj
 0001:0007a036       __SEH_epilog4              1007b036 f   LIBCMT:sehprolg4.obj
 0001:0007a04b       ___isa_available_init      1007b04b f   LIBCMT:cpu_disp.obj
 0001:0007a21b       ?raw_length@charNode@@UBEHXZ 1007b21b f   libvcruntime:undname.obj
 0001:0007a21b       ?length@charNode@@UBEHXZ   1007b21b f   libvcruntime:undname.obj
 0001:0007a21b       __get_startup_argv_mode    1007b21b f   LIBCMT:argv_mode.obj
 0001:0007a21f       ___scrt_is_ucrt_dll_in_use 1007b21f f   LIBCMT:ucrt_detection.obj
 0001:0007a22b       ___scrt_fastfail           1007b22b f   LIBCMT:utility_desktop.obj
 0001:0007a345       __crt_debugger_hook        1007b345 f   LIBCMT:utility_desktop.obj
 0001:0007a39a       ___security_init_cookie    1007b39a f   LIBCMT:gs_support.obj
 0001:0007a3e5       _DllMain@12                1007b3e5 f   LIBCMT:dll_dllmain_stub.obj
 0001:0007a3eb       ___local_stdio_scanf_options 1007b3eb f i LIBCMT:default_local_stdio_options.obj
 0001:0007a3f1       ___scrt_initialize_default_local_stdio_options 1007b3f1 f   LIBCMT:default_local_stdio_options.obj
 0001:0007a40e       ___scrt_get_dyn_tls_init_callback 1007b40e f   LIBCMT:dyn_tls_init.obj
 0001:0007a414       __RTC_Initialize           1007b414 f   LIBCMT:initsect.obj
 0001:0007a440       __RTC_Terminate            1007b440 f   LIBCMT:initsect.obj
 0001:0007a470       __alloca_probe             1007b470 f   LIBCMT:chkstk.obj
 0001:0007a470       __chkstk                   1007b470 f   LIBCMT:chkstk.obj
 0001:0007a49d       ?GetRangeOfTrysToCheck@__FrameHandler3@@SA?AU?$pair@Viterator@TryBlockMap@__FrameHandler3@@V123@@std@@AAVTryBlockMap@1@HPAXPBU_s_FuncInfo@@H@Z 1007b49d f   libvcruntime:trnsctrl.obj
 0001:0007a50d       ?_CallCatchBlock2@@YAPAXPAUEHRegistrationNode@@PBU_s_FuncInfo@@PAXHK@Z 1007b50d f   libvcruntime:trnsctrl.obj
 0001:0007a56b       ?_CallSETranslator@@YAHPAUEHExceptionRecord@@PAUEHRegistrationNode@@PAX2PBU_s_FuncInfo@@H1@Z 1007b56b f   libvcruntime:trnsctrl.obj
 0001:0007a651       ?_JumpToContinuation@@YGXPAXPAUEHRegistrationNode@@@Z 1007b651 f   libvcruntime:trnsctrl.obj
 0001:0007a681       ?_UnwindNestedFrames@@YGXPAUEHRegistrationNode@@PAUEHExceptionRecord@@@Z 1007b681 f   libvcruntime:trnsctrl.obj
 0001:0007a6d4       __CatchGuardHandler        1007b6d4 f   libvcruntime:trnsctrl.obj
 0001:0007a705       __CreateFrameInfo          1007b705 f   libvcruntime:trnsctrl.obj
 0001:0007a729       __FindAndUnlinkFrame       1007b729 f   libvcruntime:trnsctrl.obj
 0001:0007a771       __TranslatorGuardHandler   1007b771 f   libvcruntime:trnsctrl.obj
 0001:0007a80e       ___CxxFrameHandler3        1007b80e f   libvcruntime:trnsctrl.obj
 0001:0007a844       ___DestructExceptionObject 1007b844 f   libvcruntime:ehhelpers.obj
 0001:0007a8e5       ?_CallMemberFunction0@@YGXQAX0@Z 1007b8e5 f i libvcruntime:ehhelpers.obj
 0001:0007a94a       __IsExceptionObjectToBeDestroyed 1007b94a f   libvcruntime:ehhelpers.obj
 0001:0007a970       ___AdjustPointer           1007b970 f   libvcruntime:ehhelpers.obj
 0001:0007a995       ___FrameUnwindFilter       1007b995 f   libvcruntime:ehhelpers.obj
 0001:0007a9eb       ___current_exception       1007b9eb f   libvcruntime:ehhelpers.obj
 0001:0007a9f4       ___current_exception_context 1007b9f4 f   libvcruntime:ehhelpers.obj
 0001:0007a9fd       ___std_terminate           1007b9fd f   libvcruntime:ehhelpers.obj
 0001:0007aa02       ___std_exception_copy      1007ba02 f   libvcruntime:std_exception.obj
 0001:0007aa65       ___std_exception_destroy   1007ba65 f   libvcruntime:std_exception.obj
 0001:0007aa84       __get_purecall_handler     1007ba84 f   libvcruntime:purevirt.obj
 0001:0007aa8a       __purecall                 1007ba8a f   libvcruntime:purevirt.obj
 0001:0007aaaf       ___std_type_info_compare   1007baaf f   libvcruntime:std_type_info.obj
 0001:0007aaeb       ___std_type_info_destroy_list 1007baeb f   libvcruntime:std_type_info.obj
 0001:0007ab0e       ___std_type_info_name      1007bb0e f   libvcruntime:std_type_info.obj
 0001:0007abd3       ??0__non_rtti_object@std@@QAE@ABV01@@Z 1007bbd3 f i libvcruntime:rtti.obj
 0001:0007abee       ??0bad_typeid@std@@QAE@ABV01@@Z 1007bbee f i libvcruntime:rtti.obj
 0001:0007ac09       ?__construct_from_string_literal@__non_rtti_object@std@@SA?AV12@QBD@Z 1007bc09 f i libvcruntime:rtti.obj
 0001:0007ac25       ?__construct_from_string_literal@bad_typeid@std@@SA?AV12@QBD@Z 1007bc25 f i libvcruntime:rtti.obj
 0001:0007ac41       ___RTtypeid                1007bc41 f   libvcruntime:rtti.obj
 0001:0007acce       _wcsrchr                   1007bcce f   libvcruntime:wcsrchr.obj
 0001:0007ad70       _wcschr                    1007bd70 f   libvcruntime:wcschr.obj
 0001:0007ae37       __CxxThrowException@8      1007be37 f   libvcruntime:throw.obj
 0001:0007aeb0       _memcpy                    1007beb0 f   libvcruntime:memcpy.obj
 0001:0007b430       _memmove                   1007c430 f   libvcruntime:memmove.obj
 0001:0007b9b0       _memset                    1007c9b0 f   libvcruntime:memset.obj
 0001:0007bb0a       ___uncaught_exception      1007cb0a f   libvcruntime:uncaught_exception.obj
 0001:0007bb20       _memchr                    1007cb20 f   libvcruntime:memchr.obj
 0001:0007bbcd       _memcmp                    1007cbcd f   libvcruntime:memcmp.obj
 0001:0007cbc0       __except_handler4          1007dbc0 f   libvcruntime:chandler4.obj
 0001:0007cd1e       ___vcrt_initialize         1007dd1e f   libvcruntime:initialization.obj
 0001:0007cd3d       ___vcrt_thread_attach      1007dd3d f   libvcruntime:initialization.obj
 0001:0007cd48       ___vcrt_thread_detach      1007dd48 f   libvcruntime:initialization.obj
 0001:0007cd53       ___vcrt_uninitialize       1007dd53 f   libvcruntime:initialization.obj
 0001:0007cd6a       ___vcrt_uninitialize_critical 1007dd6a f   libvcruntime:initialization.obj
 0001:0007cd72       ___vcrt_freefls@4          1007dd72 f   libvcruntime:per_thread_data.obj
 0001:0007cd8e       ___vcrt_freeptd            1007dd8e f   libvcruntime:per_thread_data.obj
 0001:0007cdc4       ___vcrt_getptd             1007ddc4 f   libvcruntime:per_thread_data.obj
 0001:0007cdd2       ___vcrt_getptd_noexit      1007ddd2 f   libvcruntime:per_thread_data.obj
 0001:0007ce64       ___vcrt_getptd_noinit      1007de64 f   libvcruntime:per_thread_data.obj
 0001:0007ce9b       ___vcrt_initialize_ptd     1007de9b f   libvcruntime:per_thread_data.obj
 0001:0007cece       ___vcrt_uninitialize_ptd   1007dece f   libvcruntime:per_thread_data.obj
 0001:0007d62c       ??$TypeMatchHelper@V__FrameHandler3@@@@YAHPBU_s_HandlerType@@PBU_s_CatchableType@@PBU_s_ThrowInfo@@@Z 1007e62c f i libvcruntime:frame.obj
 0001:0007d6ba       ??$__InternalCxxFrameHandler@V__FrameHandler3@@@@YA?AW4_EXCEPTION_DISPOSITION@@PAUEHExceptionRecord@@PAUEHRegistrationNode@@PAU_CONTEXT@@PAXPBU_s_FuncInfo@@H1E@Z 1007e6ba f i libvcruntime:frame.obj
 0001:0007d7bc       ??0bad_exception@std@@QAE@ABV01@@Z 1007e7bc f i libvcruntime:frame.obj
 0001:0007d7d7       ??0bad_exception@std@@QAE@XZ 1007e7d7 f i libvcruntime:frame.obj
 0001:0007da37       ?FrameUnwindToEmptyState@__FrameHandler3@@SAXPAUEHRegistrationNode@@PAXPBU_s_FuncInfo@@@Z 1007ea37 f   libvcruntime:frame.obj
 0001:0007da4f       ?FrameUnwindToState@__FrameHandler3@@SAXPAUEHRegistrationNode@@PAXPBU_s_FuncInfo@@H@Z 1007ea4f f   libvcruntime:frame.obj
 0001:0007dbd1       ?_CallMemberFunction1@@YGXQAX00@Z 1007ebd1 f i libvcruntime:frame.obj
 0001:0007dbe1       ?_CallMemberFunction2@@YGXQAX00H@Z 1007ebe1 f i libvcruntime:frame.obj
 0001:0007dbf4       ?getESTypes@__FrameHandler3@@SAPBU_s_ESTypeList@@PBU_s_FuncInfo@@@Z 1007ebf4 f i libvcruntime:frame.obj
 0001:0007dc00       __CallSettingFrame@12      1007ec00 f   libvcruntime:lowhelpr.obj
 0001:0007dc27       __NLG_Return               1007ec27     libvcruntime:lowhelpr.obj
 0001:0007dc4c       ___except_validate_context_record 1007ec4c f   libvcruntime:jbcxrval.obj
 0001:0007dc7c       ___except_validate_jump_buffer 1007ec7c f   libvcruntime:jbcxrval.obj
 0001:0007dca9       ??$?0$00@DName@@QAE@PBDU?$StringLifeSelector@$00@@@Z 1007eca9 f i libvcruntime:undname.obj
 0001:0007dcdc       ??$?0$01@DName@@QAE@PBDU?$StringLifeSelector@$01@@@Z 1007ecdc f i libvcruntime:undname.obj
 0001:0007dcdc       ??$?0$0A@@DName@@QAE@PBDU?$StringLifeSelector@$0A@@@@Z 1007ecdc f i libvcruntime:undname.obj
 0001:0007dd0f       ??$?0$0A@@pcharNode@@QAE@PBDHU?$StringLifeSelector@$0A@@@@Z 1007ed0f f i libvcruntime:undname.obj
 0001:0007dd0f       ??$?0$01@pcharNode@@QAE@PBDHU?$StringLifeSelector@$01@@@Z 1007ed0f f i libvcruntime:undname.obj
 0001:0007dd4f       ??$append@VDNameNode@@@DName@@AAEXPBVDNameNode@@@Z 1007ed4f f i libvcruntime:undname.obj
 0001:0007dd4f       ??$append@VcharNode@@@DName@@AAEXPBVcharNode@@@Z 1007ed4f f i libvcruntime:undname.obj
 0001:0007dd4f       ??$append@VDNameStatusNode@@@DName@@AAEXPBVDNameStatusNode@@@Z 1007ed4f f i libvcruntime:undname.obj
 0001:0007dd4f       ??$append@VpcharNode@@@DName@@AAEXPBVpcharNode@@@Z 1007ed4f f i libvcruntime:undname.obj
 0001:0007dd93       ??$doPchar@$00@DName@@AAEXPBDH@Z 1007ed93 f i libvcruntime:undname.obj
 0001:0007ddff       ??$doPchar@$0A@@DName@@AAEXPBDH@Z 1007edff f i libvcruntime:undname.obj
 0001:0007ddff       ??$doPchar@$01@DName@@AAEXPBDH@Z 1007edff f i libvcruntime:undname.obj
 0001:0007de70       ??0DName@@QAE@AAPBDD@Z     1007ee70 f   libvcruntime:undname.obj
 0001:0007def0       ??0DName@@QAE@ABUStringLiteral@@@Z 1007eef0 f   libvcruntime:undname.obj
 0001:0007df17       ??0DName@@QAE@PAV0@@Z      1007ef17 f   libvcruntime:undname.obj
 0001:0007df5e       ??0DName@@QAE@W4DNameStatus@@@Z 1007ef5e f   libvcruntime:undname.obj
 0001:0007df9e       ??0DName@@QAE@_J@Z         1007ef9e f   libvcruntime:undname.obj
 0001:0007e02a       ??0DName@@QAE@_K@Z         1007f02a f   libvcruntime:undname.obj
 0001:0007e090       ??0UnDecorator@@QAE@PBDP6APADJ@ZK@Z 1007f090 f i libvcruntime:undname.obj
 0001:0007e0dc       ??0pDNameNode@@QAE@PAVDName@@@Z 1007f0dc f   libvcruntime:undname.obj
 0001:0007e10b       ??2@YAPAXIAAV_HeapManager@@H@Z 1007f10b f   libvcruntime:undname.obj
 0001:0007e12a       ??4DName@@QAEAAV0@ABUStringLiteral@@@Z 1007f12a f   libvcruntime:undname.obj
 0001:0007e14b       ??4DName@@QAEAAV0@W4DNameStatus@@@Z 1007f14b f   libvcruntime:undname.obj
 0001:0007e17d       ??AReplicator@@QBE?AVDName@@H@Z 1007f17d f   libvcruntime:undname.obj
 0001:0007e1c3       ??H@YA?AVDName@@ABUStringLiteral@@ABV0@@Z 1007f1c3 f i libvcruntime:undname.obj
 0001:0007e1e5       ??H@YA?AVDName@@DABV0@@Z   1007f1e5 f i libvcruntime:undname.obj
 0001:0007e210       ??H@YA?AVDName@@W4DNameStatus@@ABV0@@Z 1007f210 f i libvcruntime:undname.obj
 0001:0007e232       ??HDName@@QBE?AV0@ABUStringLiteral@@@Z 1007f232 f   libvcruntime:undname.obj
 0001:0007e254       ??HDName@@QBE?AV0@ABV0@@Z  1007f254 f   libvcruntime:undname.obj
 0001:0007e276       ??HDName@@QBE?AV0@D@Z      1007f276 f   libvcruntime:undname.obj
 0001:0007e298       ??HDName@@QBE?AV0@W4DNameStatus@@@Z 1007f298 f   libvcruntime:undname.obj
 0001:0007e2ba       ??YDName@@QAEAAV0@ABUStringLiteral@@@Z 1007f2ba f   libvcruntime:undname.obj
 0001:0007e312       ??YDName@@QAEAAV0@ABV0@@Z  1007f312 f   libvcruntime:undname.obj
 0001:0007e369       ??YDName@@QAEAAV0@D@Z      1007f369 f   libvcruntime:undname.obj
 0001:0007e3be       ??YDName@@QAEAAV0@W4DNameStatus@@@Z 1007f3be f   libvcruntime:undname.obj
 0001:0007e3fe       ??YReplicator@@QAEAAV0@ABVDName@@@Z 1007f3fe f   libvcruntime:undname.obj
 0001:0007e446       ??_5DName@@QAEAAV0@ABV0@@Z 1007f446 f   libvcruntime:undname.obj
 0001:0007e462       ?Destructor@_HeapManager@@QAEXXZ 1007f462 f i libvcruntime:undname.obj
 0001:0007e49a       ?UScore@UnDecorator@@SA?AUStringLiteral@@W4Tokens@@@Z 1007f49a f   libvcruntime:undname.obj
 0001:0007e4c1       ?composeDeclaration@UnDecorator@@CA?AVDName@@ABV2@@Z 1007f4c1 f i libvcruntime:undname.obj
 0001:0007f1c2       ?doPchar@DName@@AAEXD@Z    100801c2 f   libvcruntime:undname.obj
 0001:0007f1fd       ?getArgumentList@UnDecorator@@CA?AVDName@@XZ 100801fd f   libvcruntime:undname.obj
 0001:0007f2f3       ?getArgumentTypes@UnDecorator@@CA?AVDName@@XZ 100802f3 f   libvcruntime:undname.obj
 0001:0007f40c       ?getArrayType@UnDecorator@@CA?AVDName@@ABV2@@Z 1008040c f i libvcruntime:undname.obj
 0001:0007f5c6       ?getBasedType@UnDecorator@@CA?AVDName@@XZ 100805c6 f   libvcruntime:undname.obj
 0001:0007f681       ?getBasicDataType@UnDecorator@@CA?AVDName@@ABV2@@Z 10080681 f   libvcruntime:undname.obj
 0001:0007fb4c       ?getCallingConvention@UnDecorator@@CA?AVDName@@XZ 10080b4c f   libvcruntime:undname.obj
 0001:0007fc29       ?getDataIndirectType@UnDecorator@@CA?AVDName@@ABV2@W4IndirectionKind@@0H@Z 10080c29 f   libvcruntime:undname.obj
 0001:000802a7       ?getDataIndirectType@UnDecorator@@CA?AVDName@@XZ 100812a7 f i libvcruntime:undname.obj
 0001:000802d5       ?getDataType@UnDecorator@@CA?AVDName@@PAV2@@Z 100812d5 f   libvcruntime:undname.obj
 0001:000803ac       ?getDecoratedName@UnDecorator@@CA?AVDName@@XZ 100813ac f   libvcruntime:undname.obj
 0001:00080616       ?getDimension@UnDecorator@@CA?AVDName@@_N@Z 10081616 f   libvcruntime:undname.obj
 0001:00080756       ?getDispatchTarget@UnDecorator@@CA?AVDName@@XZ 10081756 f   libvcruntime:undname.obj
 0001:000807aa       ?getECSUDataType@UnDecorator@@CA?AVDName@@XZ 100817aa f   libvcruntime:undname.obj
 0001:00080932       ?getEnumType@UnDecorator@@CA?AVDName@@XZ 10081932 f i libvcruntime:undname.obj
 0001:00080a52       ?getExtendedDataIndirectType@UnDecorator@@CA?AVDName@@AAW4IndirectionKind@@AA_NH@Z 10081a52 f   libvcruntime:undname.obj
 0001:00080bf0       ?getExternalDataType@UnDecorator@@CA?AVDName@@ABV2@@Z 10081bf0 f i libvcruntime:undname.obj
 0001:00080c55       ?getFunctionIndirectType@UnDecorator@@CA?AVDName@@ABV2@@Z 10081c55 f   libvcruntime:undname.obj
 0001:00081008       ?getLastChar@DName@@QBEDXZ 10082008 f i libvcruntime:undname.obj
 0001:00081028       ?getLastChar@DNameStatusNode@@UBEDXZ 10082028 f i libvcruntime:undname.obj
 0001:00081034       ?getLastChar@charNode@@UBEDXZ 10082034 f i libvcruntime:undname.obj
 0001:00081038       ?getLastChar@pDNameNode@@UBEDXZ 10082038 f i libvcruntime:undname.obj
 0001:00081046       ?getLastChar@pairNode@@UBEDXZ 10082046 f i libvcruntime:undname.obj
 0001:0008107b       ?getLastChar@pcharNode@@UBEDXZ 1008207b f i libvcruntime:undname.obj
 0001:0008108d       ?getLexicalFrame@UnDecorator@@CA?AVDName@@XZ 1008208d f i libvcruntime:undname.obj
 0001:000810be       ?getMemoryWithBuffer@_HeapManager@@QAEPAXI@Z 100820be f   libvcruntime:undname.obj
 0001:00081130       ?getMemoryWithoutBuffer@_HeapManager@@QAEPAXI@Z 10082130 f   libvcruntime:undname.obj
 0001:00081150       ?getNoexcept@UnDecorator@@CA?AVDName@@XZ 10082150 f   libvcruntime:undname.obj
 0001:000811a4       ?getNumberOfDimensions@UnDecorator@@CAHXZ 100821a4 f   libvcruntime:undname.obj
 0001:00081205       ?getOperatorName@UnDecorator@@CA?AVDName@@_NPA_N@Z 10082205 f i libvcruntime:undname.obj
 0001:0008186e       ?getPrimaryDataType@UnDecorator@@CA?AVDName@@ABV2@@Z 1008286e f   libvcruntime:undname.obj
 0001:00081a8d       ?getPtrRefDataType@UnDecorator@@CA?AVDName@@ABV2@H@Z 10082a8d f   libvcruntime:undname.obj
 0001:00081bfa       ?getPtrRefType@UnDecorator@@CA?AVDName@@ABV2@0W4IndirectionKind@@@Z 10082bfa f   libvcruntime:undname.obj
 0001:00081d0b       ?getRestrictionSpec@UnDecorator@@CA?AVDName@@XZ 10082d0b f   libvcruntime:undname.obj
 0001:00081e34       ?getReturnType@UnDecorator@@CA?AVDName@@PAV2@@Z 10082e34 f   libvcruntime:undname.obj
 0001:00081e63       ?getScope@UnDecorator@@CA?AVDName@@XZ 10082e63 f   libvcruntime:undname.obj
 0001:00082215       ?getScopedName@UnDecorator@@CA?AVDName@@XZ 10083215 f   libvcruntime:undname.obj
 0001:00082300       ?getSignedDimension@UnDecorator@@CA?AVDName@@XZ 10083300 f   libvcruntime:undname.obj
 0001:00082351       ?getString@DName@@QBEPADPAD0@Z 10083351 f i libvcruntime:undname.obj
 0001:0008237e       ?getString@DName@@QBEPADPADH@Z 1008337e f i libvcruntime:undname.obj
 0001:000823d3       ?getString@DNameStatusNode@@UBEPADPAD0@Z 100833d3 f i libvcruntime:undname.obj
 0001:0008240c       ?getString@charNode@@UBEPADPAD0@Z 1008340c f i libvcruntime:undname.obj
 0001:00082421       ?getString@pDNameNode@@UBEPADPAD0@Z 10083421 f i libvcruntime:undname.obj
 0001:00082438       ?getString@pairNode@@UBEPADPAD0@Z 10083438 f i libvcruntime:undname.obj
 0001:0008247e       ?getString@pcharNode@@UBEPADPAD0@Z 1008347e f i libvcruntime:undname.obj
 0001:00082499       ?getStringEncoding@UnDecorator@@CA?AVDName@@W4PrefixKind@@H@Z 10083499 f   libvcruntime:undname.obj
 0001:00082551       ?getStringHelper@@YAPADPADPBD1H@Z 10083551 f i libvcruntime:undname.obj
 0001:0008257b       ?getSymbolName@UnDecorator@@CA?AVDName@@XZ 1008357b f i libvcruntime:undname.obj
 0001:000825c3       ?getTemplateArgumentList@UnDecorator@@CA?AVDName@@XZ 100835c3 f   libvcruntime:undname.obj
 0001:0008274d       ?getTemplateName@UnDecorator@@CA?AVDName@@_N@Z 1008374d f   libvcruntime:undname.obj
 0001:00082893       ?getTemplateNonTypeArgument@UnDecorator@@CA?AVDName@@XZ 10083893 f   libvcruntime:undname.obj
 0001:00082c48       ?getTemplateTypeArgument@UnDecorator@@CA?AVDName@@XZ 10083c48 f   libvcruntime:undname.obj
 0001:00082d4e       ?getThisType@UnDecorator@@CA?AVDName@@XZ 10083d4e f i libvcruntime:undname.obj
 0001:00082d7d       ?getThrowTypes@UnDecorator@@CA?AVDName@@XZ 10083d7d f   libvcruntime:undname.obj
 0001:00082da0       ?getTypeEncoding@UnDecorator@@CAHXZ 10083da0 f i libvcruntime:undname.obj
 0001:000830d0       ?getUndecoratedName@UnDecorator@@QAEPADPADH@Z 100840d0 f i libvcruntime:undname.obj
 0001:0008319c       ?getVCallThunkType@UnDecorator@@CA?AVDName@@XZ 1008419c f i libvcruntime:undname.obj
 0001:000831f2       ?getVdispMapType@UnDecorator@@CA?AVDName@@ABV2@@Z 100841f2 f i libvcruntime:undname.obj
 0001:00083253       ?getVfTableType@UnDecorator@@CA?AVDName@@ABV2@@Z 10084253 f i libvcruntime:undname.obj
 0001:000833c7       ?getZName@UnDecorator@@CA?AVDName@@_N0@Z 100843c7 f   libvcruntime:undname.obj
 0001:000835ca       ?length@DName@@QBEHXZ      100845ca f i libvcruntime:undname.obj
 0001:000835e9       ?length@pDNameNode@@UBEHXZ 100845e9 f i libvcruntime:undname.obj
 0001:000835f7       ?length@pairNode@@UBEHXZ   100845f7 f i libvcruntime:undname.obj
 0001:0008363d       ?make@DNameStatusNode@@SAPBV1@W4DNameStatus@@@Z 1008463d f i libvcruntime:undname.obj
 0001:00083659       ?parseDecoratedName@UnDecorator@@CA?AVDName@@XZ 10084659 f   libvcruntime:undname.obj
 0001:00083753       ?raw_length@pDNameNode@@UBEHXZ 10084753 f i libvcruntime:undname.obj
 0001:00083757       ?raw_length@pairNode@@UBEHXZ 10084757 f i libvcruntime:undname.obj
 0001:000837ad       ___unDName                 100847ad f   libvcruntime:undname.obj
 0001:000837d0       ___unDNameEx               100847d0 f   libvcruntime:undname.obj
 0001:00083870       __local_unwind4            10084870 f   libvcruntime:exsup4.obj
 0001:00083948       __seh_longjmp_unwind4@4    10084948 f   libvcruntime:exsup4.obj
 0001:00083970       @_EH4_CallFilterFunc@8     10084970 f   libvcruntime:exsup4.obj
 0001:00083988       @_EH4_TransferToHandler@8  10084988 f   libvcruntime:exsup4.obj
 0001:000839a4       @_EH4_GlobalUnwind2@8      100849a4 f   libvcruntime:exsup4.obj
 0001:000839c0       @_EH4_LocalUnwind@16       100849c0 f   libvcruntime:exsup4.obj
 0001:000839d7       ___vcrt_initialize_locks   100849d7 f   libvcruntime:locks.obj
 0001:00083a13       ___vcrt_lock               10084a13 f   libvcruntime:locks.obj
 0001:00083a28       ___vcrt_uninitialize_locks 10084a28 f   libvcruntime:locks.obj
 0001:00083a57       ___vcrt_unlock             10084a57 f   libvcruntime:locks.obj
 0001:00083b61       ___vcrt_FlsAlloc           10084b61 f   libvcruntime:winapi_downlevel.obj
 0001:00083b9c       ___vcrt_FlsFree            10084b9c f   libvcruntime:winapi_downlevel.obj
 0001:00083bd7       ___vcrt_FlsGetValue        10084bd7 f   libvcruntime:winapi_downlevel.obj
 0001:00083c12       ___vcrt_FlsSetValue        10084c12 f   libvcruntime:winapi_downlevel.obj
 0001:00083c50       ___vcrt_InitializeCriticalSectionEx 10084c50 f   libvcruntime:winapi_downlevel.obj
 0001:00083c97       _unexpected                10084c97 f   libvcruntime:unexpected.obj
 0001:00083cb4       ?GetCurrentState@__FrameHandler3@@SAHPAUEHRegistrationNode@@PAXPBU_s_FuncInfo@@@Z 10084cb4 f   libvcruntime:ehstate.obj
 0001:00083cd1       ?SetState@__FrameHandler3@@SAXPAUEHRegistrationNode@@PBU_s_FuncInfo@@H@Z 10084cd1 f   libvcruntime:ehstate.obj
 0001:00083ce0       __global_unwind2           10084ce0 f   libvcruntime:exsup.obj
 0001:00083d46       __local_unwind2            10084d46 f   libvcruntime:exsup.obj
 0001:00083dca       __abnormal_termination     10084dca f   libvcruntime:exsup.obj
 0001:00083df0       __NLG_Notify1              10084df0 f   libvcruntime:exsup.obj
 0001:00083dfc       __NLG_Notify               10084dfc f   libvcruntime:exsup.obj
 0001:00083e13       __NLG_Dispatch             10084e13     libvcruntime:exsup.obj
 0001:00083e13       __NLG_Dispatch2            10084e13     libvcruntime:exsup.obj
 0001:00083e1b       __NLG_Call                 10084e1b f   libvcruntime:exsup.obj
 0001:00083e1d       __NLG_Return2              10084e1d     libvcruntime:exsup.obj
 0001:00083e1e       ___acrt_call_reportfault   10084e1e f   libucrt:invalid_parameter.obj
 0001:00083f57       ___acrt_initialize_invalid_parameter_handler 10084f57 f   libucrt:invalid_parameter.obj
 0001:00083f66       __invalid_parameter        10084f66 f   libucrt:invalid_parameter.obj
 0001:00083fca       __invalid_parameter_noinfo 10084fca f   libucrt:invalid_parameter.obj
 0001:00083fda       __invalid_parameter_noinfo_noreturn 10084fda f   libucrt:invalid_parameter.obj
 0001:00083ff7       __invoke_watson            10084ff7 f   libucrt:invalid_parameter.obj
 0001:0008422c       __i64tow                   1008522c f   libucrt:xtoa.obj
 0001:0008426d       __itow_s                   1008526d f   libucrt:xtoa.obj
 0001:000842a0       __ui64tow                  100852a0 f   libucrt:xtoa.obj
 0001:000842c2       _wcscpy_s                  100852c2 f   libucrt:wcscpy_s.obj
 0001:00084326       ??0_LocaleUpdate@@QAE@QAU__crt_locale_pointers@@@Z 10085326 f i libucrt:wcsicmp.obj
 0001:000843a9       ??1_LocaleUpdate@@QAE@XZ   100853a9 f i libucrt:wcsicmp.obj
 0001:000843b9       ___ascii_wcsicmp           100853b9 f   libucrt:wcsicmp.obj
 0001:000843f6       __towlower_internal        100853f6 f i libucrt:wcsicmp.obj
 0001:00084435       __wcsicmp                  10085435 f   libucrt:wcsicmp.obj
 0001:0008447e       __wcsicmp_l                1008547e f   libucrt:wcsicmp.obj
 0001:00084536       __tolower_l                10085536 f   libucrt:tolower_toupper.obj
 0001:0008463a       _tolower                   1008563a f   libucrt:tolower_toupper.obj
 0001:0008466a       _terminate                 1008566a f   libucrt:terminate.obj
 0001:000846a6       _free                      100856a6 f   libucrt:free.obj
 0001:000848b7       ??$count@D@formatting_buffer@__crt_stdio_output@@QBEIXZ 100858b7 f i libucrt:output.obj
 0001:000848cf       ??$ensure_buffer_is_big_enough@D@formatting_buffer@__crt_stdio_output@@QAE_NI@Z 100858cf f i libucrt:output.obj
 0001:0008494c       ??$is_wide_character_specifier@D@__crt_stdio_output@@YA_N_KDW4length_modifier@0@@Z 1008594c f i libucrt:output.obj
 0001:0008497d       ??$scratch_data@D@formatting_buffer@__crt_stdio_output@@QAEPADXZ 1008597d f i libucrt:output.obj
 0001:0008499b       ??$type_case_integer_parse_into_buffer@I@?$output_processor@DV?$string_output_adapter@D@__crt_stdio_output@@V?$format_validation_base@DV?$string_output_adapter@D@__crt_stdio_output@@@2@@__crt_stdio_output@@AAEXII_N@Z 1008599b f i libucrt:output.obj
 0001:00084a0e       ??$type_case_integer_parse_into_buffer@_K@?$output_processor@DV?$string_output_adapter@D@__crt_stdio_output@@V?$format_validation_base@DV?$string_output_adapter@D@__crt_stdio_output@@@2@@__crt_stdio_output@@AAEX_KI_N@Z 10085a0e f i libucrt:output.obj
 0001:00084a9c       ??$write_multiple_characters@V?$string_output_adapter@D@__crt_stdio_output@@D@__crt_stdio_output@@YAXABV?$string_output_adapter@D@0@DHQAH@Z 10085a9c f i libucrt:output.obj
 0001:00084ac8       ??0?$common_data@D@__crt_stdio_output@@IAE@XZ 10085ac8 f i libucrt:output.obj
 0001:00084b0d       ??0?$output_adapter_data@DV?$string_output_adapter@D@__crt_stdio_output@@@__crt_stdio_output@@IAE@ABV?$string_output_adapter@D@1@_KQBDQAU__crt_locale_pointers@@QAD@Z 10085b0d f i libucrt:output.obj
 0001:00084b49       ??1formatting_buffer@__crt_stdio_output@@QAE@XZ 10085b49 f i libucrt:output.obj
 0001:00084b63       ??4?$__crt_unique_heap_ptr@DU__crt_internal_free_policy@@@@QAEAAV0@$$QAV0@@Z 10085b63 f i libucrt:output.obj
 0001:00084b87       ?crop_zeroes@__crt_stdio_output@@YAXPADQAU__crt_locale_pointers@@@Z 10085b87 f i libucrt:output.obj
 0001:00084be7       ?find_next_state@?$output_processor@DV?$string_output_adapter@D@__crt_stdio_output@@V?$format_validation_base@DV?$string_output_adapter@D@__crt_stdio_output@@@2@@__crt_stdio_output@@ABE?AW4state@2@DW432@@Z 10085be7 f i libucrt:output.obj
 0001:00084c27       ?force_decimal_point@__crt_stdio_output@@YAXPADQAU__crt_locale_pointers@@@Z 10085c27 f i libucrt:output.obj
 0001:00084c83       ?parse_int_from_format_string@?$output_processor@DV?$string_output_adapter@D@__crt_stdio_output@@V?$format_validation_base@DV?$string_output_adapter@D@__crt_stdio_output@@@2@@__crt_stdio_output@@AAE_NQAH@Z 10085c83 f i libucrt:output.obj
 0001:00084cf7       ?process@?$output_processor@DV?$string_output_adapter@D@__crt_stdio_output@@V?$format_validation_base@DV?$string_output_adapter@D@__crt_stdio_output@@@2@@__crt_stdio_output@@QAEHXZ 10085cf7 f i libucrt:output.obj
 0001:00084e1b       ?state_case_flag@?$output_processor@DV?$string_output_adapter@D@__crt_stdio_output@@V?$format_validation_base@DV?$string_output_adapter@D@__crt_stdio_output@@@2@@__crt_stdio_output@@AAE_NXZ 10085e1b f i libucrt:output.obj
 0001:00084e58       ?state_case_normal@?$output_processor@DV?$string_output_adapter@D@__crt_stdio_output@@V?$format_validation_base@DV?$string_output_adapter@D@__crt_stdio_output@@@2@@__crt_stdio_output@@AAE_NXZ 10085e58 f i libucrt:output.obj
 0001:00084e77       ?state_case_normal_common@?$output_processor@DV?$string_output_adapter@D@__crt_stdio_output@@V?$format_validation_base@DV?$string_output_adapter@D@__crt_stdio_output@@@2@@__crt_stdio_output@@AAE_NXZ 10085e77 f i libucrt:output.obj
 0001:00084ea1       ?state_case_normal_tchar@?$output_processor@DV?$string_output_adapter@D@__crt_stdio_output@@V?$format_validation_base@DV?$string_output_adapter@D@__crt_stdio_output@@@2@@__crt_stdio_output@@AAE_ND@Z 10085ea1 f i libucrt:output.obj
 0001:00084f05       ?state_case_precision@?$output_processor@DV?$string_output_adapter@D@__crt_stdio_output@@V?$format_validation_base@DV?$string_output_adapter@D@__crt_stdio_output@@@2@@__crt_stdio_output@@AAE_NXZ 10085f05 f i libucrt:output.obj
 0001:00084f2b       ?state_case_size@?$output_processor@DV?$string_output_adapter@D@__crt_stdio_output@@V?$format_validation_base@DV?$string_output_adapter@D@__crt_stdio_output@@@2@@__crt_stdio_output@@AAE_NXZ 10085f2b f i libucrt:output.obj
 0001:00085079       ?state_case_type@?$output_processor@DV?$string_output_adapter@D@__crt_stdio_output@@V?$format_validation_base@DV?$string_output_adapter@D@__crt_stdio_output@@@2@@__crt_stdio_output@@AAE_NXZ 10086079 f i libucrt:output.obj
 0001:000852ab       ?state_case_width@?$output_processor@DV?$string_output_adapter@D@__crt_stdio_output@@V?$format_validation_base@DV?$string_output_adapter@D@__crt_stdio_output@@@2@@__crt_stdio_output@@AAE_NXZ 100862ab f i libucrt:output.obj
 0001:000852d6       ?to_integer_size@__crt_stdio_output@@YAIW4length_modifier@1@@Z 100862d6 f i libucrt:output.obj
 0001:0008532a       ?type_case_Z@?$output_processor@DV?$string_output_adapter@D@__crt_stdio_output@@V?$format_validation_base@DV?$string_output_adapter@D@__crt_stdio_output@@@2@@__crt_stdio_output@@AAE_NXZ 1008632a f i libucrt:output.obj
 0001:00085384       ?type_case_a@?$output_processor@DV?$string_output_adapter@D@__crt_stdio_output@@V?$format_validation_base@DV?$string_output_adapter@D@__crt_stdio_output@@@2@@__crt_stdio_output@@AAE_NXZ 10086384 f i libucrt:output.obj
 0001:000854d3       ?type_case_c_tchar@?$output_processor@DV?$string_output_adapter@D@__crt_stdio_output@@V?$format_validation_base@DV?$string_output_adapter@D@__crt_stdio_output@@@2@@__crt_stdio_output@@AAE_ND@Z 100864d3 f i libucrt:output.obj
 0001:00085563       ?type_case_integer@?$output_processor@DV?$string_output_adapter@D@__crt_stdio_output@@V?$format_validation_base@DV?$string_output_adapter@D@__crt_stdio_output@@@2@@__crt_stdio_output@@AAE_NI_N@Z 10086563 f i libucrt:output.obj
 0001:000856b4       ?type_case_n@?$output_processor@DV?$string_output_adapter@D@__crt_stdio_output@@V?$format_validation_base@DV?$string_output_adapter@D@__crt_stdio_output@@@2@@__crt_stdio_output@@AAE_NXZ 100866b4 f i libucrt:output.obj
 0001:00085728       ?type_case_o@?$output_processor@DV?$string_output_adapter@D@__crt_stdio_output@@V?$format_validation_base@DV?$string_output_adapter@D@__crt_stdio_output@@@2@@__crt_stdio_output@@AAE_NXZ 10086728 f i libucrt:output.obj
 0001:00085747       ?type_case_p@?$output_processor@DV?$string_output_adapter@D@__crt_stdio_output@@V?$format_validation_base@DV?$string_output_adapter@D@__crt_stdio_output@@@2@@__crt_stdio_output@@AAE_NXZ 10086747 f i libucrt:output.obj
 0001:0008575f       ?type_case_s@?$output_processor@DV?$string_output_adapter@D@__crt_stdio_output@@V?$format_validation_base@DV?$string_output_adapter@D@__crt_stdio_output@@@2@@__crt_stdio_output@@AAE_NXZ 1008675f f i libucrt:output.obj
 0001:000857d0       ?validate@?$c_string_character_source@_W@__crt_strtox@@QBE_NXZ 100867d0 f i libucrt:strtox.obj
 0001:000857d0       ?validate@?$string_output_adapter@D@__crt_stdio_output@@QBE_NXZ 100867d0 f i libucrt:output.obj
 0001:000857d0       ?validate@?$c_string_character_source@D@__crt_strtox@@QBE_NXZ 100867d0 f i libucrt:strtox.obj
 0001:000857eb       ?validate_and_update_state_at_end_of_format_string@?$format_validation_base@DV?$string_output_adapter@D@__crt_stdio_output@@@__crt_stdio_output@@IBE_NXZ 100867eb f i libucrt:output.obj
 0001:0008580d       ?write_character@?$string_output_adapter@D@__crt_stdio_output@@QBE_NDQAH@Z 1008680d f i libucrt:output.obj
 0001:0008584f       ?write_stored_string_tchar@?$output_processor@DV?$string_output_adapter@D@__crt_stdio_output@@V?$format_validation_base@DV?$string_output_adapter@D@__crt_stdio_output@@@2@@__crt_stdio_output@@AAE_ND@Z 1008684f f i libucrt:output.obj
 0001:000858f6       ?write_string@?$string_output_adapter@D@__crt_stdio_output@@QBEXQBDHQAHAAV__crt_deferred_errno_cache@@@Z 100868f6 f i libucrt:output.obj
 0001:0008595d       ___acrt_locale_get_ctype_array_value 1008695d f i libucrt:output.obj
 0001:0008597f       ___stdio_common_vsprintf_s 1008697f f   libucrt:output.obj
 0001:000859a3       _frexp                     100869a3 f   libucrt:frexp.obj
 0001:00085aa0       _strcspn                   10086aa0 f   libucrt:strcspn.obj
 0001:00085ae6       _localeconv                10086ae6 f   libucrt:localeconv.obj
 0001:00085b0e       _calloc                    10086b0e f   libucrt:calloc.obj
 0001:00085b19       ??$is_overflow_condition@K@__crt_strtox@@YA_NIK@Z 10086b19 f i libucrt:strtox.obj
 0001:00085b4a       ??$is_overflow_condition@_K@__crt_strtox@@YA_NI_K@Z 10086b4a f i libucrt:strtox.obj
 0001:00085b8b       ??$make_c_string_character_source@DPAPAD@__crt_strtox@@YA?AV?$c_string_character_source@D@0@QBDQAPAD@Z 10086b8b f i libucrt:strtox.obj
 0001:00085b8b       ??$make_c_string_character_source@_WPAPA_W@__crt_strtox@@YA?AV?$c_string_character_source@_W@0@QB_WQAPA_W@Z 10086b8b f i libucrt:strtox.obj
 0001:00085ba6       ??$parse_integer@KV?$c_string_character_source@D@__crt_strtox@@@__crt_strtox@@YAKQAU__crt_locale_pointers@@V?$c_string_character_source@D@0@H_N@Z 10086ba6 f i libucrt:strtox.obj
 0001:00085dcb       ??$parse_integer@KV?$c_string_character_source@_W@__crt_strtox@@@__crt_strtox@@YAKQAU__crt_locale_pointers@@V?$c_string_character_source@_W@0@H_N@Z 10086dcb f i libucrt:strtox.obj
 0001:000863d3       ??$parse_integer@_KV?$c_string_character_source@_W@__crt_strtox@@@__crt_strtox@@YA_KQAU__crt_locale_pointers@@V?$c_string_character_source@_W@0@H_N@Z 100873d3 f i libucrt:strtox.obj
 0001:00086aa4       ?unget@?$c_string_character_source@D@__crt_strtox@@QAEXD@Z 10087aa4 f i libucrt:strtox.obj
 0001:00086acd       ?unget@?$c_string_character_source@_W@__crt_strtox@@QAEX_W@Z 10087acd f i libucrt:strtox.obj
 0001:00086afb       __ischartype_l             10087afb f i libucrt:strtox.obj
 0001:00086b4f       __wcstoui64                10087b4f f   libucrt:strtox.obj
 0001:00086b79       _strtol                    10087b79 f   libucrt:strtox.obj
 0001:00086ba3       _strtoul                   10087ba3 f   libucrt:strtox.obj
 0001:00086bcd       __memicmp                  10087bcd f   libucrt:memicmp.obj
 0001:00086c2f       __memicmp_l                10087c2f f   libucrt:memicmp.obj
 0001:00086ccd       __wtol                     10087ccd f   libucrt:atox.obj
 0001:00086ccd       __wtoi                     10087ccd f   libucrt:atox.obj
 0001:00086cf0       _atol                      10087cf0 f   libucrt:atox.obj
 0001:00086d13       _wcsncpy                   10087d13 f   libucrt:wcsncpy.obj
 0001:00086d56       ___acrt_initialize_heap    10087d56 f   libucrt:heap_handle.obj
 0001:00086d67       ___acrt_uninitialize_heap  10087d67 f   libucrt:heap_handle.obj
 0001:00086d71       __get_heap_handle          10087d71 f   libucrt:heap_handle.obj
 0001:00086d77       _malloc                    10087d77 f   libucrt:malloc.obj
 0001:00086fdc       _setlocale                 10087fdc f   libucrt:setlocale.obj
 0001:00087014       ___acrt_errno_from_os_error 10088014 f   libucrt:errno.obj
 0001:00087057       ___acrt_errno_map_os_error 10088057 f   libucrt:errno.obj
 0001:0008707a       ___doserrno                1008807a f   libucrt:errno.obj
 0001:0008708d       __errno                    1008808d f   libucrt:errno.obj
 0001:000870a0       ___acrt_initialize_locks   100880a0 f   libucrt:locks.obj
 0001:000870e1       ___acrt_lock               100880e1 f   libucrt:locks.obj
 0001:000870f8       ___acrt_uninitialize_locks 100880f8 f   libucrt:locks.obj
 0001:00087129       ___acrt_unlock             10088129 f   libucrt:locks.obj
 0001:00087140       __lock_locales             10088140 f   libucrt:locks.obj
 0001:0008714e       __unlock_locales           1008814e f   libucrt:locks.obj
 0001:00087157       ____lc_codepage_func       10088157 f   libucrt:initctype.obj
 0001:0008717c       ____lc_locale_name_func    1008817c f   libucrt:initctype.obj
 0001:000871a3       ____mb_cur_max_func        100881a3 f   libucrt:initctype.obj
 0001:000871c8       ___acrt_locale_initialize_ctype 100881c8 f   libucrt:initctype.obj
 0001:00087626       ___pctype_func             10088626 f   libucrt:ctype.obj
 0001:0008764a       __wcsdup                   1008864a f   libucrt:wcsdup.obj
 0001:000876b0       ?divide@__crt_strtox@@YA_KAAUbig_integer@1@ABU21@@Z 100886b0 f i libucrt:strtod.obj
 0001:00087bd0       __CIpow                    10088bd0 f   libucrt:pow_impl.obj
 0001:00087c0b       __CIpow_default            10088c0b f   libucrt:pow_impl.obj
 0001:00087c24       __pow_default              10088c24     libucrt:pow_impl.obj
 0001:00087e19       _abort                     10088e19 f   libucrt:abort.obj
 0001:00087e5d       ___strncnt                 10088e5d f   libucrt:strncnt.obj
 0001:00087e79       _strnlen                   10088e79 f   libucrt:strnlen.obj
 0001:00087f9b       _wcsnlen                   10088f9b f   libucrt:strnlen.obj
 0001:000881fd       ??$__acrt_mbs_to_wcs_cp@U__crt_win32_buffer_internal_dynamic_resizing@@@@YAHQBDAAV?$__crt_win32_buffer@_WU__crt_win32_buffer_internal_dynamic_resizing@@@@I@Z 100891fd f i libucrt:strftime.obj
 0001:0008821a       ?_deallocate@?$__crt_win32_buffer@DU__crt_win32_buffer_internal_dynamic_resizing@@@@AAEXXZ 1008921a f i libucrt:argv_wildcards.obj
 0001:0008821a       ?_deallocate@?$__crt_win32_buffer@_WU__crt_win32_buffer_internal_dynamic_resizing@@@@AAEXXZ 1008921a f i libucrt:strftime.obj
 0001:00088234       ?allocate@?$__crt_win32_buffer@DU__crt_win32_buffer_no_resizing@@@@QAEHI@Z 10089234 f i libucrt:strftime.obj
 0001:0008825b       ?allocate@?$__crt_win32_buffer@_WU__crt_win32_buffer_internal_dynamic_resizing@@@@QAEHI@Z 1008925b f i libucrt:strftime.obj
 0001:0008829a       ?allocate@__crt_win32_buffer_internal_dynamic_resizing@@SAHQAPAXIABV__crt_win32_buffer_empty_debug_info@@@Z 1008929a f i libucrt:strftime.obj
 0001:000882b9       ?set_to_nullptr@?$__crt_win32_buffer@DU__crt_win32_buffer_no_resizing@@@@QAEXXZ 100892b9 f i libucrt:strftime.obj
 0001:000882cd       ___initialize_lconv_for_unsigned_char 100892cd f   libucrt:lconv_unsigned_char_initialization.obj
 0001:000882fb       ___acrt_initialize_new_handler 100892fb f   libucrt:new_handler.obj
 0001:0008830a       __callnewh                 1008930a f   libucrt:new_handler.obj
 0001:00088337       __query_new_handler        10089337 f   libucrt:new_handler.obj
 0001:00088393       __seh_filter_dll           10089393 f   libucrt:exception_filter.obj
 0001:000883b3       __seh_filter_exe           100893b3 f   libucrt:exception_filter.obj
 0001:00088781       ___acrt_initialize_thread_local_exit_callback 10089781 f   libucrt:exit.obj
 0001:00088790       __cexit                    10089790 f   libucrt:exit.obj
 0001:0008879f       __exit                     1008979f f   libucrt:exit.obj
 0001:000887b5       __is_c_termination_complete 100897b5 f   libucrt:exit.obj
 0001:00088a69       ___acrt_allocate_buffer_for_argv 10089a69 f   libucrt:argv_parsing.obj
 0001:00088ab8       __configure_narrow_argv    10089ab8 f   libucrt:argv_parsing.obj
 0001:00088c15       ??$uninitialize@A6AXAAPAPAD@Z@?$dual_state_global@PAPAD@__crt_state_management@@QAEXA6AXAAPAPAD@Z@Z 10089c15 f i libucrt:environment_initialization.obj
 0001:00088c15       ??$uninitialize@A6AXAAPAPA_W@Z@?$dual_state_global@PAPA_W@__crt_state_management@@QAEXA6AXAAPAPA_W@Z@Z 10089c15 f i libucrt:environment_initialization.obj
 0001:00088c74       ___dcrt_uninitialize_environments_nolock 10089c74 f   libucrt:environment_initialization.obj
 0001:00088cab       __initialize_narrow_environment 10089cab f   libucrt:environment_initialization.obj
 0001:00088d66       ??$__crt_fast_encode_pointer@P6AHXZ@@YAP6AHXZQ6AHXZ@Z 10089d66 f i libucrt:onexit.obj
 0001:00088d66       ??$__crt_fast_encode_pointer@PAP6AXXZ@@YAPAP6AXXZQAP6AXXZ@Z 10089d66 f i libucrt:onexit.obj
 0001:00088d66       ??$__crt_fast_encode_pointer@P6GHPA_WKJ@Z@@YAP6GHPA_WKJ@ZQ6GH0KJ@Z@Z 10089d66 f i libucrt:winapi_thunks.obj
 0001:00088d66       ??$__crt_fast_encode_pointer@PAX@@YAPAXQAX@Z 10089d66 f i libucrt:initialization.obj
 0001:00088f88       __crt_atexit               10089f88 f   libucrt:onexit.obj
 0001:00088f9e       __execute_onexit_table     10089f9e f   libucrt:onexit.obj
 0001:00088fcb       __initialize_onexit_table  10089fcb f   libucrt:onexit.obj
 0001:00088ff4       __register_onexit_function 10089ff4 f   libucrt:onexit.obj
 0001:00089027       ___acrt_uninitialize_command_line 1008a027 f   libucrt:argv_data.obj
 0001:00089125       ___acrt_initialize         1008a125 f   libucrt:initialization.obj
 0001:00089137       ___acrt_thread_attach      1008a137 f   libucrt:initialization.obj
 0001:00089142       ___acrt_thread_detach      1008a142 f   libucrt:initialization.obj
 0001:0008914a       ___acrt_uninitialize       1008a14a f   libucrt:initialization.obj
 0001:0008917a       ___acrt_uninitialize_critical 1008a17a f   libucrt:initialization.obj
 0001:0008918c       __initterm                 1008a18c f   libucrt:initterm.obj
 0001:000891d1       __initterm_e               1008a1d1 f   libucrt:initterm.obj
 0001:000891ff       _strcpy_s                  1008a1ff f   libucrt:strcpy_s.obj
 0001:00089260       _strncmp                   1008a260 f   libucrt:strncmp.obj
 0001:000892d8       _wcsncmp                   1008a2d8 f   libucrt:wcsncmp.obj
 0001:00089650       ___acrt_freeptd            1008a650 f   libucrt:per_thread_data.obj
 0001:0008967c       ___acrt_getptd             1008a67c f   libucrt:per_thread_data.obj
 0001:00089739       ___acrt_getptd_head        1008a739 f   libucrt:per_thread_data.obj
 0001:000897d3       ___acrt_getptd_noexit      1008a7d3 f   libucrt:per_thread_data.obj
 0001:00089888       ___acrt_initialize_ptd     1008a888 f   libucrt:per_thread_data.obj
 0001:000898b4       ___acrt_uninitialize_ptd   1008a8b4 f   libucrt:per_thread_data.obj
 0001:000898ce       __towlower_l               1008a8ce f   libucrt:towlower.obj
 0001:00089970       ___acrt_update_locale_info 1008a970 f   libucrt:locale_update.obj
 0001:0008999d       ___acrt_update_multibyte_info 1008a99d f   libucrt:locale_update.obj
 0001:00089aca       ??0_expandlocale_locale_name_cache@@QAE@QA_WIQAU__crt_qualified_locale_data@@@Z 1008aaca f i libucrt:wsetlocale.obj
 0001:00089b14       ??1_expandlocale_locale_name_cache@@QAE@XZ 1008ab14 f i libucrt:wsetlocale.obj
 0001:00089cac       ?commit_locale_name@_expandlocale_locale_name_cache@@QAEXQB_WI@Z 1008acac f i libucrt:wsetlocale.obj
 0001:00089cf0       ?commit_locale_name_cache_already_updated@_expandlocale_locale_name_cache@@QAEXQB_WI@Z 1008acf0 f i libucrt:wsetlocale.obj
 0001:00089d25       ___acrt_copy_locale_name   1008ad25 f   libucrt:wsetlocale.obj
 0001:00089d85       ___acrt_set_locale_changed 1008ad85 f   libucrt:wsetlocale.obj
 0001:00089d90       ___acrt_uninitialize_locale 1008ad90 f   libucrt:wsetlocale.obj
 0001:00089db7       ___lc_lctowcs              1008adb7 f   libucrt:wsetlocale.obj
 0001:00089e27       ___lc_wcstolc              1008ae27 f   libucrt:wsetlocale.obj
 0001:0008a36c       __wcscats                  1008b36c f   libucrt:wsetlocale.obj
 0001:0008a3ad       __wsetlocale               1008b3ad f   libucrt:wsetlocale.obj
 0001:0008b0b2       __isleadbyte_l             1008c0b2 f i libucrt:_wctype.obj
 0001:0008b2d6       ___acrt_LCMapStringA       1008c2d6 f   libucrt:lcmapstringa.obj
 0001:0008b31f       __free_base                1008c31f f   libucrt:free_base.obj
 0001:0008b359       __malloc_base              1008c359 f   libucrt:malloc_base.obj
 0001:0008b3a7       __mbtowc_l                 1008c3a7 f   libucrt:mbtowc.obj
 0001:0008b4e9       _mbtowc                    1008c4e9 f   libucrt:mbtowc.obj
 0001:0008b503       __wctomb_s_l               1008c503 f   libucrt:wctomb.obj
 0001:0008b65e       _wctomb_s                  1008c65e f   libucrt:wctomb.obj
 0001:0008b67b       ?__acrt_fp_classify@@YA?AW4__acrt_fp_class@@ABN@Z 1008c67b f i libucrt:cvt.obj
 0001:0008bec6       ___acrt_fp_format          1008cec6 f   libucrt:cvt.obj
 0001:0008c001       __fileno                   1008d001 f   libucrt:fileno.obj
 0001:0008c028       ___acrt_initialize_stdio   1008d028 f   libucrt:_file.obj
 0001:0008c0f0       ___acrt_uninitialize_stdio 1008d0f0 f   libucrt:_file.obj
 0001:0008c13c       __lock_file                1008d13c f   libucrt:_file.obj
 0001:0008c150       __unlock_file              1008d150 f   libucrt:_file.obj
 0001:0008c164       __get_printf_count_output  1008d164 f   libucrt:printf_count_output.obj
 0001:0008c2e3       ___acrt_initialize_lowio   1008d2e3 f   libucrt:ioinit.obj
 0001:0008c343       ___acrt_uninitialize_lowio 1008d343 f   libucrt:ioinit.obj
 0001:0008c36f       __dsign                    1008d36f f   libucrt:nan.obj
 0001:0008c37f       __errcode                  1008d37f f   libucrt:fpexcept.obj
 0001:0008c3b3       __except1                  1008d3b3 f   libucrt:fpexcept.obj
 0001:0008c481       __handle_exc               1008d481 f   libucrt:fpexcept.obj
 0001:0008c66c       __raise_exc                1008d66c f   libucrt:fpexcept.obj
 0001:0008c68f       __raise_exc_ex             1008d68f f   libucrt:fpexcept.obj
 0001:0008c985       __set_errno_from_matherr   1008d985 f   libucrt:fpexcept.obj
 0001:0008c9b4       __umatherr                 1008d9b4 f   libucrt:fpexcept.obj
 0001:0008ca54       __decomp                   1008da54 f   libucrt:util.obj
 0001:0008cb26       __set_exp                  1008db26 f   libucrt:util.obj
 0001:0008cb53       __sptype                   1008db53 f   libucrt:util.obj
 0001:0008cbb1       __clrfp                    1008dbb1 f   libucrt:fpctrl.obj
 0001:0008cbc2       __ctrlfp                   1008dbc2 f   libucrt:fpctrl.obj
 0001:0008cbec       __set_statfp               1008dbec f   libucrt:fpctrl.obj
 0001:0008cc45       __statfp                   1008dc45 f   libucrt:fpctrl.obj
 0001:0008cc55       __calloc_base              1008dc55 f   libucrt:calloc_base.obj
 0001:0008ccb2       _iswctype                  1008dcb2 f   libucrt:iswctype.obj
 0001:0008cd1b       __isctype_l                1008dd1b f   libucrt:isctype.obj
 0001:0008cdf0       ___ascii_memicmp           1008ddf0 f   libucrt:_memicmp.obj
 0001:0008cfec       __mbstowcs_s_l             1008dfec f   libucrt:mbstowcs.obj
 0001:0008d0cc       _mbstowcs_s                1008e0cc f   libucrt:mbstowcs.obj
 0001:0008d395       __wcstombs_s_l             1008e395 f   libucrt:wcstombs.obj
 0001:0008d780       ___acrt_AppPolicyGetProcessTerminationMethodInternal@4 1008e780 f   libucrt:winapi_thunks.obj
 0001:0008d7c0       ___acrt_AreFileApisANSI@0  1008e7c0 f   libucrt:winapi_thunks.obj
 0001:0008d7df       ___acrt_EnumSystemLocalesEx@16 1008e7df f   libucrt:winapi_thunks.obj
 0001:0008d833       ___acrt_FlsAlloc@4         1008e833 f   libucrt:winapi_thunks.obj
 0001:0008d872       ___acrt_FlsFree@4          1008e872 f   libucrt:winapi_thunks.obj
 0001:0008d8b1       ___acrt_FlsGetValue@4      1008e8b1 f   libucrt:winapi_thunks.obj
 0001:0008d8f0       ___acrt_FlsSetValue@8      1008e8f0 f   libucrt:winapi_thunks.obj
 0001:0008d932       ___acrt_GetLocaleInfoEx@16 1008e932 f   libucrt:winapi_thunks.obj
 0001:0008d971       ___acrt_GetUserDefaultLocaleName@8 1008e971 f   libucrt:winapi_thunks.obj
 0001:0008d9ad       ___acrt_InitializeCriticalSectionEx@12 1008e9ad f   libucrt:winapi_thunks.obj
 0001:0008d9f8       ___acrt_IsValidLocaleName@4 1008e9f8 f   libucrt:winapi_thunks.obj
 0001:0008da30       ___acrt_LCIDToLocaleName@16 1008ea30 f   libucrt:winapi_thunks.obj
 0001:0008da6f       ___acrt_LCMapStringEx@36   1008ea6f f   libucrt:winapi_thunks.obj
 0001:0008dacc       ___acrt_LocaleNameToLCID@8 1008eacc f   libucrt:winapi_thunks.obj
 0001:0008dafd       ___acrt_can_use_vista_locale_apis 1008eafd f   libucrt:winapi_thunks.obj
 0001:0008db08       ___acrt_eagerly_load_locale_apis 1008eb08 f   libucrt:winapi_thunks.obj
 0001:0008db3f       ___acrt_initialize_winapi_thunks 1008eb3f f   libucrt:winapi_thunks.obj
 0001:0008db6a       ___acrt_uninitialize_winapi_thunks 1008eb6a f   libucrt:winapi_thunks.obj
 0001:0008dc7f       ___acrt_GetLocaleInfoA     1008ec7f f   libucrt:getlocaleinfoa.obj
 0001:0008de2f       ___acrt_GetStringTypeA     1008ee2f f   libucrt:getstringtypea.obj
 0001:0008df32       __fpclass                  1008ef32 f   libucrt:ieeemisc.obj
 0001:0008dfd6       __realloc_base             1008efd6 f   libucrt:realloc_base.obj
 0001:0008e03f       ___acrt_initialize_sse2    1008f03f f   libucrt:mathfcns.obj
 0001:0008e050       __CIpow_pentium4           1008f050 f   libucrt:pow_pentium4.obj
 0001:0008e069       __pow_pentium4             1008f069     libucrt:pow_pentium4.obj
 0001:0008eb90       __fFEXP                    1008fb90 f   libucrt:87tran.obj
 0001:0008ebe7       __rtinfpopse               1008fbe7     libucrt:87tran.obj
 0001:0008ebe9       __rtinfnpopse              1008fbe9     libucrt:87tran.obj
 0001:0008ebf9       __fFLN                     1008fbf9     libucrt:87tran.obj
 0001:0008ecae       __rtinfpop                 1008fcae     libucrt:87tran.obj
 0001:0008ecb0       __rtinfnpop                1008fcb0     libucrt:87tran.obj
 0001:0008ecc0       __rtforexpinf              1008fcc0 f   libucrt:87tran.obj
 0001:0008eccd       __ffexpm1                  1008fccd     libucrt:87tran.obj
 0001:0008ed80       __trandisp1                1008fd80 f   libucrt:87disp.obj
 0001:0008edf5       __trandisp2                1008fdf5 f   libucrt:87disp.obj
 0001:0008ee8f       __rttospopde               1008fe8f     libucrt:87disp.obj
 0001:0008ee94       __rttospop                 1008fe94     libucrt:87disp.obj
 0001:0008eea0       __rtnospop                 1008fea0 f   libucrt:87disp.obj
 0001:0008eeb0       __rttosnpop                1008feb0 f   libucrt:87disp.obj
 0001:0008eeb1       __rtnospopde               1008feb1     libucrt:87disp.obj
 0001:0008eeb8       __rtzeropop                1008feb8     libucrt:87disp.obj
 0001:0008eeba       __rtzeronpop               1008feba     libucrt:87disp.obj
 0001:0008eec0       __rtzerospop               1008fec0 f   libucrt:87disp.obj
 0001:0008eecd       __rtonepop                 1008fecd     libucrt:87disp.obj
 0001:0008eed0       __rtonenpop                1008fed0 f   libucrt:87disp.obj
 0001:0008eee0       __tosnan1                  1008fee0 f   libucrt:87disp.obj
 0001:0008ef10       __nosnan2                  1008ff10 f   libucrt:87disp.obj
 0001:0008ef20       __tosnan2                  1008ff20 f   libucrt:87disp.obj
 0001:0008ef50       __nan2                     1008ff50 f   libucrt:87disp.obj
 0001:0008ef90       __rtindfpop                1008ff90 f   libucrt:87disp.obj
 0001:0008ef92       __rtindfnpop               1008ff92     libucrt:87disp.obj
 0001:0008efa3       __rttosnpopde              1008ffa3     libucrt:87disp.obj
 0001:0008efb0       __rtatan2inf               1008ffb0 f   libucrt:87disp.obj
 0001:0008efcd       __rtchsifneg               1008ffcd     libucrt:87disp.obj
 0001:0008efe0       __startTwoArgErrorHandling 1008ffe0 f   libucrt:genexcep.obj
 0001:0008eff7       __startOneArgErrorHandling 1008fff7 f   libucrt:genexcep.obj
 0001:0008f040       __twoToTOS                 10090040 f   libucrt:common.obj
 0001:0008f055       __load_CW                  10090055 f   libucrt:common.obj
 0001:0008f06c       __convertTOStoQNaN         1009006c f   libucrt:common.obj
 0001:0008f085       __fload_withFB             10090085 f   libucrt:common.obj
 0001:0008f0c8       __checkTOS_withFB          100900c8 f   libucrt:common.obj
 0001:0008f0de       __fast_exit                100900de f   libucrt:common.obj
 0001:0008f0eb       __math_exit                100900eb f   libucrt:common.obj
 0001:0008f115       __check_overflow_exit      10090115 f   libucrt:common.obj
 0001:0008f129       __check_range_exit         10090129 f   libucrt:common.obj
 0001:0008f1cc       __d_inttype                100901cc f   libucrt:powhlp.obj
 0001:0008f234       __powhlp                   10090234 f   libucrt:powhlp.obj
 0001:0008f42d       ___acrt_get_sigabrt_handler 1009042d f   libucrt:signal.obj
 0001:0008f454       ___acrt_initialize_signal_handlers 10090454 f   libucrt:signal.obj
 0001:0008f472       ___fpecode                 10090472 f   libucrt:signal.obj
 0001:0008f47b       _raise                     1009047b f   libucrt:signal.obj
 0001:0008f676       ___acrt_MultiByteToWideChar 10090676 f   libucrt:multibytetowidechar.obj
 0001:0008f6f2       ___acrt_WideCharToMultiByte 100906f2 f   libucrt:widechartomultibyte.obj
 0001:0008f79f       ___acrt_initialize_timeset 1009079f f   libucrt:timeset.obj
 0001:0008f7ca       ___acrt_get_process_end_policy 100907ca f   libucrt:win_policies.obj
 0001:0008fdd9       ?__acrt_get_utf8_acp_compatibility_codepage@@YAIXZ 10090dd9 f i libucrt:argv_wildcards.obj
 0001:0008fe18       ?allocate@?$__crt_win32_buffer@DU__crt_win32_buffer_internal_dynamic_resizing@@@@QAEHI@Z 10090e18 f i libucrt:argv_wildcards.obj
 0001:0008fedb       ___acrt_expand_narrow_argv_wildcards 10090edb f   libucrt:argv_wildcards.obj
 0001:0008ffad       ___acrt_GetModuleFileNameA 10090fad f   libucrt:getmodulefilenamea.obj
 0001:0009056c       ___acrt_initialize_multibyte 1009156c f   libucrt:mbctype.obj
 0001:000905b4       ___acrt_update_thread_multibyte_data 100915b4 f   libucrt:mbctype.obj
 0001:000905c7       __setmbcp_nolock           100915c7 f   libucrt:mbctype.obj
 0001:00090811       __ismbblead                10091811 f   libucrt:ismbbyte.obj
 0001:00090829       ___acrt_initialize_command_line 10091829 f   libucrt:argv_data.obj
 0001:00090879       ___dcrt_get_narrow_environment_from_os 10091879 f   libucrt:get_environment_from_os.obj
 0001:000908fd       __recalloc_base            100918fd f   libucrt:recalloc.obj
 0001:0009096a       ___acrt_execute_initializers 1009196a f   libucrt:shared_initialization.obj
 0001:000909d2       ___acrt_execute_uninitializers 100919d2 f   libucrt:shared_initialization.obj
 0001:00090a03       ___acrt_has_user_matherr   10091a03 f   libucrt:matherr.obj
 0001:00090a1b       ___acrt_initialize_user_matherr 10091a1b f   libucrt:matherr.obj
 0001:00090a2a       ___acrt_invoke_user_matherr 10091a2a f   libucrt:matherr.obj
 0001:00090c39       ___acrt_stdio_flush_nolock 10091c39 f   libucrt:fflush.obj
 0001:00090c9e       __fflush_nolock            10091c9e f   libucrt:fflush.obj
 0001:00090ce6       __flushall                 10091ce6 f   libucrt:fflush.obj
 0001:00090cef       ___acrt_add_locale_ref     10091cef f   libucrt:locale_refcounting.obj
 0001:00090d6c       ___acrt_free_locale        10091d6c f   libucrt:locale_refcounting.obj
 0001:00090eb4       ___acrt_locale_add_lc_time_reference 10091eb4 f   libucrt:locale_refcounting.obj
 0001:00090edd       ___acrt_locale_free_lc_time_if_unreferenced 10091edd f   libucrt:locale_refcounting.obj
 0001:00090f0e       ___acrt_locale_release_lc_time_reference 10091f0e f   libucrt:locale_refcounting.obj
 0001:00090f37       ___acrt_release_locale_ref 10091f37 f   libucrt:locale_refcounting.obj
 0001:00090fb8       ___acrt_update_thread_locale_data 10091fb8 f   libucrt:locale_refcounting.obj
 0001:00091039       __updatetlocinfoEx_nolock  10092039 f   libucrt:locale_refcounting.obj
 0001:00091089       ___acrt_LCMapStringW       10092089 f   libucrt:lcmapstringw.obj
 0001:000910c7       ___acrt_locale_free_monetary 100920c7 f   libucrt:initmon.obj
 0001:000911c5       ___acrt_locale_initialize_monetary 100921c5 f   libucrt:initmon.obj
 0001:0009157c       ___acrt_locale_free_numeric 1009257c f   libucrt:initnum.obj
 0001:000915e5       ___acrt_locale_initialize_numeric 100925e5 f   libucrt:initnum.obj
 0001:00091aa8       ___acrt_locale_free_time   10092aa8 f   libucrt:inittime.obj
 0001:00091b8c       ___acrt_locale_initialize_time 10092b8c f   libucrt:inittime.obj
 0001:00091c07       _wcscat_s                  10092c07 f   libucrt:wcscat_s.obj
 0001:00091d63       _wcsncat_s                 10092d63 f   libucrt:wcsncat_s.obj
 0001:00091e39       _wcsncpy_s                 10092e39 f   libucrt:wcsncpy_s.obj
 0001:00091e44       _wcscspn                   10092e44 f   libucrt:wcscspn.obj
 0001:00091e9d       _wcspbrk                   10092e9d f   libucrt:wcspbrk.obj
 0001:000925e7       ___acrt_get_qualified_locale 100935e7 f   libucrt:get_qualified_locale.obj
 0001:00092f48       ___acrt_get_qualified_locale_downlevel 10093f48 f   libucrt:getqloc_downlevel.obj
 0001:0009313d       __query_new_mode           1009413d f   libucrt:new_mode.obj
 0001:00093170       ?__mbrtowc_utf8@__crt_mbstring@@YAIPA_WPBDIPAU_Mbstatet@@@Z 10094170 f   libucrt:mbrtowc.obj
 0001:000931b0       ?__mbsrtowcs_utf8@__crt_mbstring@@YAIPA_WPAPBDIPAU_Mbstatet@@@Z 100941b0 f   libucrt:mbrtowc.obj
 0001:000932ab       ?__c32rtomb_utf8@__crt_mbstring@@YAIPAD_UPAU_Mbstatet@@@Z 100942ab f   libucrt:c32rtomb.obj
 0001:00093356       ?return_illegal_sequence@__crt_mbstring@@YAIPAU_Mbstatet@@@Z 10094356 f i libucrt:c32rtomb.obj
 0001:00093375       _c32rtomb                  10094375 f   libucrt:c32rtomb.obj
 0001:00093380       ___acrt_fp_strflt_to_string 10094380 f   libucrt:_fptostr.obj
 0001:00093440       ___acrt_fltout             10094440 f   libucrt:cfout.obj
 0001:0009478a       __fcloseall                1009578a f   libucrt:closeall.obj
 0001:00094835       ___acrt_stdio_free_buffer_nolock 10095835 f   libucrt:_freebuf.obj
 0001:00094875       __isatty                   10095875 f   libucrt:isatty.obj
 0001:000948cb       ___acrt_lowio_create_handle_array 100958cb f   libucrt:osfinfo.obj
 0001:00094946       ___acrt_lowio_destroy_handle_array 10095946 f   libucrt:osfinfo.obj
 0001:0009497b       ___acrt_lowio_ensure_fh_exists 1009597b f   libucrt:osfinfo.obj
 0001:00094a19       ___acrt_lowio_lock_fh      10095a19 f   libucrt:osfinfo.obj
 0001:00094a3c       ___acrt_lowio_unlock_fh    10095a3c f   libucrt:osfinfo.obj
 0001:00094a5f       __free_osfhnd              10095a5f f   libucrt:osfinfo.obj
 0001:00094af0       __get_osfhandle            10095af0 f   libucrt:osfinfo.obj
 0001:00094b5a       ___acrt_GetStringTypeW     10095b5a f   libucrt:getstringtypew.obj
 0001:00094b73       ?__wcsrtombs_utf8@__crt_mbstring@@YAIPADPAPB_WIPAU_Mbstatet@@@Z 10095b73 f   libucrt:wcrtomb.obj
 0001:00094cc1       ___acrt_DownlevelLCIDToLocaleName 10095cc1 f   libucrt:lcidtoname_downlevel.obj
 0001:00094d6b       ___acrt_DownlevelLocaleNameToLCID 10095d6b f   libucrt:lcidtoname_downlevel.obj
 0001:00094e4a       _strncpy_s                 10095e4a f   libucrt:strncpy_s.obj
 0001:00095162       ___acrt_fenv_get_control   10096162 f   libucrt:_fenvutils.obj
 0001:000951e2       ___acrt_fenv_get_status    100961e2 f   libucrt:_fenvutils.obj
 0001:0009529a       ___acrt_fenv_set_control   1009629a f   libucrt:_fenvutils.obj
 0001:00095302       ___acrt_fenv_set_status    10096302 f   libucrt:_fenvutils.obj
 0001:000953f9       ___libm_error_support      100963f9 f   libucrt:libm_error.obj
 0001:000955ed       __87except                 100965ed f   libucrt:87except.obj
 0001:000956f7       __frnd                     100966f7 f   libucrt:frnd.obj
 0001:00095750       _qsort                     10096750 f   libucrt:qsort.obj
 0001:00095ba0       _strpbrk                   10096ba0 f   libucrt:strpbrk.obj
 0001:00095be0       __mbsdec                   10096be0 f   libucrt:mbsdec.obj
 0001:00095bf7       __mbsdec_l                 10096bf7 f   libucrt:mbsdec.obj
 0001:00095c93       __msize_base               10096c93 f   libucrt:msize.obj
 0001:00095d68       __commit                   10096d68 f   libucrt:commit.obj
 0001:0009655e       __write                    1009755e f   libucrt:write.obj
 0001:00096650       __write_nolock             10097650 f   libucrt:write.obj
 0001:00096832       ___ascii_wcsnicmp          10097832 f   libucrt:wcsnicmp.obj
 0001:00096881       __wcsnicmp                 10097881 f   libucrt:wcsnicmp.obj
 0001:000968cd       __wcsnicmp_l               100978cd f   libucrt:wcsnicmp.obj
 0001:000969a0       ?__mbrtoc32_utf8@__crt_mbstring@@YAIPA_UPBDIPAU_Mbstatet@@@Z 100979a0 f   libucrt:mbrtoc32.obj
 0001:00096b47       _fegetenv                  10097b47 f   libucrt:fegetenv.obj
 0001:00096b64       _fesetenv                  10097b64 f   libucrt:fesetenv.obj
 0001:00096baf       _feholdexcept              10097baf f   libucrt:feholdexcept.obj
 0001:00096c00       __CIlog10                  10097c00 f   libucrt:log10_impl.obj
 0001:00096c3b       __CIlog10_default          10097c3b f   libucrt:log10_impl.obj
 0001:00096c4f       __log10_default            10097c4f     libucrt:log10_impl.obj
 0001:00096d10       _ceil                      10097d10 f   libucrt:ceil_pentium4.obj
 0001:00096d50       __ceil_pentium4            10097d50 f   libucrt:ceil_pentium4.obj
 0001:00096ea9       __lseeki64_nolock          10097ea9 f   libucrt:lseek.obj
 0001:00096ec4       __fclose_nolock            10097ec4 f   libucrt:fclose.obj
 0001:00096f3b       _fclose                    10097f3b f   libucrt:fclose.obj
 0001:00096fbf       __query_app_type           10097fbf f   libucrt:report_runtime_error.obj
 0001:00096fc5       ?__c16rtomb_utf8@__crt_mbstring@@YAIPAD_SPAU_Mbstatet@@@Z 10097fc5 f   libucrt:c16rtomb.obj
 0001:0009705f       __putwch_nolock            1009805f f   libucrt:putwch.obj
 0001:00097091       __clearfp                  10098091 f   libucrt:ieee87.obj
 0001:00097170       __CIlog10_pentium4         10098170 f   libucrt:log10_pentium4.obj
 0001:00097188       __log10_pentium4           10098188     libucrt:log10_pentium4.obj
 0001:00097400       __ceil_default             10098400 f   libucrt:ceil.obj
 0001:00097541       __close                    10098541 f   libucrt:close.obj
 0001:000975ce       __close_nolock             100985ce f   libucrt:close.obj
 0001:0009766a       ?__acrt_stdio_free_stream@@YAXV__crt_stdio_stream@@@Z 1009866a f   libucrt:stream.obj
 0001:000976b0       ___ascii_strnicmp          100986b0 f   libucrt:_strnicm.obj
 0001:00097730       ___dcrt_lowio_ensure_console_output_initialized 10098730 f   libucrt:initcon.obj
 0001:0009774f       ___dcrt_terminate_console_output 1009874f f   libucrt:initcon.obj
 0001:00097766       ___dcrt_write_console      10098766 f   libucrt:initcon.obj
 0001:000977bb       _IsProcessorFeaturePresent@4 100987bb f   kernel32:KERNEL32.dll
 0001:000977d0       __FindPESection            100987d0 f   LIBCMT:pesect.obj
 0001:00097820       __IsNonwritableInCurrentImage 10098820 f   LIBCMT:pesect.obj
 0001:000978e0       __ValidateImageBase        100988e0 f   LIBCMT:pesect.obj
 0001:00097920       __aulldvrm                 10098920 f   LIBCMT:ulldvrm.obj
 0001:000979c0       __allshl                   100989c0 f   LIBCMT:llshl.obj
 0001:000979e0       __aullshr                  100989e0 f   LIBCMT:ullshr.obj
 0001:00097a00       __alldvrm                  10098a00 f   LIBCMT:lldvrm.obj
 0001:00097ae0       __ftol2_sse_excpt          10098ae0     LIBCMT:ftol2.obj
 0001:00097ae0       __ftoi2                    10098ae0 f   LIBCMT:ftol2.obj
 0001:00097ae0       __ftol2_sse                10098ae0     LIBCMT:ftol2.obj
 0001:00097b60       __ftoui2                   10098b60 f   LIBCMT:ftol2.obj
 0001:00097c10       __ftol2                    10098c10 f   LIBCMT:ftol2.obj
 0001:00097cc0       __ftoul2                   10098cc0 f   LIBCMT:ftol2.obj
 0001:00097d80       _strrchr                   10098d80 f   libvcruntime:strrchr.obj
 0001:00097ec0       _strchr                    10098ec0 f   libvcruntime:strchr.obj
 0001:00097f2e       ___from_strstr_to_strchr   10098f2e     libvcruntime:strchr.obj
 0001:00097feb       __filter_x86_sse2_floating_point_exception_default 10098feb f   LIBCMT:x86_exception_filter.obj
 0001:00097feb       __filter_x86_sse2_floating_point_exception 10098feb f   LIBCMT:x86_exception_filter.obj
 0001:00098070       __aullrem                  10099070 f   LIBCMT:ullrem.obj
 0001:000a1410       ??__Fbatch_options@?1??extract@Plugin@@QAEXABVPluginPanelItemAccessor@1@AAV?$basic_string@_WU?$char_traits@_W@std@@V?$allocator@_W@2@@std@@_N_K@Z@YAXXZ 100a2410 f i plugin.obj
 0002:00000000       __imp__RegQueryValueExW@24 100a3000     advapi32:ADVAPI32.dll
 0002:00000004       __imp__RegOpenKeyExW@20    100a3004     advapi32:ADVAPI32.dll
 0002:00000008       __imp__RegCloseKey@4       100a3008     advapi32:ADVAPI32.dll
 0002:0000000c       \177ADVAPI32_NULL_THUNK_DATA 100a300c     advapi32:ADVAPI32.dll
 0002:00000010       __imp__LeaveCriticalSection@4 100a3010     kernel32:KERNEL32.dll
 0002:00000014       __imp__SetThreadExecutionState@4 100a3014     kernel32:KERNEL32.dll
 0002:00000018       __imp__GlobalMemoryStatus@4 100a3018     kernel32:KERNEL32.dll
 0002:0000001c       __imp__VirtualAlloc@16     100a301c     kernel32:KERNEL32.dll
 0002:00000020       __imp__GetLastError@0      100a3020     kernel32:KERNEL32.dll
 0002:00000024       __imp__VirtualFree@12      100a3024     kernel32:KERNEL32.dll
 0002:00000028       __imp__GetDiskFreeSpaceW@20 100a3028     kernel32:KERNEL32.dll
 0002:0000002c       __imp__DeviceIoControl@32  100a302c     kernel32:KERNEL32.dll
 0002:00000030       __imp__MultiByteToWideChar@24 100a3030     kernel32:KERNEL32.dll
 0002:00000034       __imp__WideCharToMultiByte@32 100a3034     kernel32:KERNEL32.dll
 0002:00000038       __imp__VirtualQuery@12     100a3038     kernel32:KERNEL32.dll
 0002:0000003c       __imp__VirtualProtect@16   100a303c     kernel32:KERNEL32.dll
 0002:00000040       __imp__GetModuleHandleA@4  100a3040     kernel32:KERNEL32.dll
 0002:00000044       __imp__GetCPInfo@8         100a3044     kernel32:KERNEL32.dll
 0002:00000048       __imp__GetOEMCP@0          100a3048     kernel32:KERNEL32.dll
 0002:0000004c       __imp__GetACP@0            100a304c     kernel32:KERNEL32.dll
 0002:00000050       __imp__FindResourceExW@16  100a3050     kernel32:KERNEL32.dll
 0002:00000054       __imp__LoadResource@8      100a3054     kernel32:KERNEL32.dll
 0002:00000058       __imp__LockResource@4      100a3058     kernel32:KERNEL32.dll
 0002:0000005c       __imp__EnumResourceNamesW@16 100a305c     kernel32:KERNEL32.dll
 0002:00000060       __imp__EnumResourceLanguagesW@20 100a3060     kernel32:KERNEL32.dll
 0002:00000064       __imp__LoadLibraryExW@12   100a3064     kernel32:KERNEL32.dll
 0002:00000068       __imp__BeginUpdateResourceW@8 100a3068     kernel32:KERNEL32.dll
 0002:0000006c       __imp__EndUpdateResourceW@8 100a306c     kernel32:KERNEL32.dll
 0002:00000070       __imp__UpdateResourceW@24  100a3070     kernel32:KERNEL32.dll
 0002:00000074       __imp__InitializeCriticalSection@4 100a3074     kernel32:KERNEL32.dll
 0002:00000078       __imp__DeleteCriticalSection@4 100a3078     kernel32:KERNEL32.dll
 0002:0000007c       __imp__FormatMessageW@28   100a307c     kernel32:KERNEL32.dll
 0002:00000080       __imp__GetModuleHandleW@4  100a3080     kernel32:KERNEL32.dll
 0002:00000084       __imp__LocalFree@4         100a3084     kernel32:KERNEL32.dll
 0002:00000088       __imp__GetConsoleTitleW@8  100a3088     kernel32:KERNEL32.dll
 0002:0000008c       __imp__ExpandEnvironmentStringsW@12 100a308c     kernel32:KERNEL32.dll
 0002:00000090       __imp__CreateFileW@28      100a3090     kernel32:KERNEL32.dll
 0002:00000094       __imp__CloseHandle@4       100a3094     kernel32:KERNEL32.dll
 0002:00000098       __imp__EnterCriticalSection@4 100a3098     kernel32:KERNEL32.dll
 0002:0000009c       __imp__ReadFile@20         100a309c     kernel32:KERNEL32.dll
 0002:000000a0       __imp__WriteFile@20        100a30a0     kernel32:KERNEL32.dll
 0002:000000a4       __imp__SetFileTime@16      100a30a4     kernel32:KERNEL32.dll
 0002:000000a8       __imp__SetFilePointerEx@20 100a30a8     kernel32:KERNEL32.dll
 0002:000000ac       __imp__SetEndOfFile@4      100a30ac     kernel32:KERNEL32.dll
 0002:000000b0       __imp__GetFileInformationByHandle@8 100a30b0     kernel32:KERNEL32.dll
 0002:000000b4       __imp__GetFileAttributesW@4 100a30b4     kernel32:KERNEL32.dll
 0002:000000b8       __imp__SetFileAttributesW@8 100a30b8     kernel32:KERNEL32.dll
 0002:000000bc       __imp__DeleteFileW@4       100a30bc     kernel32:KERNEL32.dll
 0002:000000c0       __imp__CreateDirectoryW@8  100a30c0     kernel32:KERNEL32.dll
 0002:000000c4       __imp__RemoveDirectoryW@4  100a30c4     kernel32:KERNEL32.dll
 0002:000000c8       __imp__MoveFileExW@12      100a30c8     kernel32:KERNEL32.dll
 0002:000000cc       __imp__FindFirstFileW@8    100a30cc     kernel32:KERNEL32.dll
 0002:000000d0       __imp__FindClose@4         100a30d0     kernel32:KERNEL32.dll
 0002:000000d4       __imp__SetLastError@4      100a30d4     kernel32:KERNEL32.dll
 0002:000000d8       __imp__FindNextFileW@8     100a30d8     kernel32:KERNEL32.dll
 0002:000000dc       __imp__GetTempPathW@8      100a30dc     kernel32:KERNEL32.dll
 0002:000000e0       __imp__GetTempFileNameW@16 100a30e0     kernel32:KERNEL32.dll
 0002:000000e4       __imp__HeapSetInformation@16 100a30e4     kernel32:KERNEL32.dll
 0002:000000e8       __imp__SearchPathW@24      100a30e8     kernel32:KERNEL32.dll
 0002:000000ec       __imp__QueryPerformanceCounter@4 100a30ec     kernel32:KERNEL32.dll
 0002:000000f0       __imp__QueryPerformanceFrequency@4 100a30f0     kernel32:KERNEL32.dll
 0002:000000f4       __imp__GetPriorityClass@4  100a30f4     kernel32:KERNEL32.dll
 0002:000000f8       __imp__GetCurrentProcess@0 100a30f8     kernel32:KERNEL32.dll
 0002:000000fc       __imp__SetConsoleTitleW@4  100a30fc     kernel32:KERNEL32.dll
 0002:00000100       __imp__GetStdHandle@4      100a3100     kernel32:KERNEL32.dll
 0002:00000104       __imp__PeekConsoleInputW@16 100a3104     kernel32:KERNEL32.dll
 0002:00000108       __imp__ReadConsoleInputW@16 100a3108     kernel32:KERNEL32.dll
 0002:0000010c       __imp__SetPriorityClass@8  100a310c     kernel32:KERNEL32.dll
 0002:00000110       __imp__CompareFileTime@8   100a3110     kernel32:KERNEL32.dll
 0002:00000114       __imp__GetSystemTime@4     100a3114     kernel32:KERNEL32.dll
 0002:00000118       __imp__SystemTimeToFileTime@8 100a3118     kernel32:KERNEL32.dll
 0002:0000011c       __imp__CompareStringW@24   100a311c     kernel32:KERNEL32.dll
 0002:00000120       __imp__GetModuleFileNameW@12 100a3120     kernel32:KERNEL32.dll
 0002:00000124       __imp__GetCurrentThread@0  100a3124     kernel32:KERNEL32.dll
 0002:00000128       __imp__LCMapStringW@24     100a3128     kernel32:KERNEL32.dll
 0002:0000012c       __imp__GetThreadTimes@20   100a312c     kernel32:KERNEL32.dll
 0002:00000130       __imp__GetTimeFormatW@24   100a3130     kernel32:KERNEL32.dll
 0002:00000134       __imp__GetDateFormatW@24   100a3134     kernel32:KERNEL32.dll
 0002:00000138       __imp__FileTimeToSystemTime@8 100a3138     kernel32:KERNEL32.dll
 0002:0000013c       __imp__FileTimeToLocalFileTime@8 100a313c     kernel32:KERNEL32.dll
 0002:00000140       __imp__lstrcmpiW@8         100a3140     kernel32:KERNEL32.dll
 0002:00000144       __imp__GetProcAddress@8    100a3144     kernel32:KERNEL32.dll
 0002:00000148       __imp__LoadLibraryW@4      100a3148     kernel32:KERNEL32.dll
 0002:0000014c       __imp__GetFileSizeEx@8     100a314c     kernel32:KERNEL32.dll
 0002:00000150       __imp__FreeLibrary@4       100a3150     kernel32:KERNEL32.dll
 0002:00000154       __imp__GetConsoleMode@8    100a3154     kernel32:KERNEL32.dll
 0002:00000158       __imp__GetConsoleCP@0      100a3158     kernel32:KERNEL32.dll
 0002:0000015c       __imp__FlushFileBuffers@4  100a315c     kernel32:KERNEL32.dll
 0002:00000160       __imp__HeapSize@12         100a3160     kernel32:KERNEL32.dll
 0002:00000164       __imp__SetStdHandle@8      100a3164     kernel32:KERNEL32.dll
 0002:00000168       __imp__FreeEnvironmentStringsW@4 100a3168     kernel32:KERNEL32.dll
 0002:0000016c       __imp__GetEnvironmentStringsW@0 100a316c     kernel32:KERNEL32.dll
 0002:00000170       __imp__GetCommandLineW@0   100a3170     kernel32:KERNEL32.dll
 0002:00000174       __imp__GetCommandLineA@0   100a3174     kernel32:KERNEL32.dll
 0002:00000178       __imp__IsValidCodePage@4   100a3178     kernel32:KERNEL32.dll
 0002:0000017c       __imp__FindFirstFileExW@24 100a317c     kernel32:KERNEL32.dll
 0002:00000180       __imp__HeapReAlloc@16      100a3180     kernel32:KERNEL32.dll
 0002:00000184       __imp__EnumSystemLocalesW@8 100a3184     kernel32:KERNEL32.dll
 0002:00000188       __imp__GetStringTypeW@16   100a3188     kernel32:KERNEL32.dll
 0002:0000018c       __imp__InitializeCriticalSectionAndSpinCount@8 100a318c     kernel32:KERNEL32.dll
 0002:00000190       __imp__SwitchToThread@0    100a3190     kernel32:KERNEL32.dll
 0002:00000194       __imp__TlsAlloc@0          100a3194     kernel32:KERNEL32.dll
 0002:00000198       __imp__TlsGetValue@4       100a3198     kernel32:KERNEL32.dll
 0002:0000019c       __imp__TlsSetValue@8       100a319c     kernel32:KERNEL32.dll
 0002:000001a0       __imp__TlsFree@4           100a31a0     kernel32:KERNEL32.dll
 0002:000001a4       __imp__GetSystemTimeAsFileTime@4 100a31a4     kernel32:KERNEL32.dll
 0002:000001a8       __imp__GetLocaleInfoW@16   100a31a8     kernel32:KERNEL32.dll
 0002:000001ac       __imp__UnhandledExceptionFilter@4 100a31ac     kernel32:KERNEL32.dll
 0002:000001b0       __imp__SetUnhandledExceptionFilter@4 100a31b0     kernel32:KERNEL32.dll
 0002:000001b4       __imp__TerminateProcess@8  100a31b4     kernel32:KERNEL32.dll
 0002:000001b8       __imp__IsProcessorFeaturePresent@4 100a31b8     kernel32:KERNEL32.dll
 0002:000001bc       __imp__IsDebuggerPresent@0 100a31bc     kernel32:KERNEL32.dll
 0002:000001c0       __imp__GetStartupInfoW@4   100a31c0     kernel32:KERNEL32.dll
 0002:000001c4       __imp__GetCurrentProcessId@0 100a31c4     kernel32:KERNEL32.dll
 0002:000001c8       __imp__GetCurrentThreadId@0 100a31c8     kernel32:KERNEL32.dll
 0002:000001cc       __imp__RtlUnwind@16        100a31cc     kernel32:KERNEL32.dll
 0002:000001d0       __imp__RaiseException@16   100a31d0     kernel32:KERNEL32.dll
 0002:000001d4       __imp__GetProcessHeap@0    100a31d4     kernel32:KERNEL32.dll
 0002:000001d8       __imp__ExitProcess@4       100a31d8     kernel32:KERNEL32.dll
 0002:000001dc       __imp__HeapFree@12         100a31dc     kernel32:KERNEL32.dll
 0002:000001e0       __imp__HeapAlloc@12        100a31e0     kernel32:KERNEL32.dll
 0002:000001e4       __imp__GetFileType@4       100a31e4     kernel32:KERNEL32.dll
 0002:000001e8       __imp__IsValidLocale@8     100a31e8     kernel32:KERNEL32.dll
 0002:000001ec       __imp__GetUserDefaultLCID@0 100a31ec     kernel32:KERNEL32.dll
 0002:000001f0       __imp__WriteConsoleW@20    100a31f0     kernel32:KERNEL32.dll
 0002:000001f4       \177KERNEL32_NULL_THUNK_DATA 100a31f4     kernel32:KERNEL32.dll
 0002:000001f8       __imp__SysStringLen@4      100a31f8     oleaut32:OLEAUT32.dll
 0002:000001fc       __imp__SysStringByteLen@4  100a31fc     oleaut32:OLEAUT32.dll
 0002:00000200       __imp__SysFreeString@4     100a3200     oleaut32:OLEAUT32.dll
 0002:00000204       __imp__SysAllocStringLen@8 100a3204     oleaut32:OLEAUT32.dll
 0002:00000208       \177OLEAUT32_NULL_THUNK_DATA 100a3208     oleaut32:OLEAUT32.dll
 0002:0000020c       __imp__CharUpperW@4        100a320c     user32:USER32.dll
 0002:00000210       __imp__CharUpperBuffW@8    100a3210     user32:USER32.dll
 0002:00000214       \177USER32_NULL_THUNK_DATA 100a3214     user32:USER32.dll
 0002:00000218       __imp__VerQueryValueW@16   100a3218     version:VERSION.dll
 0002:0000021c       __imp__GetFileVersionInfoW@16 100a321c     version:VERSION.dll
 0002:00000220       __imp__GetFileVersionInfoSizeW@8 100a3220     version:VERSION.dll
 0002:00000224       \177VERSION_NULL_THUNK_DATA 100a3224     version:VERSION.dll
 0002:00000228       __imp__CoCreateGuid@4      100a3228     ole32:ole32.dll
 0002:0000022c       __imp__StringFromGUID2@12  100a322c     ole32:ole32.dll
 0002:00000230       __imp__PropVariantCopy@8   100a3230     ole32:ole32.dll
 0002:00000234       __imp__PropVariantClear@4  100a3234     ole32:ole32.dll
 0002:00000238       \177ole32_NULL_THUNK_DATA  100a3238     ole32:ole32.dll
 0002:0000023c       ___guard_check_icall_fptr  100a323c     LIBCMT:guard_support.obj
 0002:00000240       ___xc_a                    100a3240     LIBCMT:initializers.obj
 0002:000002a0       ___xc_z                    100a32a0     LIBCMT:initializers.obj
 0002:000002a4       ___xi_a                    100a32a4     LIBCMT:initializers.obj
 0002:000002b0       ___acrt_stdio_initializer  100a32b0     libucrt:stdio_initializer.obj
 0002:000002b4       ___acrt_tran_sse2_initializer 100a32b4     libucrt:sse2_initializer.obj
 0002:000002b8       ___acrt_timeset_initializer 100a32b8     libucrt:timeset_initializer.obj
 0002:000002bc       ___acrt_multibyte_initializer 100a32bc     libucrt:multibyte_initializer.obj
 0002:000002c0       ___xi_z                    100a32c0     LIBCMT:initializers.obj
 0002:000002c4       ___xp_a                    100a32c4     LIBCMT:initializers.obj
 0002:000002c8       ___acrt_locale_terminator  100a32c8     libucrt:locale_initializer.obj
 0002:000002cc       ___dcrt_console_output_terminator 100a32cc     libucrt:console_output_initializer.obj
 0002:000002d0       ___acrt_stdio_terminator   100a32d0     libucrt:stdio_initializer.obj
 0002:000002d4       ___xp_z                    100a32d4     LIBCMT:initializers.obj
 0002:000002d8       ___xt_a                    100a32d8     LIBCMT:initializers.obj
 0002:000002dc       ___xt_z                    100a32dc     LIBCMT:initializers.obj
 0002:000002e0       __imp__EncodePointer@4     100a32e0     vc_crt_fix.obj
 0002:000002e4       __imp__DecodePointer@4     100a32e4     vc_crt_fix.obj
 0002:000002e8       __imp__GetModuleHandleExW@12 100a32e8     vc_crt_fix.obj
 0002:000002ec       __imp__InitializeSListHead@4 100a32ec     vc_crt_fix.obj
 0002:000002f0       __imp__InterlockedFlushSList@4 100a32f0     vc_crt_fix.obj
 0002:000002f4       __imp__InterlockedPopEntrySList@4 100a32f4     vc_crt_fix.obj
 0002:000002f8       __imp__InterlockedPushEntrySList@8 100a32f8     vc_crt_fix.obj
 0002:000002fc       __imp__InterlockedPushListSListEx@16 100a32fc     vc_crt_fix.obj
 0002:00000300       __imp__RtlFirstEntrySList@4 100a3300     vc_crt_fix.obj
 0002:00000304       __imp__QueryDepthSList@4   100a3304     vc_crt_fix.obj
 0002:00000308       __imp__GetNumaHighestNodeNumber@4 100a3308     vc_crt_fix.obj
 0002:0000030c       __imp__GetLogicalProcessorInformation@8 100a330c     vc_crt_fix.obj
 0002:00000310       __imp__SetThreadStackGuarantee@4 100a3310     vc_crt_fix.obj
 0002:00000314       __imp__InitializeCriticalSectionEx@12 100a3314     vc_crt_fix.obj
 0002:00000318       __imp__CompareStringEx@36  100a3318     vc_crt_fix.obj
 0002:0000031c       __imp__LCMapStringEx@36    100a331c     vc_crt_fix.obj
 0002:00000320       _IID_IUnknown              100a3320     uuid:unknwn_i.obj
 0002:00000334       ??_7exception@std@@6B@     100a3334     libcpmt:xthrow.obj
 0002:00000340       ??_7bad_alloc@std@@6B@     100a3340     libcpmt:xthrow.obj
 0002:00000348       ??_C@_0P@GHFPNOJB@bad?5allocation@ 100a3348     libcpmt:xthrow.obj
 0002:0000035c       ??_7logic_error@std@@6B@   100a335c     libcpmt:xthrow.obj
 0002:00000368       ??_7length_error@std@@6B@  100a3368     libcpmt:xthrow.obj
 0002:00000374       ??_7out_of_range@std@@6B@  100a3374     libcpmt:xthrow.obj
 0002:00000380       ??_7runtime_error@std@@6B@ 100a3380     libcpmt:xthrow.obj
 0002:00000388       ?_BADOFF@std@@3_JB         100a3388     libcpmt:ios.obj
 0002:00000394       ??_7_Facet_base@std@@6B@   100a3394     libcpmt:locale0.obj
 0002:000003a4       ??_7_Locimp@locale@std@@6B@ 100a33a4     libcpmt:locale0.obj
 0002:000003b0       ??_C@_01NBENCBCI@?$CK@     100a33b0     libcpmt:locale0.obj
 0002:000003b4       ??_C@_01GFHCPBMG@C@        100a33b4     libcpmt:locale0.obj
 0002:00000890       ??_C@_0BN@LKKBCCDB@address?5family?5not?5supported@ 100a3890     libcpmt:syserror.obj
 0002:000008b0       ??_C@_0P@LDMLAFHI@address?5in?5use@ 100a38b0     libcpmt:syserror.obj
 0002:000008c0       ??_C@_0BG@DHPCNBJB@address?5not?5available@ 100a38c0     libcpmt:syserror.obj
 0002:000008d8       ??_C@_0BC@DFIBIBIL@already?5connected@ 100a38d8     libcpmt:syserror.obj
 0002:000008ec       ??_C@_0BH@CAKOHOMI@argument?5list?5too?5long@ 100a38ec     libcpmt:syserror.obj
 0002:00000904       ??_C@_0BH@CGIMPKIM@argument?5out?5of?5domain@ 100a3904     libcpmt:syserror.obj
 0002:0000091c       ??_C@_0M@KGHGGJGL@bad?5address@ 100a391c     libcpmt:syserror.obj
 0002:00000928       ??_C@_0BE@MPJPGCEO@bad?5file?5descriptor@ 100a3928     libcpmt:syserror.obj
 0002:0000093c       ??_C@_0M@PMMIEFCP@bad?5message@ 100a393c     libcpmt:syserror.obj
 0002:00000948       ??_C@_0M@KPHOFDBE@broken?5pipe@ 100a3948     libcpmt:syserror.obj
 0002:00000954       ??_C@_0BD@MGNDDEGM@connection?5aborted@ 100a3954     libcpmt:syserror.obj
 0002:00000968       ??_C@_0BP@KAIHPOGN@connection?5already?5in?5progress@ 100a3968     libcpmt:syserror.obj
 0002:00000988       ??_C@_0BD@PJLIIJEL@connection?5refused@ 100a3988     libcpmt:syserror.obj
 0002:0000099c       ??_C@_0BB@IECNJNOI@connection?5reset@ 100a399c     libcpmt:syserror.obj
 0002:000009b0       ??_C@_0BC@PPHBOELF@cross?5device?5link@ 100a39b0     libcpmt:syserror.obj
 0002:000009c4       ??_C@_0BN@KDMIFEIP@destination?5address?5required@ 100a39c4     libcpmt:syserror.obj
 0002:000009e4       ??_C@_0BI@NGCEHDD@device?5or?5resource?5busy@ 100a39e4     libcpmt:syserror.obj
 0002:000009fc       ??_C@_0BE@JIDOCPHM@directory?5not?5empty@ 100a39fc     libcpmt:syserror.obj
 0002:00000a10       ??_C@_0BI@BNCLIGPB@executable?5format?5error@ 100a3a10     libcpmt:syserror.obj
 0002:00000a28       ??_C@_0M@MIDIAGJP@file?5exists@ 100a3a28     libcpmt:syserror.obj
 0002:00000a34       ??_C@_0P@DNAJLBJK@file?5too?5large@ 100a3a34     libcpmt:syserror.obj
 0002:00000a44       ??_C@_0BC@EJHOMAAK@filename?5too?5long@ 100a3a44     libcpmt:syserror.obj
 0002:00000a58       ??_C@_0BH@KEFGLDAF@function?5not?5supported@ 100a3a58     libcpmt:syserror.obj
 0002:00000a70       ??_C@_0BB@DHFDFGDM@host?5unreachable@ 100a3a70     libcpmt:syserror.obj
 0002:00000a84       ??_C@_0BD@JPHBMONG@identifier?5removed@ 100a3a84     libcpmt:syserror.obj
 0002:00000a98       ??_C@_0BG@CDNPAGJK@illegal?5byte?5sequence@ 100a3a98     libcpmt:syserror.obj
 0002:00000ab0       ??_C@_0CD@BNPLBMNA@inappropriate?5io?5control?5operat@ 100a3ab0     libcpmt:syserror.obj
 0002:00000ad4       ??_C@_0M@EGEKIIMP@interrupted@ 100a3ad4     libcpmt:syserror.obj
 0002:00000ae0       ??_C@_0BB@FCMFBGOM@invalid?5argument@ 100a3ae0     libcpmt:syserror.obj
 0002:00000af4       ??_C@_0N@OHAFKDEK@invalid?5seek@ 100a3af4     libcpmt:syserror.obj
 0002:00000b04       ??_C@_08GLNPIFBN@io?5error@ 100a3b04     libcpmt:syserror.obj
 0002:00000b10       ??_C@_0P@FLLDBIDK@is?5a?5directory@ 100a3b10     libcpmt:syserror.obj
 0002:00000b20       ??_C@_0N@IFLPBIOP@message?5size@ 100a3b20     libcpmt:syserror.obj
 0002:00000b30       ??_C@_0N@KIIEAAIO@network?5down@ 100a3b30     libcpmt:syserror.obj
 0002:00000b40       ??_C@_0O@FNPDBHEE@network?5reset@ 100a3b40     libcpmt:syserror.obj
 0002:00000b50       ??_C@_0BE@IFNCKGE@network?5unreachable@ 100a3b50     libcpmt:syserror.obj
 0002:00000b64       ??_C@_0BA@PFFCAOFK@no?5buffer?5space@ 100a3b64     libcpmt:syserror.obj
 0002:00000b74       ??_C@_0BB@IEPBLJHK@no?5child?5process@ 100a3b74     libcpmt:syserror.obj
 0002:00000b88       ??_C@_07PLECNNKG@no?5link@ 100a3b88     libcpmt:syserror.obj
 0002:00000b90       ??_C@_0BC@NJECKMKE@no?5lock?5available@ 100a3b90     libcpmt:syserror.obj
 0002:00000ba4       ??_C@_0BF@PBGGPKKE@no?5message?5available@ 100a3ba4     libcpmt:syserror.obj
 0002:00000bbc       ??_C@_0L@EDOLMPAK@no?5message@ 100a3bbc     libcpmt:syserror.obj
 0002:00000bc8       ??_C@_0BD@EAMBFIDF@no?5protocol?5option@ 100a3bc8     libcpmt:syserror.obj
 0002:00000bdc       ??_C@_0BD@IJDJKDEA@no?5space?5on?5device@ 100a3bdc     libcpmt:syserror.obj
 0002:00000bf0       ??_C@_0BE@MKFDAFMP@no?5stream?5resources@ 100a3bf0     libcpmt:syserror.obj
 0002:00000c04       ??_C@_0BK@IMCPHCBI@no?5such?5device?5or?5address@ 100a3c04     libcpmt:syserror.obj
 0002:00000c20       ??_C@_0P@FDINDDOK@no?5such?5device@ 100a3c20     libcpmt:syserror.obj
 0002:00000c30       ??_C@_0BK@NDOCBPGE@no?5such?5file?5or?5directory@ 100a3c30     libcpmt:syserror.obj
 0002:00000c4c       ??_C@_0BA@ENLPPKBN@no?5such?5process@ 100a3c4c     libcpmt:syserror.obj
 0002:00000c5c       ??_C@_0BA@DOCPFFJG@not?5a?5directory@ 100a3c5c     libcpmt:syserror.obj
 0002:00000c6c       ??_C@_0N@POEIPGGF@not?5a?5socket@ 100a3c6c     libcpmt:syserror.obj
 0002:00000c7c       ??_C@_0N@LGAPMMPI@not?5a?5stream@ 100a3c7c     libcpmt:syserror.obj
 0002:00000c8c       ??_C@_0O@GLMIBBEG@not?5connected@ 100a3c8c     libcpmt:syserror.obj
 0002:00000c9c       ??_C@_0BC@ENOOLCNF@not?5enough?5memory@ 100a3c9c     libcpmt:syserror.obj
 0002:00000cb0       ??_C@_0O@NHEDABJP@not?5supported@ 100a3cb0     libcpmt:syserror.obj
 0002:00000cc0       ??_C@_0BD@MOLBPMEA@operation?5canceled@ 100a3cc0     libcpmt:syserror.obj
 0002:00000cd4       ??_C@_0BG@KDKHOPCO@operation?5in?5progress@ 100a3cd4     libcpmt:syserror.obj
 0002:00000cec       ??_C@_0BI@OHIEJAAB@operation?5not?5permitted@ 100a3cec     libcpmt:syserror.obj
 0002:00000d04       ??_C@_0BI@LNEGIFLN@operation?5not?5supported@ 100a3d04     libcpmt:syserror.obj
 0002:00000d1c       ??_C@_0BG@OEMDKMEE@operation?5would?5block@ 100a3d1c     libcpmt:syserror.obj
 0002:00000d34       ??_C@_0L@BLPOFLNJ@owner?5dead@ 100a3d34     libcpmt:syserror.obj
 0002:00000d40       ??_C@_0BC@CIJDGCDI@permission?5denied@ 100a3d40     libcpmt:syserror.obj
 0002:00000d54       ??_C@_0P@FNPOCJBE@protocol?5error@ 100a3d54     libcpmt:syserror.obj
 0002:00000d64       ??_C@_0BH@JPPPLHJB@protocol?5not?5supported@ 100a3d64     libcpmt:syserror.obj
 0002:00000d7c       ??_C@_0BG@EICBIHDP@read?5only?5file?5system@ 100a3d7c     libcpmt:syserror.obj
 0002:00000d94       ??_C@_0BO@BJBOMOEJ@resource?5deadlock?5would?5occur@ 100a3d94     libcpmt:syserror.obj
 0002:00000db4       ??_C@_0BP@LKNGHENJ@resource?5unavailable?5try?5again@ 100a3db4     libcpmt:syserror.obj
 0002:00000dd4       ??_C@_0BE@GOIPJJHG@result?5out?5of?5range@ 100a3dd4     libcpmt:syserror.obj
 0002:00000de8       ??_C@_0BG@MPLKFPAE@state?5not?5recoverable@ 100a3de8     libcpmt:syserror.obj
 0002:00000e00       ??_C@_0P@DIIFGFCG@stream?5timeout@ 100a3e00     libcpmt:syserror.obj
 0002:00000e10       ??_C@_0P@IPFDMIFL@text?5file?5busy@ 100a3e10     libcpmt:syserror.obj
 0002:00000e20       ??_C@_09KJPPMAOI@timed?5out@ 100a3e20     libcpmt:syserror.obj
 0002:00000e2c       ??_C@_0BO@HACHBEKI@too?5many?5files?5open?5in?5system@ 100a3e2c     libcpmt:syserror.obj
 0002:00000e4c       ??_C@_0BE@GHAFMPAH@too?5many?5files?5open@ 100a3e4c     libcpmt:syserror.obj
 0002:00000e60       ??_C@_0P@HCOMKFCC@too?5many?5links@ 100a3e60     libcpmt:syserror.obj
 0002:00000e70       ??_C@_0BO@EFGOJEF@too?5many?5symbolic?5link?5levels@ 100a3e70     libcpmt:syserror.obj
 0002:00000e90       ??_C@_0BA@KGKGOOJA@value?5too?5large@ 100a3e90     libcpmt:syserror.obj
 0002:00000ea0       ??_C@_0BE@MIEJDDNH@wrong?5protocol?5type@ 100a3ea0     libcpmt:syserror.obj
 0002:00000eb4       ??_C@_0O@BFJCFAAK@unknown?5error@ 100a3eb4     libcpmt:syserror.obj
 0002:00000ec8       ??_7bad_array_new_length@std@@6B@ 100a3ec8     libcpmt:xonce.obj
 0002:00000ed4       ??_7_System_error@std@@6B@ 100a3ed4     libcpmt:xonce.obj
 0002:00000ee0       ??_7system_error@std@@6B@  100a3ee0     libcpmt:xonce.obj
 0002:00000ee8       ??_C@_1BK@MGMFAEKH@?$AAk?$AAe?$AAr?$AAn?$AAe?$AAl?$AA3?$AA2?$AA?4?$AAd?$AAl?$AAl@ 100a3ee8     libcpmt:winapisupp.obj
 0002:00000f04       ??_C@_08KNHFBNJ@FlsAlloc@  100a3f04     libcpmt:winapisupp.obj
 0002:00000f10       ??_C@_07PEJMOBNF@FlsFree@  100a3f10     libcpmt:winapisupp.obj
 0002:00000f18       ??_C@_0M@GDNOONDI@FlsGetValue@ 100a3f18     libcpmt:winapisupp.obj
 0002:00000f24       ??_C@_0M@JCPCPOEF@FlsSetValue@ 100a3f24     libcpmt:winapisupp.obj
 0002:00000f30       ??_C@_0BE@GPLMMCMH@InitOnceExecuteOnce@ 100a3f30     libcpmt:winapisupp.obj
 0002:00000f44       ??_C@_0P@DLHPPCNH@CreateEventExW@ 100a3f44     libcpmt:winapisupp.obj
 0002:00000f54       ??_C@_0BB@MEFPJLHN@CreateSemaphoreW@ 100a3f54     libcpmt:winapisupp.obj
 0002:00000f68       ??_C@_0BD@KIEEOEEH@CreateSemaphoreExW@ 100a3f68     libcpmt:winapisupp.obj
 0002:00000f7c       ??_C@_0BG@OGFAJCKC@CreateThreadpoolTimer@ 100a3f7c     libcpmt:winapisupp.obj
 0002:00000f94       ??_C@_0BD@LPLEMMDI@SetThreadpoolTimer@ 100a3f94     libcpmt:winapisupp.obj
 0002:00000fa8       ??_C@_0CA@FMNJENH@WaitForThreadpoolTimerCallbacks@ 100a3fa8     libcpmt:winapisupp.obj
 0002:00000fc8       ??_C@_0BF@DCFCCNOC@CloseThreadpoolTimer@ 100a3fc8     libcpmt:winapisupp.obj
 0002:00000fe0       ??_C@_0BF@FLABGKKM@CreateThreadpoolWait@ 100a3fe0     libcpmt:winapisupp.obj
 0002:00000ff8       ??_C@_0BC@MGCOHNA@SetThreadpoolWait@ 100a3ff8     libcpmt:winapisupp.obj
 0002:0000100c       ??_C@_0BE@OCIOMIMP@CloseThreadpoolWait@ 100a400c     libcpmt:winapisupp.obj
 0002:00001020       ??_C@_0BJ@LKGHFHBO@FlushProcessWriteBuffers@ 100a4020     libcpmt:winapisupp.obj
 0002:0000103c       ??_C@_0BP@KALKKPMO@FreeLibraryWhenCallbackReturns@ 100a403c     libcpmt:winapisupp.obj
 0002:0000105c       ??_C@_0BK@DFNBACLA@GetCurrentProcessorNumber@ 100a405c     libcpmt:winapisupp.obj
 0002:00001078       ??_C@_0BE@FKKLLFLM@CreateSymbolicLinkW@ 100a4078     libcpmt:winapisupp.obj
 0002:0000108c       ??_C@_0BE@JOGNEJCI@GetCurrentPackageId@ 100a408c     libcpmt:winapisupp.obj
 0002:000010a0       ??_C@_0P@CDHHOHKP@GetTickCount64@ 100a40a0     libcpmt:winapisupp.obj
 0002:000010b0       ??_C@_0BN@NEEHBBPO@GetFileInformationByHandleEx@ 100a40b0     libcpmt:winapisupp.obj
 0002:000010d0       ??_C@_0BL@KBBHGKCM@SetFileInformationByHandle@ 100a40d0     libcpmt:winapisupp.obj
 0002:000010ec       ??_C@_0BP@FPNJPEJC@GetSystemTimePreciseAsFileTime@ 100a40ec     libcpmt:winapisupp.obj
 0002:0000110c       ??_C@_0BM@HLJJNPAH@InitializeConditionVariable@ 100a410c     libcpmt:winapisupp.obj
 0002:00001128       ??_C@_0BG@BFNILBLN@WakeConditionVariable@ 100a4128     libcpmt:winapisupp.obj
 0002:00001140       ??_C@_0BJ@PGPPEPCC@WakeAllConditionVariable@ 100a4140     libcpmt:winapisupp.obj
 0002:0000115c       ??_C@_0BJ@JEBJOJFJ@SleepConditionVariableCS@ 100a415c     libcpmt:winapisupp.obj
 0002:00001178       ??_C@_0BC@MMLHEBPB@InitializeSRWLock@ 100a4178     libcpmt:winapisupp.obj
 0002:0000118c       ??_C@_0BI@OMNLIJDB@AcquireSRWLockExclusive@ 100a418c     libcpmt:winapisupp.obj
 0002:000011a4       ??_C@_0BL@OGHFEMNA@TryAcquireSRWLockExclusive@ 100a41a4     libcpmt:winapisupp.obj
 0002:000011c0       ??_C@_0BI@HMIEPCNJ@ReleaseSRWLockExclusive@ 100a41c0     libcpmt:winapisupp.obj
 0002:000011d8       ??_C@_0BK@LGACAGIC@SleepConditionVariableSRW@ 100a41d8     libcpmt:winapisupp.obj
 0002:000011f4       ??_C@_0BF@GGPHFPJA@CreateThreadpoolWork@ 100a41f4     libcpmt:winapisupp.obj
 0002:0000120c       ??_C@_0BF@NHDAIMMO@SubmitThreadpoolWork@ 100a420c     libcpmt:winapisupp.obj
 0002:00001224       ??_C@_0BE@NPHIPNPD@CloseThreadpoolWork@ 100a4224     libcpmt:winapisupp.obj
 0002:00001238       ??_C@_0BA@ONOKGCMP@GetLocaleInfoEx@ 100a4238     libcpmt:winapisupp.obj
 0002:00001248       ??_C@_0O@KKBNKAPF@LCMapStringEx@ 100a4248     libcpmt:winapisupp.obj
 0002:0000125c       ??_7?$ctype@_W@std@@6B@    100a425c     libcpmt:wlocale.obj
 0002:0000129c       ??_7?$num_put@_WV?$ostreambuf_iterator@_WU?$char_traits@_W@std@@@std@@@std@@6B@ 100a429c     libcpmt:wlocale.obj
 0002:000012cc       ??_7?$numpunct@_W@std@@6B@ 100a42cc     libcpmt:wlocale.obj
 0002:000012ec       ??_C@_13IMODFHAA@?$AA?9@   100a42ec     libcpmt:wlocale.obj
 0002:000012f0       ??_C@_01JOAMLHOP@?9@       100a42f0     libcpmt:wlocale.obj
 0002:000021d8       ??_C@_15EMKDOKLE@?$AAa?$AAr@ 100a51d8     libcpmt:winapinls.obj
 0002:000021e0       ??_C@_15KNPADPLH@?$AAb?$AAg@ 100a51e0     libcpmt:winapinls.obj
 0002:000021e8       ??_C@_15EDMHLDMO@?$AAc?$AAa@ 100a51e8     libcpmt:winapinls.obj
 0002:000021f0       ??_C@_1O@BPEAJADD@?$AAz?$AAh?$AA?9?$AAC?$AAH?$AAS@ 100a51f0     libcpmt:winapinls.obj
 0002:00002200       ??_C@_15LJNHCMNK@?$AAc?$AAs@ 100a5200     libcpmt:winapinls.obj
 0002:00002208       ??_C@_15NBKABECB@?$AAd?$AAe@ 100a5208     libcpmt:winapinls.obj
 0002:00002210       ??_C@_15GHPEIIAO@?$AAe?$AAl@ 100a5210     libcpmt:winapinls.obj
 0002:00002218       ??_C@_15MNPNEAIF@?$AAe?$AAn@ 100a5218     libcpmt:winapinls.obj
 0002:00002220       ??_C@_15GPIOMPMH@?$AAe?$AAs@ 100a5220     libcpmt:winapinls.obj
 0002:00002228       ??_C@_15NGLOAKJC@?$AAf?$AAi@ 100a5228     libcpmt:winapinls.obj
 0002:00002230       ??_C@_15FBKGNKAM@?$AAf?$AAr@ 100a5230     libcpmt:winapinls.obj
 0002:00002238       ??_C@_15PGHLIDMF@?$AAh?$AAu@ 100a5238     libcpmt:winapinls.obj
 0002:00002240       ??_C@_15BIEMAPLM@?$AAi?$AAs@ 100a5240     libcpmt:winapinls.obj
 0002:00002248       ??_C@_15IFJLDHAF@?$AAi?$AAt@ 100a5248     libcpmt:winapinls.obj
 0002:00002250       ??_C@_15GEMIOCAG@?$AAj?$AAa@ 100a5250     libcpmt:winapinls.obj
 0002:00002258       ??_C@_15EPELEGJA@?$AAk?$AAo@ 100a5258     libcpmt:winapinls.obj
 0002:00002260       ??_C@_15NDDHIMN@?$AAn?$AAl@ 100a5260     libcpmt:winapinls.obj
 0002:00002268       ??_C@_15DEOPBLCG@?$AAp?$AAl@ 100a5268     libcpmt:winapinls.obj
 0002:00002270       ??_C@_15KBECGEFG@?$AAp?$AAt@ 100a5270     libcpmt:winapinls.obj
 0002:00002278       ??_C@_15GLJCBFMD@?$AAr?$AAo@ 100a5278     libcpmt:winapinls.obj
 0002:00002280       ??_C@_15FEDGKCDI@?$AAr?$AAu@ 100a5280     libcpmt:winapinls.obj
 0002:00002288       ??_C@_15GLKMLLHM@?$AAh?$AAr@ 100a5288     libcpmt:winapinls.obj
 0002:00002290       ??_C@_15CPKMFBDB@?$AAs?$AAk@ 100a5290     libcpmt:winapinls.obj
 0002:00002298       ??_C@_15BAAIOGMK@?$AAs?$AAq@ 100a5298     libcpmt:winapinls.obj
 0002:000022a0       ??_C@_15INNPNOHD@?$AAs?$AAv@ 100a52a0     libcpmt:winapinls.obj
 0002:000022a8       ??_C@_15CABMMOGH@?$AAt?$AAh@ 100a52a8     libcpmt:winapinls.obj
 0002:000022b0       ??_C@_15BPLIHJJM@?$AAt?$AAr@ 100a52b0     libcpmt:winapinls.obj
 0002:000022b8       ??_C@_15NEOEKKDJ@?$AAu?$AAr@ 100a52b8     libcpmt:winapinls.obj
 0002:000022c0       ??_C@_15NFICGAJK@?$AAi?$AAd@ 100a52c0     libcpmt:winapinls.obj
 0002:000022c8       ??_C@_15PJPFLCCM@?$AAu?$AAk@ 100a52c8     libcpmt:winapinls.obj
 0002:000022d0       ??_C@_15HPJPHDM@?$AAb?$AAe@ 100a52d0     libcpmt:winapinls.obj
 0002:000022d8       ??_C@_15LCHLGJII@?$AAs?$AAl@ 100a52d8     libcpmt:winapinls.obj
 0002:000022e0       ??_C@_15PCFJPHHO@?$AAe?$AAt@ 100a52e0     libcpmt:winapinls.obj
 0002:000022e8       ??_C@_15HPFPGODN@?$AAl?$AAv@ 100a52e8     libcpmt:winapinls.obj
 0002:000022f0       ??_C@_15NFFGKGLG@?$AAl?$AAt@ 100a52f0     libcpmt:winapinls.obj
 0002:000022f8       ??_C@_15BDAKCCHN@?$AAf?$AAa@ 100a52f8     libcpmt:winapinls.obj
 0002:00002300       ??_C@_15NFGIAIAJ@?$AAv?$AAi@ 100a5300     libcpmt:winapinls.obj
 0002:00002308       ??_C@_15LMKNDMHN@?$AAh?$AAy@ 100a5308     libcpmt:winapinls.obj
 0002:00002310       ??_C@_15IJBHMCFL@?$AAa?$AAz@ 100a5310     libcpmt:winapinls.obj
 0002:00002318       ??_C@_15EKOFJABL@?$AAe?$AAu@ 100a5318     libcpmt:winapinls.obj
 0002:00002320       ??_C@_15BGHADCNK@?$AAm?$AAk@ 100a5320     libcpmt:winapinls.obj
 0002:00002328       ??_C@_15JDNICKHM@?$AAa?$AAf@ 100a5328     libcpmt:winapinls.obj
 0002:00002330       ??_C@_15KPJEDBKD@?$AAk?$AAa@ 100a5330     libcpmt:winapinls.obj
 0002:00002338       ??_C@_15PDNFFFEO@?$AAf?$AAo@ 100a5338     libcpmt:winapinls.obj
 0002:00002340       ??_C@_15OMLEGLOC@?$AAh?$AAi@ 100a5340     libcpmt:winapinls.obj
 0002:00002348       ??_C@_15IDNNENKK@?$AAm?$AAs@ 100a5348     libcpmt:winapinls.obj
 0002:00002350       ??_C@_15MACJNBMH@?$AAk?$AAk@ 100a5350     libcpmt:winapinls.obj
 0002:00002358       ??_C@_15DKDJEOND@?$AAk?$AAy@ 100a5358     libcpmt:winapinls.obj
 0002:00002360       ??_C@_15DFGDLJBG@?$AAs?$AAw@ 100a5360     libcpmt:winapinls.obj
 0002:00002368       ??_C@_15BBFAICNG@?$AAu?$AAz@ 100a5368     libcpmt:winapinls.obj
 0002:00002370       ??_C@_15DKNDCGEA@?$AAt?$AAt@ 100a5370     libcpmt:winapinls.obj
 0002:00002378       ??_C@_15MGIFMDPL@?$AAp?$AAa@ 100a5378     libcpmt:winapinls.obj
 0002:00002380       ??_C@_15HCNDBBA@?$AAg?$AAu@ 100a5380     libcpmt:winapinls.obj
 0002:00002388       ??_C@_15FNBEIBON@?$AAt?$AAa@ 100a5388     libcpmt:winapinls.obj
 0002:00002390       ??_C@_15NCHGBGLK@?$AAt?$AAe@ 100a5390     libcpmt:winapinls.obj
 0002:00002398       ??_C@_15PHPHCBPF@?$AAk?$AAn@ 100a5398     libcpmt:winapinls.obj
 0002:000023a0       ??_C@_15DLGBCKMP@?$AAm?$AAr@ 100a53a0     libcpmt:winapinls.obj
 0002:000023a8       ??_C@_15EABBLBFF@?$AAs?$AAa@ 100a53a8     libcpmt:winapinls.obj
 0002:000023b0       ??_C@_15CBKOMCOI@?$AAm?$AAn@ 100a53b0     libcpmt:winapinls.obj
 0002:000023b8       ??_C@_15CKDMCJAF@?$AAg?$AAl@ 100a53b8     libcpmt:winapinls.obj
 0002:000023c0       ??_C@_17CNJFBPG@?$AAk?$AAo?$AAk@ 100a53c0     libcpmt:winapinls.obj
 0002:000023c8       ??_C@_17FFBJICPL@?$AAs?$AAy?$AAr@ 100a53c8     libcpmt:winapinls.obj
 0002:000023d0       ??_C@_17KPNDCPAF@?$AAd?$AAi?$AAv@ 100a53d0     libcpmt:winapinls.obj
 0002:000023d8       ??_C@_1M@OKAHONE@?$AAa?$AAr?$AA?9?$AAS?$AAA@ 100a53d8     libcpmt:winapinls.obj
 0002:000023e4       ??_C@_1M@FFFIGIGK@?$AAb?$AAg?$AA?9?$AAB?$AAG@ 100a53e4     libcpmt:winapinls.obj
 0002:000023f0       ??_C@_1M@BJNKEDC@?$AAc?$AAa?$AA?9?$AAE?$AAS@ 100a53f0     libcpmt:winapinls.obj
 0002:000023fc       ??_C@_1M@CLNBBOPM@?$AAz?$AAh?$AA?9?$AAT?$AAW@ 100a53fc     libcpmt:winapinls.obj
 0002:00002408       ??_C@_1M@IJJHFJHA@?$AAc?$AAs?$AA?9?$AAC?$AAZ@ 100a5408     libcpmt:winapinls.obj
 0002:00002414       ??_C@_1M@CLPEOBGI@?$AAd?$AAa?$AA?9?$AAD?$AAK@ 100a5414     libcpmt:winapinls.obj
 0002:00002420       ??_C@_1M@MCMADGCB@?$AAd?$AAe?$AA?9?$AAD?$AAE@ 100a5420     libcpmt:winapinls.obj
 0002:0000242c       ??_C@_1M@OOCKEMAM@?$AAe?$AAl?$AA?9?$AAG?$AAR@ 100a542c     libcpmt:winapinls.obj
 0002:00002438       ??_C@_1M@BMHNFIME@?$AAe?$AAn?$AA?9?$AAU?$AAS@ 100a5438     libcpmt:winapinls.obj
 0002:00002444       ??_C@_1M@DDNJFGID@?$AAf?$AAi?$AA?9?$AAF?$AAI@ 100a5444     libcpmt:winapinls.obj
 0002:00002450       ??_C@_1M@GLIPPMAC@?$AAf?$AAr?$AA?9?$AAF?$AAR@ 100a5450     libcpmt:winapinls.obj
 0002:0000245c       ??_C@_1M@GFMCHPE@?$AAh?$AAe?$AA?9?$AAI?$AAL@ 100a545c     libcpmt:winapinls.obj
 0002:00002468       ??_C@_1M@MHLPGNKM@?$AAh?$AAu?$AA?9?$AAH?$AAU@ 100a5468     libcpmt:winapinls.obj
 0002:00002474       ??_C@_1M@LPDDNNPN@?$AAi?$AAs?$AA?9?$AAI?$AAS@ 100a5474     libcpmt:winapinls.obj
 0002:00002480       ??_C@_1M@MADIPODN@?$AAi?$AAt?$AA?9?$AAI?$AAT@ 100a5480     libcpmt:winapinls.obj
 0002:0000248c       ??_C@_1M@HPNHIDJI@?$AAj?$AAa?$AA?9?$AAJ?$AAP@ 100a548c     libcpmt:winapinls.obj
 0002:00002498       ??_C@_1M@JLOOOEGK@?$AAk?$AAo?$AA?9?$AAK?$AAR@ 100a5498     libcpmt:winapinls.obj
 0002:000024a4       ??_C@_1M@IHBJJGG@?$AAn?$AAl?$AA?9?$AAN?$AAL@ 100a54a4     libcpmt:winapinls.obj
 0002:000024b0       ??_C@_1M@EANAGDL@?$AAn?$AAb?$AA?9?$AAN?$AAO@ 100a54b0     libcpmt:winapinls.obj
 0002:000024bc       ??_C@_1M@NEIEMEGP@?$AAp?$AAl?$AA?9?$AAP?$AAL@ 100a54bc     libcpmt:winapinls.obj
 0002:000024c8       ??_C@_1M@BOCFIGEP@?$AAp?$AAt?$AA?9?$AAB?$AAR@ 100a54c8     libcpmt:winapinls.obj
 0002:000024d4       ??_C@_1M@IMPFOPBG@?$AAr?$AAo?$AA?9?$AAR?$AAO@ 100a54d4     libcpmt:winapinls.obj
 0002:000024e0       ??_C@_1M@IDNNEJMM@?$AAr?$AAu?$AA?9?$AAR?$AAU@ 100a54e0     libcpmt:winapinls.obj
 0002:000024ec       ??_C@_1M@LILEEOGM@?$AAh?$AAr?$AA?9?$AAH?$AAR@ 100a54ec     libcpmt:winapinls.obj
 0002:000024f8       ??_C@_1M@FKIFEHPB@?$AAs?$AAk?$AA?9?$AAS?$AAK@ 100a54f8     libcpmt:winapinls.obj
 0002:00002504       ??_C@_1M@LJMAMNPJ@?$AAs?$AAq?$AA?9?$AAA?$AAL@ 100a5504     libcpmt:winapinls.obj
 0002:00002510       ??_C@_1M@GIAKDKJK@?$AAs?$AAv?$AA?9?$AAS?$AAE@ 100a5510     libcpmt:winapinls.obj
 0002:0000251c       ??_C@_1M@MKJKIKCL@?$AAt?$AAh?$AA?9?$AAT?$AAH@ 100a551c     libcpmt:winapinls.obj
 0002:00002528       ??_C@_1M@MFLCCMPB@?$AAt?$AAr?$AA?9?$AAT?$AAR@ 100a5528     libcpmt:winapinls.obj
 0002:00002534       ??_C@_1M@OIJHDKJN@?$AAu?$AAr?$AA?9?$AAP?$AAK@ 100a5534     libcpmt:winapinls.obj
 0002:00002540       ??_C@_1M@LHIPCIEK@?$AAi?$AAd?$AA?9?$AAI?$AAD@ 100a5540     libcpmt:winapinls.obj
 0002:0000254c       ??_C@_1M@MFMOBGI@?$AAu?$AAk?$AA?9?$AAU?$AAA@ 100a554c     libcpmt:winapinls.obj
 0002:00002558       ??_C@_1M@OBGLJIPL@?$AAb?$AAe?$AA?9?$AAB?$AAY@ 100a5558     libcpmt:winapinls.obj
 0002:00002564       ??_C@_1M@BCFAJEAD@?$AAs?$AAl?$AA?9?$AAS?$AAI@ 100a5564     libcpmt:winapinls.obj
 0002:00002570       ??_C@_1M@FKFFEDDN@?$AAe?$AAt?$AA?9?$AAE?$AAE@ 100a5570     libcpmt:winapinls.obj
 0002:0000257c       ??_C@_1M@KGKKAACI@?$AAl?$AAv?$AA?9?$AAL?$AAV@ 100a557c     libcpmt:winapinls.obj
 0002:00002588       ??_C@_1M@IFGBIJO@?$AAl?$AAt?$AA?9?$AAL?$AAT@ 100a5588     libcpmt:winapinls.obj
 0002:00002594       ??_C@_1M@FGEAHEDM@?$AAf?$AAa?$AA?9?$AAI?$AAR@ 100a5594     libcpmt:winapinls.obj
 0002:000025a0       ??_C@_1M@KBMAIBFN@?$AAv?$AAi?$AA?9?$AAV?$AAN@ 100a55a0     libcpmt:winapinls.obj
 0002:000025ac       ??_C@_1M@GPCBKDJK@?$AAh?$AAy?$AA?9?$AAA?$AAM@ 100a55ac     libcpmt:winapinls.obj
 0002:000025b8       ??_C@_1BG@BECMDDJB@?$AAa?$AAz?$AA?9?$AAA?$AAZ?$AA?9?$AAL?$AAa?$AAt?$AAn@ 100a55b8     libcpmt:winapinls.obj
 0002:000025d0       ??_C@_1M@MAOFCAEA@?$AAe?$AAu?$AA?9?$AAE?$AAS@ 100a55d0     libcpmt:winapinls.obj
 0002:000025dc       ??_C@_1M@IGHABKPI@?$AAm?$AAk?$AA?9?$AAM?$AAK@ 100a55dc     libcpmt:winapinls.obj
 0002:000025e8       ??_C@_1M@IAIGNEJG@?$AAt?$AAn?$AA?9?$AAZ?$AAA@ 100a55e8     libcpmt:winapinls.obj
 0002:000025f4       ??_C@_1M@IIJCOJFA@?$AAx?$AAh?$AA?9?$AAZ?$AAA@ 100a55f4     libcpmt:winapinls.obj
 0002:00002600       ??_C@_1M@LGPJHNJH@?$AAz?$AAu?$AA?9?$AAZ?$AAA@ 100a5600     libcpmt:winapinls.obj
 0002:0000260c       ??_C@_1M@HOKAOIO@?$AAa?$AAf?$AA?9?$AAZ?$AAA@ 100a560c     libcpmt:winapinls.obj
 0002:00002618       ??_C@_1M@DPCLHLIE@?$AAk?$AAa?$AA?9?$AAG?$AAE@ 100a5618     libcpmt:winapinls.obj
 0002:00002624       ??_C@_1M@BLKMHJBI@?$AAf?$AAo?$AA?9?$AAF?$AAO@ 100a5624     libcpmt:winapinls.obj
 0002:00002630       ??_C@_1M@LGGJAPPB@?$AAh?$AAi?$AA?9?$AAI?$AAN@ 100a5630     libcpmt:winapinls.obj
 0002:0000263c       ??_C@_1M@FIKPIHFE@?$AAm?$AAt?$AA?9?$AAM?$AAT@ 100a563c     libcpmt:winapinls.obj
 0002:00002648       ??_C@_1M@HEGGPBFA@?$AAs?$AAe?$AA?9?$AAN?$AAO@ 100a5648     libcpmt:winapinls.obj
 0002:00002654       ??_C@_1M@EIBJEEPA@?$AAm?$AAs?$AA?9?$AAM?$AAY@ 100a5654     libcpmt:winapinls.obj
 0002:00002660       ??_C@_1M@FHLBGMPP@?$AAk?$AAk?$AA?9?$AAK?$AAZ@ 100a5660     libcpmt:winapinls.obj
 0002:0000266c       ??_C@_1M@NGJJLCGI@?$AAk?$AAy?$AA?9?$AAK?$AAG@ 100a566c     libcpmt:winapinls.obj
 0002:00002678       ??_C@_1M@GIENNBFC@?$AAs?$AAw?$AA?9?$AAK?$AAE@ 100a5678     libcpmt:winapinls.obj
 0002:00002684       ??_C@_1BG@NDGMJIMJ@?$AAu?$AAz?$AA?9?$AAU?$AAZ?$AA?9?$AAL?$AAa?$AAt?$AAn@ 100a5684     libcpmt:winapinls.obj
 0002:0000269c       ??_C@_1M@IDCCIHBC@?$AAt?$AAt?$AA?9?$AAR?$AAU@ 100a569c     libcpmt:winapinls.obj
 0002:000026a8       ??_C@_1M@LOICPMOJ@?$AAb?$AAn?$AA?9?$AAI?$AAN@ 100a56a8     libcpmt:winapinls.obj
 0002:000026b4       ??_C@_1M@KPKKNEAH@?$AAp?$AAa?$AA?9?$AAI?$AAN@ 100a56b4     libcpmt:winapinls.obj
 0002:000026c0       ??_C@_1M@PJGPPBOG@?$AAg?$AAu?$AA?9?$AAI?$AAN@ 100a56c0     libcpmt:winapinls.obj
 0002:000026cc       ??_C@_1M@KMKMOPHI@?$AAt?$AAa?$AA?9?$AAI?$AAN@ 100a56cc     libcpmt:winapinls.obj
 0002:000026d8       ??_C@_1M@KFEHEPAC@?$AAt?$AAe?$AA?9?$AAI?$AAN@ 100a56d8     libcpmt:winapinls.obj
 0002:000026e4       ??_C@_1M@CDCLMGHI@?$AAk?$AAn?$AA?9?$AAI?$AAN@ 100a56e4     libcpmt:winapinls.obj
 0002:000026f0       ??_C@_1M@MIODLDKF@?$AAm?$AAl?$AA?9?$AAI?$AAN@ 100a56f0     libcpmt:winapinls.obj
 0002:000026fc       ??_C@_1M@PBIEACPO@?$AAm?$AAr?$AA?9?$AAI?$AAN@ 100a56fc     libcpmt:winapinls.obj
 0002:00002708       ??_C@_1M@NIDEAGPH@?$AAs?$AAa?$AA?9?$AAI?$AAN@ 100a5708     libcpmt:winapinls.obj
 0002:00002714       ??_C@_1M@FHIHCBIO@?$AAm?$AAn?$AA?9?$AAM?$AAN@ 100a5714     libcpmt:winapinls.obj
 0002:00002720       ??_C@_1M@JAIJPENP@?$AAc?$AAy?$AA?9?$AAG?$AAB@ 100a5720     libcpmt:winapinls.obj
 0002:0000272c       ??_C@_1M@PHGFBEPN@?$AAg?$AAl?$AA?9?$AAE?$AAS@ 100a572c     libcpmt:winapinls.obj
 0002:00002738       ??_C@_1O@KPIPDNCP@?$AAk?$AAo?$AAk?$AA?9?$AAI?$AAN@ 100a5738     libcpmt:winapinls.obj
 0002:00002748       ??_C@_1O@KNHJLDJA@?$AAs?$AAy?$AAr?$AA?9?$AAS?$AAY@ 100a5748     libcpmt:winapinls.obj
 0002:00002758       ??_C@_1O@MKEKBLAH@?$AAd?$AAi?$AAv?$AA?9?$AAM?$AAV@ 100a5758     libcpmt:winapinls.obj
 0002:00002768       ??_C@_1O@OHDCKDDF@?$AAq?$AAu?$AAz?$AA?9?$AAB?$AAO@ 100a5768     libcpmt:winapinls.obj
 0002:00002778       ??_C@_1M@LEPJNLFD@?$AAn?$AAs?$AA?9?$AAZ?$AAA@ 100a5778     libcpmt:winapinls.obj
 0002:00002784       ??_C@_1M@OMLEIIJB@?$AAm?$AAi?$AA?9?$AAN?$AAZ@ 100a5784     libcpmt:winapinls.obj
 0002:00002790       ??_C@_1M@PMPEAILG@?$AAa?$AAr?$AA?9?$AAI?$AAQ@ 100a5790     libcpmt:winapinls.obj
 0002:0000279c       ??_C@_1M@BIBDDEMK@?$AAz?$AAh?$AA?9?$AAC?$AAN@ 100a579c     libcpmt:winapinls.obj
 0002:000027a8       ??_C@_1M@CNKPNOEE@?$AAd?$AAe?$AA?9?$AAC?$AAH@ 100a57a8     libcpmt:winapinls.obj
 0002:000027b4       ??_C@_1M@LKMGMLKO@?$AAe?$AAn?$AA?9?$AAG?$AAB@ 100a57b4     libcpmt:winapinls.obj
 0002:000027c0       ??_C@_1M@PGKJFFGL@?$AAe?$AAs?$AA?9?$AAM?$AAX@ 100a57c0     libcpmt:winapinls.obj
 0002:000027cc       ??_C@_1M@DNNANBDC@?$AAf?$AAr?$AA?9?$AAB?$AAE@ 100a57cc     libcpmt:winapinls.obj
 0002:000027d8       ??_C@_1M@HLGMDFHM@?$AAi?$AAt?$AA?9?$AAC?$AAH@ 100a57d8     libcpmt:winapinls.obj
 0002:000027e4       ??_C@_1M@CLLBGJH@?$AAn?$AAl?$AA?9?$AAB?$AAE@ 100a57e4     libcpmt:winapinls.obj
 0002:000027f0       ??_C@_1M@BODBOGLF@?$AAn?$AAn?$AA?9?$AAN?$AAO@ 100a57f0     libcpmt:winapinls.obj
 0002:000027fc       ??_C@_1M@HFFAHKAD@?$AAp?$AAt?$AA?9?$AAP?$AAT@ 100a57fc     libcpmt:winapinls.obj
 0002:00002808       ??_C@_1BG@LNOAKHIE@?$AAs?$AAr?$AA?9?$AAS?$AAP?$AA?9?$AAL?$AAa?$AAt?$AAn@ 100a5808     libcpmt:winapinls.obj
 0002:00002820       ??_C@_1M@HBMHBGAK@?$AAs?$AAv?$AA?9?$AAF?$AAI@ 100a5820     libcpmt:winapinls.obj
 0002:0000282c       ??_C@_1BG@DGCJGJBE@?$AAa?$AAz?$AA?9?$AAA?$AAZ?$AA?9?$AAC?$AAy?$AAr?$AAl@ 100a582c     libcpmt:winapinls.obj
 0002:00002844       ??_C@_1M@KEJDAAHB@?$AAs?$AAe?$AA?9?$AAS?$AAE@ 100a5844     libcpmt:winapinls.obj
 0002:00002850       ??_C@_1M@HEIBJJAD@?$AAm?$AAs?$AA?9?$AAB?$AAN@ 100a5850     libcpmt:winapinls.obj
 0002:0000285c       ??_C@_1BG@PBGJMCEM@?$AAu?$AAz?$AA?9?$AAU?$AAZ?$AA?9?$AAC?$AAy?$AAr?$AAl@ 100a585c     libcpmt:winapinls.obj
 0002:00002874       ??_C@_1O@LAOBCMDF@?$AAq?$AAu?$AAz?$AA?9?$AAE?$AAC@ 100a5874     libcpmt:winapinls.obj
 0002:00002884       ??_C@_1M@POEEMAIO@?$AAa?$AAr?$AA?9?$AAE?$AAG@ 100a5884     libcpmt:winapinls.obj
 0002:00002890       ??_C@_1M@EFAKDEDL@?$AAz?$AAh?$AA?9?$AAH?$AAK@ 100a5890     libcpmt:winapinls.obj
 0002:0000289c       ??_C@_1M@HKKIJHGI@?$AAd?$AAe?$AA?9?$AAA?$AAT@ 100a589c     libcpmt:winapinls.obj
 0002:000028a8       ??_C@_1M@KBFBEHJF@?$AAe?$AAn?$AA?9?$AAA?$AAU@ 100a58a8     libcpmt:winapinls.obj
 0002:000028b4       ??_C@_1M@MNPLFAAH@?$AAe?$AAs?$AA?9?$AAE?$AAS@ 100a58b4     libcpmt:winapinls.obj
 0002:000028c0       ??_C@_1M@HJOOJFMA@?$AAf?$AAr?$AA?9?$AAC?$AAA@ 100a58c0     libcpmt:winapinls.obj
 0002:000028cc       ??_C@_1BG@JPOFPNAB@?$AAs?$AAr?$AA?9?$AAS?$AAP?$AA?9?$AAC?$AAy?$AAr?$AAl@ 100a58cc     libcpmt:winapinls.obj
 0002:000028e4       ??_C@_1M@LNFOCMOB@?$AAs?$AAe?$AA?9?$AAF?$AAI@ 100a58e4     libcpmt:winapinls.obj
 0002:000028f0       ??_C@_1O@MGJBOAMB@?$AAq?$AAu?$AAz?$AA?9?$AAP?$AAE@ 100a58f0     libcpmt:winapinls.obj
 0002:00002900       ??_C@_1M@GJINLBOK@?$AAa?$AAr?$AA?9?$AAL?$AAY@ 100a5900     libcpmt:winapinls.obj
 0002:0000290c       ??_C@_1M@GGMNHJNL@?$AAz?$AAh?$AA?9?$AAS?$AAG@ 100a590c     libcpmt:winapinls.obj
 0002:00002918       ??_C@_1M@HOIKODND@?$AAd?$AAe?$AA?9?$AAL?$AAU@ 100a5918     libcpmt:winapinls.obj
 0002:00002924       ??_C@_1M@DDOCCGFG@?$AAe?$AAn?$AA?9?$AAC?$AAA@ 100a5924     libcpmt:winapinls.obj
 0002:00002930       ??_C@_1M@BNOEMJLF@?$AAe?$AAs?$AA?9?$AAG?$AAT@ 100a5930     libcpmt:winapinls.obj
 0002:0000293c       ??_C@_1M@EOGNKEK@?$AAf?$AAr?$AA?9?$AAC?$AAH@ 100a593c     libcpmt:winapinls.obj
 0002:00002948       ??_C@_1M@FLIDJFHL@?$AAh?$AAr?$AA?9?$AAB?$AAA@ 100a5948     libcpmt:winapinls.obj
 0002:00002954       ??_C@_1O@FMCELNAJ@?$AAs?$AAm?$AAj?$AA?9?$AAN?$AAO@ 100a5954     libcpmt:winapinls.obj
 0002:00002964       ??_C@_1M@JHGLJMGJ@?$AAa?$AAr?$AA?9?$AAD?$AAZ@ 100a5964     libcpmt:winapinls.obj
 0002:00002970       ??_C@_1M@JKKFDCNP@?$AAz?$AAh?$AA?9?$AAM?$AAO@ 100a5970     libcpmt:winapinls.obj
 0002:0000297c       ??_C@_1M@GEEFALPE@?$AAd?$AAe?$AA?9?$AAL?$AAI@ 100a597c     libcpmt:winapinls.obj
 0002:00002988       ??_C@_1M@IGEOFBG@?$AAe?$AAn?$AA?9?$AAN?$AAZ@ 100a5988     libcpmt:winapinls.obj
 0002:00002994       ??_C@_1M@KDBONEHP@?$AAe?$AAs?$AA?9?$AAC?$AAR@ 100a5994     libcpmt:winapinls.obj
 0002:000029a0       ??_C@_1M@FHMDOHNN@?$AAf?$AAr?$AA?9?$AAL?$AAU@ 100a59a0     libcpmt:winapinls.obj
 0002:000029ac       ??_C@_1BG@NFKKMAFG@?$AAb?$AAs?$AA?9?$AAB?$AAA?$AA?9?$AAL?$AAa?$AAt?$AAn@ 100a59ac     libcpmt:winapinls.obj
 0002:000029c4       ??_C@_1O@IMNBEMCI@?$AAs?$AAm?$AAj?$AA?9?$AAS?$AAE@ 100a59c4     libcpmt:winapinls.obj
 0002:000029d4       ??_C@_1M@DHHMBNDP@?$AAa?$AAr?$AA?9?$AAM?$AAA@ 100a59d4     libcpmt:winapinls.obj
 0002:000029e0       ??_C@_1M@BNBLJCGH@?$AAe?$AAn?$AA?9?$AAI?$AAE@ 100a59e0     libcpmt:winapinls.obj
 0002:000029ec       ??_C@_1M@GEPAFMDL@?$AAe?$AAs?$AA?9?$AAP?$AAA@ 100a59ec     libcpmt:winapinls.obj
 0002:000029f8       ??_C@_1M@OJONDMDL@?$AAf?$AAr?$AA?9?$AAM?$AAC@ 100a59f8     libcpmt:winapinls.obj
 0002:00002a04       ??_C@_1BG@OBCNFJB@?$AAs?$AAr?$AA?9?$AAB?$AAA?$AA?9?$AAL?$AAa?$AAt?$AAn@ 100a5a04     libcpmt:winapinls.obj
 0002:00002a1c       ??_C@_1O@KEMEEGPO@?$AAs?$AAm?$AAa?$AA?9?$AAN?$AAO@ 100a5a1c     libcpmt:winapinls.obj
 0002:00002a2c       ??_C@_1M@ELMGFODK@?$AAa?$AAr?$AA?9?$AAT?$AAN@ 100a5a2c     libcpmt:winapinls.obj
 0002:00002a38       ??_C@_1M@BHDLHFAF@?$AAe?$AAn?$AA?9?$AAZ?$AAA@ 100a5a38     libcpmt:winapinls.obj
 0002:00002a44       ??_C@_1M@BMGIGLIF@?$AAe?$AAs?$AA?9?$AAD?$AAO@ 100a5a44     libcpmt:winapinls.obj
 0002:00002a50       ??_C@_1BG@CMBHIPBE@?$AAs?$AAr?$AA?9?$AAB?$AAA?$AA?9?$AAC?$AAy?$AAr?$AAl@ 100a5a50     libcpmt:winapinls.obj
 0002:00002a68       ??_C@_1O@HEDBLHNP@?$AAs?$AAm?$AAa?$AA?9?$AAS?$AAE@ 100a5a68     libcpmt:winapinls.obj
 0002:00002a78       ??_C@_1M@DAGCADIM@?$AAa?$AAr?$AA?9?$AAO?$AAM@ 100a5a78     libcpmt:winapinls.obj
 0002:00002a84       ??_C@_1M@FODLMICG@?$AAe?$AAn?$AA?9?$AAJ?$AAM@ 100a5a84     libcpmt:winapinls.obj
 0002:00002a90       ??_C@_1M@DNMLCIHB@?$AAe?$AAs?$AA?9?$AAV?$AAE@ 100a5a90     libcpmt:winapinls.obj
 0002:00002a9c       ??_C@_1O@EOKHMKJK@?$AAs?$AAm?$AAs?$AA?9?$AAF?$AAI@ 100a5a9c     libcpmt:winapinls.obj
 0002:00002aac       ??_C@_1M@CAFJMKOF@?$AAa?$AAr?$AA?9?$AAY?$AAE@ 100a5aac     libcpmt:winapinls.obj
 0002:00002ab8       ??_C@_1M@CBFHIJLI@?$AAe?$AAn?$AA?9?$AAC?$AAB@ 100a5ab8     libcpmt:winapinls.obj
 0002:00002ac4       ??_C@_1M@BGNFLDN@?$AAe?$AAs?$AA?9?$AAC?$AAO@ 100a5ac4     libcpmt:winapinls.obj
 0002:00002ad0       ??_C@_1O@JMPHMAMC@?$AAs?$AAm?$AAn?$AA?9?$AAF?$AAI@ 100a5ad0     libcpmt:winapinls.obj
 0002:00002ae0       ??_C@_1M@JLANABKE@?$AAa?$AAr?$AA?9?$AAS?$AAY@ 100a5ae0     libcpmt:winapinls.obj
 0002:00002aec       ??_C@_1M@HPKGCFGN@?$AAe?$AAn?$AA?9?$AAB?$AAZ@ 100a5aec     libcpmt:winapinls.obj
 0002:00002af8       ??_C@_1M@OLJCMLGM@?$AAe?$AAs?$AA?9?$AAP?$AAE@ 100a5af8     libcpmt:winapinls.obj
 0002:00002b04       ??_C@_1M@MKKGFKLE@?$AAa?$AAr?$AA?9?$AAJ?$AAO@ 100a5b04     libcpmt:winapinls.obj
 0002:00002b10       ??_C@_1M@EKPGLDNI@?$AAe?$AAn?$AA?9?$AAT?$AAT@ 100a5b10     libcpmt:winapinls.obj
 0002:00002b1c       ??_C@_1M@OONGHFHE@?$AAe?$AAs?$AA?9?$AAA?$AAR@ 100a5b1c     libcpmt:winapinls.obj
 0002:00002b28       ??_C@_1M@OOJFGBHE@?$AAa?$AAr?$AA?9?$AAL?$AAB@ 100a5b28     libcpmt:winapinls.obj
 0002:00002b34       ??_C@_1M@GCEJHNEG@?$AAe?$AAn?$AA?9?$AAZ?$AAW@ 100a5b34     libcpmt:winapinls.obj
 0002:00002b40       ??_C@_1M@JNOCAHJI@?$AAe?$AAs?$AA?9?$AAE?$AAC@ 100a5b40     libcpmt:winapinls.obj
 0002:00002b4c       ??_C@_1M@JEFHPGGB@?$AAa?$AAr?$AA?9?$AAK?$AAW@ 100a5b4c     libcpmt:winapinls.obj
 0002:00002b58       ??_C@_1M@MLKIBJOJ@?$AAe?$AAn?$AA?9?$AAP?$AAH@ 100a5b58     libcpmt:winapinls.obj
 0002:00002b64       ??_C@_1M@BDNIPEND@?$AAe?$AAs?$AA?9?$AAC?$AAL@ 100a5b64     libcpmt:winapinls.obj
 0002:00002b70       ??_C@_1M@MPNMEKBD@?$AAa?$AAr?$AA?9?$AAA?$AAE@ 100a5b70     libcpmt:winapinls.obj
 0002:00002b7c       ??_C@_1M@KBJALCPI@?$AAe?$AAs?$AA?9?$AAU?$AAY@ 100a5b7c     libcpmt:winapinls.obj
 0002:00002b88       ??_C@_1M@LLCCOAGA@?$AAa?$AAr?$AA?9?$AAB?$AAH@ 100a5b88     libcpmt:winapinls.obj
 0002:00002b94       ??_C@_1M@PBFNCDEL@?$AAe?$AAs?$AA?9?$AAP?$AAY@ 100a5b94     libcpmt:winapinls.obj
 0002:00002ba0       ??_C@_1M@EDGINPNP@?$AAa?$AAr?$AA?9?$AAQ?$AAA@ 100a5ba0     libcpmt:winapinls.obj
 0002:00002bac       ??_C@_1M@MKDBIIJI@?$AAe?$AAs?$AA?9?$AAB?$AAO@ 100a5bac     libcpmt:winapinls.obj
 0002:00002bb8       ??_C@_1M@CPKKEBLD@?$AAe?$AAs?$AA?9?$AAS?$AAV@ 100a5bb8     libcpmt:winapinls.obj
 0002:00002bc4       ??_C@_1M@NDBGMMJL@?$AAe?$AAs?$AA?9?$AAH?$AAN@ 100a5bc4     libcpmt:winapinls.obj
 0002:00002bd0       ??_C@_1M@JIJIBHDP@?$AAe?$AAs?$AA?9?$AAN?$AAI@ 100a5bd0     libcpmt:winapinls.obj
 0002:00002bdc       ??_C@_1M@CGFMKEEK@?$AAe?$AAs?$AA?9?$AAP?$AAR@ 100a5bdc     libcpmt:winapinls.obj
 0002:00002be8       ??_C@_1O@ICJHKIIK@?$AAz?$AAh?$AA?9?$AAC?$AAH?$AAT@ 100a5be8     libcpmt:winapinls.obj
 0002:00002bf8       ??_C@_15CLNEJCE@?$AAs?$AAr@ 100a5bf8     libcpmt:winapinls.obj
 0002:00002c00       ??_C@_1M@KAHEKEIG@?$AAa?$AAf?$AA?9?$AAz?$AAa@ 100a5c00     libcpmt:winapinls.obj
 0002:00002c0c       ??_C@_1M@GIECOABL@?$AAa?$AAr?$AA?9?$AAa?$AAe@ 100a5c0c     libcpmt:winapinls.obj
 0002:00002c18       ??_C@_1M@BMLMEKGI@?$AAa?$AAr?$AA?9?$AAb?$AAh@ 100a5c18     libcpmt:winapinls.obj
 0002:00002c24       ??_C@_1M@DAPFDGGB@?$AAa?$AAr?$AA?9?$AAd?$AAz@ 100a5c24     libcpmt:winapinls.obj
 0002:00002c30       ??_C@_1M@FJNKGKIG@?$AAa?$AAr?$AA?9?$AAe?$AAg@ 100a5c30     libcpmt:winapinls.obj
 0002:00002c3c       ??_C@_1M@FLGKKCLO@?$AAa?$AAr?$AA?9?$AAi?$AAq@ 100a5c3c     libcpmt:winapinls.obj
 0002:00002c48       ??_C@_1M@GNDIPALM@?$AAa?$AAr?$AA?9?$AAj?$AAo@ 100a5c48     libcpmt:winapinls.obj
 0002:00002c54       ??_C@_1M@DDMJFMGJ@?$AAa?$AAr?$AA?9?$AAk?$AAw@ 100a5c54     libcpmt:winapinls.obj
 0002:00002c60       ??_C@_1M@EJALMLHM@?$AAa?$AAr?$AA?9?$AAl?$AAb@ 100a5c60     libcpmt:winapinls.obj
 0002:00002c6c       ??_C@_1M@MOBDBLOC@?$AAa?$AAr?$AA?9?$AAl?$AAy@ 100a5c6c     libcpmt:winapinls.obj
 0002:00002c78       ??_C@_1M@JAOCLHDH@?$AAa?$AAr?$AA?9?$AAm?$AAa@ 100a5c78     libcpmt:winapinls.obj
 0002:00002c84       ??_C@_1M@JHPMKJIE@?$AAa?$AAr?$AA?9?$AAo?$AAm@ 100a5c84     libcpmt:winapinls.obj
 0002:00002c90       ??_C@_1M@OEPGHFNH@?$AAa?$AAr?$AA?9?$AAq?$AAa@ 100a5c90     libcpmt:winapinls.obj
 0002:00002c9c       ??_C@_1M@KJDONENM@?$AAa?$AAr?$AA?9?$AAs?$AAa@ 100a5c9c     libcpmt:winapinls.obj
 0002:00002ca8       ??_C@_1M@DMJDKLKM@?$AAa?$AAr?$AA?9?$AAs?$AAy@ 100a5ca8     libcpmt:winapinls.obj
 0002:00002cb4       ??_C@_1M@OMFIPEDC@?$AAa?$AAr?$AA?9?$AAt?$AAn@ 100a5cb4     libcpmt:winapinls.obj
 0002:00002cc0       ??_C@_1M@IHMHGAON@?$AAa?$AAr?$AA?9?$AAy?$AAe@ 100a5cc0     libcpmt:winapinls.obj
 0002:00002ccc       ??_C@_1BG@KDCPGJGB@?$AAa?$AAz?$AA?9?$AAa?$AAz?$AA?9?$AAc?$AAy?$AAr?$AAl@ 100a5ccc     libcpmt:winapinls.obj
 0002:00002ce4       ??_C@_1BG@IBCKDDOE@?$AAa?$AAz?$AA?9?$AAa?$AAz?$AA?9?$AAl?$AAa?$AAt?$AAn@ 100a5ce4     libcpmt:winapinls.obj
 0002:00002cfc       ??_C@_1M@EGPFDCPD@?$AAb?$AAe?$AA?9?$AAb?$AAy@ 100a5cfc     libcpmt:winapinls.obj
 0002:00002d08       ??_C@_1M@PCMGMCGC@?$AAb?$AAg?$AA?9?$AAb?$AAg@ 100a5d08     libcpmt:winapinls.obj
 0002:00002d14       ??_C@_1M@BJBMFGOB@?$AAb?$AAn?$AA?9?$AAi?$AAn@ 100a5d14     libcpmt:winapinls.obj
 0002:00002d20       ??_C@_1BG@EAKMMACD@?$AAb?$AAs?$AA?9?$AAb?$AAa?$AA?9?$AAl?$AAa?$AAt?$AAn@ 100a5d20     libcpmt:winapinls.obj
 0002:00002d38       ??_C@_1M@KGADAODK@?$AAc?$AAa?$AA?9?$AAe?$AAs@ 100a5d38     libcpmt:winapinls.obj
 0002:00002d44       ??_C@_1M@COAJPDHI@?$AAc?$AAs?$AA?9?$AAc?$AAz@ 100a5d44     libcpmt:winapinls.obj
 0002:00002d50       ??_C@_1M@DHBHFONH@?$AAc?$AAy?$AA?9?$AAg?$AAb@ 100a5d50     libcpmt:winapinls.obj
 0002:00002d5c       ??_C@_1M@IMGKELGA@?$AAd?$AAa?$AA?9?$AAd?$AAk@ 100a5d5c     libcpmt:winapinls.obj
 0002:00002d68       ??_C@_1M@NNDGDNGA@?$AAd?$AAe?$AA?9?$AAa?$AAt@ 100a5d68     libcpmt:winapinls.obj
 0002:00002d74       ??_C@_1M@IKDBHEEM@?$AAd?$AAe?$AA?9?$AAc?$AAh@ 100a5d74     libcpmt:winapinls.obj
 0002:00002d80       ??_C@_1M@GFFOJMCJ@?$AAd?$AAe?$AA?9?$AAd?$AAe@ 100a5d80     libcpmt:winapinls.obj
 0002:00002d8c       ??_C@_1M@MDNLKBPM@?$AAd?$AAe?$AA?9?$AAl?$AAi@ 100a5d8c     libcpmt:winapinls.obj
 0002:00002d98       ??_C@_1M@NJBEEJNL@?$AAd?$AAe?$AA?9?$AAl?$AAu@ 100a5d98     libcpmt:winapinls.obj
 0002:00002da4       ??_C@_1O@GNNELBAP@?$AAd?$AAi?$AAv?$AA?9?$AAm?$AAv@ 100a5da4     libcpmt:winapinls.obj
 0002:00002db4       ??_C@_1M@EJLEOGAE@?$AAe?$AAl?$AA?9?$AAg?$AAr@ 100a5db4     libcpmt:winapinls.obj
 0002:00002dc0       ??_C@_1M@GMPONJN@?$AAe?$AAn?$AA?9?$AAa?$AAu@ 100a5dc0     libcpmt:winapinls.obj
 0002:00002dcc       ??_C@_1M@NIDIIPGF@?$AAe?$AAn?$AA?9?$AAb?$AAz@ 100a5dcc     libcpmt:winapinls.obj
 0002:00002dd8       ??_C@_1M@JEHMIMFO@?$AAe?$AAn?$AA?9?$AAc?$AAa@ 100a5dd8     libcpmt:winapinls.obj
 0002:00002de4       ??_C@_1M@IGMJCDLA@?$AAe?$AAn?$AA?9?$AAc?$AAb@ 100a5de4     libcpmt:winapinls.obj
 0002:00002df0       ??_C@_1M@BNFIGBKG@?$AAe?$AAn?$AA?9?$AAg?$AAb@ 100a5df0     libcpmt:winapinls.obj
 0002:00002dfc       ??_C@_1M@LKIFDIGP@?$AAe?$AAn?$AA?9?$AAi?$AAe@ 100a5dfc     libcpmt:winapinls.obj
 0002:00002e08       ??_C@_1M@PJKFGCCO@?$AAe?$AAn?$AA?9?$AAj?$AAm@ 100a5e08     libcpmt:winapinls.obj
 0002:00002e14       ??_C@_1M@KPPKEPBO@?$AAe?$AAn?$AA?9?$AAn?$AAz@ 100a5e14     libcpmt:winapinls.obj
 0002:00002e20       ??_C@_1M@GMDGLDOB@?$AAe?$AAn?$AA?9?$AAp?$AAh@ 100a5e20     libcpmt:winapinls.obj
 0002:00002e2c       ??_C@_1M@ONGIBJNA@?$AAe?$AAn?$AA?9?$AAt?$AAt@ 100a5e2c     libcpmt:winapinls.obj
 0002:00002e38       ??_C@_1M@LLODPCMM@?$AAe?$AAn?$AA?9?$AAu?$AAs@ 100a5e38     libcpmt:winapinls.obj
 0002:00002e44       ??_C@_1M@LAKFNPAN@?$AAe?$AAn?$AA?9?$AAz?$AAa@ 100a5e44     libcpmt:winapinls.obj
 0002:00002e50       ??_C@_1M@MFNHNHEO@?$AAe?$AAn?$AA?9?$AAz?$AAw@ 100a5e50     libcpmt:winapinls.obj
 0002:00002e5c       ??_C@_1M@EJEINPHM@?$AAe?$AAs?$AA?9?$AAa?$AAr@ 100a5e5c     libcpmt:winapinls.obj
 0002:00002e68       ??_C@_1M@GNKPCCJA@?$AAe?$AAs?$AA?9?$AAb?$AAo@ 100a5e68     libcpmt:winapinls.obj
 0002:00002e74       ??_C@_1M@LEEGFONL@?$AAe?$AAs?$AA?9?$AAc?$AAl@ 100a5e74     libcpmt:winapinls.obj
 0002:00002e80       ??_C@_1M@KGPDPBDF@?$AAe?$AAs?$AA?9?$AAc?$AAo@ 100a5e80     libcpmt:winapinls.obj
 0002:00002e8c       ??_C@_1M@EIAHOHH@?$AAe?$AAs?$AA?9?$AAc?$AAr@ 100a5e8c     libcpmt:winapinls.obj
 0002:00002e98       ??_C@_1M@LLPGMBIN@?$AAe?$AAs?$AA?9?$AAd?$AAo@ 100a5e98     libcpmt:winapinls.obj
 0002:00002ea4       ??_C@_1M@DKHMKNJA@?$AAe?$AAs?$AA?9?$AAe?$AAc@ 100a5ea4     libcpmt:winapinls.obj
 0002:00002eb0       ??_C@_1M@GKGFPKAP@?$AAe?$AAs?$AA?9?$AAe?$AAs@ 100a5eb0     libcpmt:winapinls.obj
 0002:00002ebc       ??_C@_1M@LKHKGDLN@?$AAe?$AAs?$AA?9?$AAg?$AAt@ 100a5ebc     libcpmt:winapinls.obj
 0002:00002ec8       ??_C@_1M@HEIIGGJD@?$AAe?$AAs?$AA?9?$AAh?$AAn@ 100a5ec8     libcpmt:winapinls.obj
 0002:00002ed4       ??_C@_1M@FBDHPPGD@?$AAe?$AAs?$AA?9?$AAm?$AAx@ 100a5ed4     libcpmt:winapinls.obj
 0002:00002ee0       ??_C@_1M@DPAGLNDH@?$AAe?$AAs?$AA?9?$AAn?$AAi@ 100a5ee0     libcpmt:winapinls.obj
 0002:00002eec       ??_C@_1M@MDGOPGDD@?$AAe?$AAs?$AA?9?$AAp?$AAa@ 100a5eec     libcpmt:winapinls.obj
 0002:00002ef8       ??_C@_1M@EMAMGBGE@?$AAe?$AAs?$AA?9?$AAp?$AAe@ 100a5ef8     libcpmt:winapinls.obj
 0002:00002f04       ??_C@_1M@IBMCAOEC@?$AAe?$AAs?$AA?9?$AAp?$AAr@ 100a5f04     libcpmt:winapinls.obj
 0002:00002f10       ??_C@_1M@FGMDIJED@?$AAe?$AAs?$AA?9?$AAp?$AAy@ 100a5f10     libcpmt:winapinls.obj
 0002:00002f1c       ??_C@_1M@IIDEOLLL@?$AAe?$AAs?$AA?9?$AAs?$AAv@ 100a5f1c     libcpmt:winapinls.obj
 0002:00002f28       ??_C@_1M@GAOBIPA@?$AAe?$AAs?$AA?9?$AAu?$AAy@ 100a5f28     libcpmt:winapinls.obj
 0002:00002f34       ??_C@_1M@JKFFICHJ@?$AAe?$AAs?$AA?9?$AAv?$AAe@ 100a5f34     libcpmt:winapinls.obj
 0002:00002f40       ??_C@_1M@PNMLOJDF@?$AAe?$AAt?$AA?9?$AAe?$AAe@ 100a5f40     libcpmt:winapinls.obj
 0002:00002f4c       ??_C@_1M@GHHLIKEI@?$AAe?$AAu?$AA?9?$AAe?$AAs@ 100a5f4c     libcpmt:winapinls.obj
 0002:00002f58       ??_C@_1M@PBNONODE@?$AAf?$AAa?$AA?9?$AAi?$AAr@ 100a5f58     libcpmt:winapinls.obj
 0002:00002f64       ??_C@_1M@JEEHPMIL@?$AAf?$AAi?$AA?9?$AAf?$AAi@ 100a5f64     libcpmt:winapinls.obj
 0002:00002f70       ??_C@_1M@LMDCNDBA@?$AAf?$AAo?$AA?9?$AAf?$AAo@ 100a5f70     libcpmt:winapinls.obj
 0002:00002f7c       ??_C@_1M@JKEOHLDK@?$AAf?$AAr?$AA?9?$AAb?$AAe@ 100a5f7c     libcpmt:winapinls.obj
 0002:00002f88       ??_C@_1M@NOHADPMI@?$AAf?$AAr?$AA?9?$AAc?$AAa@ 100a5f88     libcpmt:winapinls.obj
 0002:00002f94       ??_C@_1M@KDHIHAEC@?$AAf?$AAr?$AA?9?$AAc?$AAh@ 100a5f94     libcpmt:winapinls.obj
 0002:00002fa0       ??_C@_1M@MMBBFGAK@?$AAf?$AAr?$AA?9?$AAf?$AAr@ 100a5fa0     libcpmt:winapinls.obj
 0002:00002fac       ??_C@_1M@PAFNENNF@?$AAf?$AAr?$AA?9?$AAl?$AAu@ 100a5fac     libcpmt:winapinls.obj
 0002:00002fb8       ??_C@_1M@EOHDJGDD@?$AAf?$AAr?$AA?9?$AAm?$AAc@ 100a5fb8     libcpmt:winapinls.obj
 0002:00002fc4       ??_C@_1M@FAPLLOPF@?$AAg?$AAl?$AA?9?$AAe?$AAs@ 100a5fc4     libcpmt:winapinls.obj
 0002:00002fd0       ??_C@_1M@FOPBFLOO@?$AAg?$AAu?$AA?9?$AAi?$AAn@ 100a5fd0     libcpmt:winapinls.obj
 0002:00002fdc       ??_C@_1M@KBMCINPM@?$AAh?$AAe?$AA?9?$AAi?$AAl@ 100a5fdc     libcpmt:winapinls.obj
 0002:00002fe8       ??_C@_1M@BBPHKFPJ@?$AAh?$AAi?$AA?9?$AAi?$AAn@ 100a5fe8     libcpmt:winapinls.obj
 0002:00002ff4       ??_C@_1M@PMBNDPHD@?$AAh?$AAr?$AA?9?$AAb?$AAa@ 100a5ff4     libcpmt:winapinls.obj
 0002:00003000       ??_C@_1M@BPCKOEGE@?$AAh?$AAr?$AA?9?$AAh?$AAr@ 100a6000     libcpmt:winapinls.obj
 0002:0000300c       ??_C@_1M@GACBMHKE@?$AAh?$AAu?$AA?9?$AAh?$AAu@ 100a600c     libcpmt:winapinls.obj
 0002:00003018       ??_C@_1M@MILPAJJC@?$AAh?$AAy?$AA?9?$AAa?$AAm@ 100a6018     libcpmt:winapinls.obj
 0002:00003024       ??_C@_1M@BABBICEC@?$AAi?$AAd?$AA?9?$AAi?$AAd@ 100a6024     libcpmt:winapinls.obj
 0002:00003030       ??_C@_1M@BIKNHHPF@?$AAi?$AAs?$AA?9?$AAi?$AAs@ 100a6030     libcpmt:winapinls.obj
 0002:0000303c       ??_C@_1M@NMPCJPHE@?$AAi?$AAt?$AA?9?$AAc?$AAh@ 100a603c     libcpmt:winapinls.obj
 0002:00003048       ??_C@_1M@GHKGFEDF@?$AAi?$AAt?$AA?9?$AAi?$AAt@ 100a6048     libcpmt:winapinls.obj
 0002:00003054       ??_C@_1M@NIEJCJJA@?$AAj?$AAa?$AA?9?$AAj?$AAp@ 100a6054     libcpmt:winapinls.obj
 0002:00003060       ??_C@_1M@JILFNBIM@?$AAk?$AAa?$AA?9?$AAg?$AAe@ 100a6060     libcpmt:winapinls.obj
 0002:0000306c       ??_C@_1M@PACPMGPH@?$AAk?$AAk?$AA?9?$AAk?$AAz@ 100a606c     libcpmt:winapinls.obj
 0002:00003078       ??_C@_1M@IELFGMHA@?$AAk?$AAn?$AA?9?$AAi?$AAn@ 100a6078     libcpmt:winapinls.obj
 0002:00003084       ??_C@_1M@DMHAEOGC@?$AAk?$AAo?$AA?9?$AAk?$AAr@ 100a6084     libcpmt:winapinls.obj
 0002:00003090       ??_C@_1O@IBBJHCH@?$AAk?$AAo?$AAk?$AA?9?$AAi?$AAn@ 100a6090     libcpmt:winapinls.obj
 0002:000030a0       ??_C@_1M@HBAHBIGA@?$AAk?$AAy?$AA?9?$AAk?$AAg@ 100a60a0     libcpmt:winapinls.obj
 0002:000030ac       ??_C@_1M@KPMILCJG@?$AAl?$AAt?$AA?9?$AAl?$AAt@ 100a60ac     libcpmt:winapinls.obj
 0002:000030b8       ??_C@_1M@BDEKKCA@?$AAl?$AAv?$AA?9?$AAl?$AAv@ 100a60b8     libcpmt:winapinls.obj
 0002:000030c4       ??_C@_1M@ELCKCCJJ@?$AAm?$AAi?$AA?9?$AAn?$AAz@ 100a60c4     libcpmt:winapinls.obj
 0002:000030d0       ??_C@_1M@CBOOLAPA@?$AAm?$AAk?$AA?9?$AAm?$AAk@ 100a60d0     libcpmt:winapinls.obj
 0002:000030dc       ??_C@_1M@GPHNBJKN@?$AAm?$AAl?$AA?9?$AAi?$AAn@ 100a60dc     libcpmt:winapinls.obj
 0002:000030e8       ??_C@_1M@PABJILIG@?$AAm?$AAn?$AA?9?$AAm?$AAn@ 100a60e8     libcpmt:winapinls.obj
 0002:000030f4       ??_C@_1M@FGBKKIPG@?$AAm?$AAr?$AA?9?$AAi?$AAn@ 100a60f4     libcpmt:winapinls.obj
 0002:00003100       ??_C@_1M@NDBPDDAL@?$AAm?$AAs?$AA?9?$AAb?$AAn@ 100a6100     libcpmt:winapinls.obj
 0002:0000310c       ??_C@_1M@OPIHOOPI@?$AAm?$AAs?$AA?9?$AAm?$AAy@ 100a610c     libcpmt:winapinls.obj
 0002:00003118       ??_C@_1M@PPDBCNFM@?$AAm?$AAt?$AA?9?$AAm?$AAt@ 100a6118     libcpmt:winapinls.obj
 0002:00003124       ??_C@_1M@KDJDKMDD@?$AAn?$AAb?$AA?9?$AAn?$AAo@ 100a6124     libcpmt:winapinls.obj
 0002:00003130       ??_C@_1M@KFCFLMJP@?$AAn?$AAl?$AA?9?$AAb?$AAe@ 100a6130     libcpmt:winapinls.obj
 0002:0000313c       ??_C@_1M@KPOPDDGO@?$AAn?$AAl?$AA?9?$AAn?$AAl@ 100a613c     libcpmt:winapinls.obj
 0002:00003148       ??_C@_1M@LJKPEMLN@?$AAn?$AAn?$AA?9?$AAn?$AAo@ 100a6148     libcpmt:winapinls.obj
 0002:00003154       ??_C@_1M@BDGHHBFL@?$AAn?$AAs?$AA?9?$AAz?$AAa@ 100a6154     libcpmt:winapinls.obj
 0002:00003160       ??_C@_1M@IDEHOAP@?$AAp?$AAa?$AA?9?$AAi?$AAn@ 100a6160     libcpmt:winapinls.obj
 0002:0000316c       ??_C@_1M@HDBKGOGH@?$AAp?$AAl?$AA?9?$AAp?$AAl@ 100a616c     libcpmt:winapinls.obj
 0002:00003178       ??_C@_1M@LJLLCMEH@?$AAp?$AAt?$AA?9?$AAb?$AAr@ 100a6178     libcpmt:winapinls.obj
 0002:00003184       ??_C@_1M@NCMONAAL@?$AAp?$AAt?$AA?9?$AAp?$AAt@ 100a6184     libcpmt:winapinls.obj
 0002:00003190       ??_C@_1O@EAKMAJDN@?$AAq?$AAu?$AAz?$AA?9?$AAb?$AAo@ 100a6190     libcpmt:winapinls.obj
 0002:000031a0       ??_C@_1O@BHHPIGDN@?$AAq?$AAu?$AAz?$AA?9?$AAe?$AAc@ 100a61a0     libcpmt:winapinls.obj
 0002:000031b0       ??_C@_1O@GBAPEKMJ@?$AAq?$AAu?$AAz?$AA?9?$AAp?$AAe@ 100a61b0     libcpmt:winapinls.obj
 0002:000031c0       ??_C@_1M@CLGLEFBO@?$AAr?$AAo?$AA?9?$AAr?$AAo@ 100a61c0     libcpmt:winapinls.obj
 0002:000031cc       ??_C@_1M@CEEDODME@?$AAr?$AAu?$AA?9?$AAr?$AAu@ 100a61cc     libcpmt:winapinls.obj
 0002:000031d8       ??_C@_1M@HPKKKMPP@?$AAs?$AAa?$AA?9?$AAi?$AAn@ 100a61d8     libcpmt:winapinls.obj
 0002:000031e4       ??_C@_1M@BKMAIGOJ@?$AAs?$AAe?$AA?9?$AAf?$AAi@ 100a61e4     libcpmt:winapinls.obj
 0002:000031f0       ??_C@_1M@NDPIFLFI@?$AAs?$AAe?$AA?9?$AAn?$AAo@ 100a61f0     libcpmt:winapinls.obj
 0002:000031fc       ??_C@_1M@DANKKHJ@?$AAs?$AAe?$AA?9?$AAs?$AAe@ 100a61fc     libcpmt:winapinls.obj
 0002:00003208       ??_C@_1M@PNBLONPJ@?$AAs?$AAk?$AA?9?$AAs?$AAk@ 100a6208     libcpmt:winapinls.obj
 0002:00003214       ??_C@_1M@LFMODOAL@?$AAs?$AAl?$AA?9?$AAs?$AAi@ 100a6214     libcpmt:winapinls.obj
 0002:00003220       ??_C@_1O@DFKOMPG@?$AAs?$AAm?$AAa?$AA?9?$AAn?$AAo@ 100a6220     libcpmt:winapinls.obj
 0002:00003230       ??_C@_1O@NDKPBNNH@?$AAs?$AAm?$AAa?$AA?9?$AAs?$AAe@ 100a6230     libcpmt:winapinls.obj
 0002:00003240       ??_C@_1O@PLLKBHAB@?$AAs?$AAm?$AAj?$AA?9?$AAn?$AAo@ 100a6240     libcpmt:winapinls.obj
 0002:00003250       ??_C@_1O@CLEPOGCA@?$AAs?$AAm?$AAj?$AA?9?$AAs?$AAe@ 100a6250     libcpmt:winapinls.obj
 0002:00003260       ??_C@_1O@DLGJGKMK@?$AAs?$AAm?$AAn?$AA?9?$AAf?$AAi@ 100a6260     libcpmt:winapinls.obj
 0002:00003270       ??_C@_1O@OJDJGAJC@?$AAs?$AAm?$AAs?$AA?9?$AAf?$AAi@ 100a6270     libcpmt:winapinls.obj
 0002:00003280       ??_C@_1M@BOFOGHPB@?$AAs?$AAq?$AA?9?$AAa?$AAl@ 100a6280     libcpmt:winapinls.obj
 0002:0000328c       ??_C@_1BG@LJBBIPGB@?$AAs?$AAr?$AA?9?$AAb?$AAa?$AA?9?$AAc?$AAy?$AAr?$AAl@ 100a628c     libcpmt:winapinls.obj
 0002:000032a4       ??_C@_1BG@JLBENFOE@?$AAs?$AAr?$AA?9?$AAb?$AAa?$AA?9?$AAl?$AAa?$AAt?$AAn@ 100a62a4     libcpmt:winapinls.obj
 0002:000032bc       ??_C@_1BG@KODPNHE@?$AAs?$AAr?$AA?9?$AAs?$AAp?$AA?9?$AAc?$AAy?$AAr?$AAl@ 100a62bc     libcpmt:winapinls.obj
 0002:000032d4       ??_C@_1BG@CIOGKHPB@?$AAs?$AAr?$AA?9?$AAs?$AAp?$AA?9?$AAl?$AAa?$AAt?$AAn@ 100a62d4     libcpmt:winapinls.obj
 0002:000032ec       ??_C@_1M@NGFJLMAC@?$AAs?$AAv?$AA?9?$AAf?$AAi@ 100a62ec     libcpmt:winapinls.obj
 0002:000032f8       ??_C@_1M@MPJEJAJC@?$AAs?$AAv?$AA?9?$AAs?$AAe@ 100a62f8     libcpmt:winapinls.obj
 0002:00003304       ??_C@_1M@MPNDHLFK@?$AAs?$AAw?$AA?9?$AAk?$AAe@ 100a6304     libcpmt:winapinls.obj
 0002:00003310       ??_C@_1O@KOHBJJI@?$AAs?$AAy?$AAr?$AA?9?$AAs?$AAy@ 100a6310     libcpmt:winapinls.obj
 0002:00003320       ??_C@_1M@LDCEFHA@?$AAt?$AAa?$AA?9?$AAi?$AAn@ 100a6320     libcpmt:winapinls.obj
 0002:0000332c       ??_C@_1M@CNJOFAK@?$AAt?$AAe?$AA?9?$AAi?$AAn@ 100a632c     libcpmt:winapinls.obj
 0002:00003338       ??_C@_1M@GNAECACD@?$AAt?$AAh?$AA?9?$AAt?$AAh@ 100a6338     libcpmt:winapinls.obj
 0002:00003344       ??_C@_1M@CHBIHOJO@?$AAt?$AAn?$AA?9?$AAz?$AAa@ 100a6344     libcpmt:winapinls.obj
 0002:00003350       ??_C@_1M@GCCMIGPJ@?$AAt?$AAr?$AA?9?$AAt?$AAr@ 100a6350     libcpmt:winapinls.obj
 0002:0000335c       ??_C@_1M@CELMCNBK@?$AAt?$AAt?$AA?9?$AAr?$AAu@ 100a635c     libcpmt:winapinls.obj
 0002:00003368       ??_C@_1M@KLMCELGA@?$AAu?$AAk?$AA?9?$AAu?$AAa@ 100a6368     libcpmt:winapinls.obj
 0002:00003374       ??_C@_1M@EPAJJAJF@?$AAu?$AAr?$AA?9?$AAp?$AAk@ 100a6374     libcpmt:winapinls.obj
 0002:00003380       ??_C@_1BG@GEGPMCDJ@?$AAu?$AAz?$AA?9?$AAu?$AAz?$AA?9?$AAc?$AAy?$AAr?$AAl@ 100a6380     libcpmt:winapinls.obj
 0002:00003398       ??_C@_1BG@EGGKJILM@?$AAu?$AAz?$AA?9?$AAu?$AAz?$AA?9?$AAl?$AAa?$AAt?$AAn@ 100a6398     libcpmt:winapinls.obj
 0002:000033b0       ??_C@_1M@GFOCLFF@?$AAv?$AAi?$AA?9?$AAv?$AAn@ 100a63b0     libcpmt:winapinls.obj
 0002:000033bc       ??_C@_1M@CPAMEDFI@?$AAx?$AAh?$AA?9?$AAz?$AAa@ 100a63bc     libcpmt:winapinls.obj
 0002:000033c8       ??_C@_1O@EBKIFIGN@?$AAz?$AAh?$AA?9?$AAc?$AAh?$AAs@ 100a63c8     libcpmt:winapinls.obj
 0002:000033d8       ??_C@_1O@NMHPGANE@?$AAz?$AAh?$AA?9?$AAc?$AAh?$AAt@ 100a63d8     libcpmt:winapinls.obj
 0002:000033e8       ??_C@_1M@LPINJOMC@?$AAz?$AAh?$AA?9?$AAc?$AAn@ 100a63e8     libcpmt:winapinls.obj
 0002:000033f4       ??_C@_1M@OCJEJODD@?$AAz?$AAh?$AA?9?$AAh?$AAk@ 100a63f4     libcpmt:winapinls.obj
 0002:00003400       ??_C@_1M@DNDLJINH@?$AAz?$AAh?$AA?9?$AAm?$AAo@ 100a6400     libcpmt:winapinls.obj
 0002:0000340c       ??_C@_1M@MBFDNDND@?$AAz?$AAh?$AA?9?$AAs?$AAg@ 100a640c     libcpmt:winapinls.obj
 0002:00003418       ??_C@_1M@IMEPLEPE@?$AAz?$AAh?$AA?9?$AAt?$AAw@ 100a6418     libcpmt:winapinls.obj
 0002:00003424       ??_C@_1M@BBGHNHJP@?$AAz?$AAu?$AA?9?$AAz?$AAa@ 100a6424     libcpmt:winapinls.obj
 0002:00003434       ??_7type_info@@6B@         100a6434     LIBCMT:std_type_info_static.obj
 0002:00003438       __pRawDllMain              100a6438     LIBCMT:dll_dllmain.obj
 0002:00003438       __pDefaultRawDllMain       100a6438     LIBCMT:dll_dllmain.obj
 0002:00003444       __pDestructExceptionObject 100a6444     libvcruntime:ehhelpers.obj
 0002:0000344c       ??_7bad_typeid@std@@6B@    100a644c     libvcruntime:rtti.obj
 0002:00003458       ??_7__non_rtti_object@std@@6B@ 100a6458     libvcruntime:rtti.obj
 0002:00003460       ??_C@_0CB@CGKGGDFI@Access?5violation?5?9?5no?5RTTI?5data@ 100a6460     libvcruntime:rtti.obj
 0002:00003484       ??_C@_0CH@OLLMPELC@Attempted?5a?5typeid?5of?5nullptr?5p@ 100a6484     libvcruntime:rtti.obj
 0002:000034ac       ??_C@_0CB@EEENAAHH@Bad?5read?5pointer?5?9?5no?5RTTI?5data@ 100a64ac     libvcruntime:rtti.obj
 0002:000034d4       ??_7bad_exception@std@@6B@ 100a64d4     libvcruntime:frame.obj
 0002:000034dc       ??_C@_0O@DPKOEFFH@bad?5exception@ 100a64dc     libvcruntime:frame.obj
 0002:00003870       ??_C@_08EHJDFFNH@__based?$CI@ 100a6870     libvcruntime:undname.obj
 0002:0000387c       ??_C@_07KOLFKCDI@__cdecl@  100a687c     libvcruntime:undname.obj
 0002:00003884       ??_C@_08GHMPAG@__pascal@   100a6884     libvcruntime:undname.obj
 0002:00003890       ??_C@_09IFJBGAPI@__stdcall@ 100a6890     libvcruntime:undname.obj
 0002:0000389c       ??_C@_0L@NPHFGOKO@__thiscall@ 100a689c     libvcruntime:undname.obj
 0002:000038a8       ??_C@_0L@JMKHOMEK@__fastcall@ 100a68a8     libvcruntime:undname.obj
 0002:000038b4       ??_C@_0N@BCKKPABJ@__vectorcall@ 100a68b4     libvcruntime:undname.obj
 0002:000038c4       ??_C@_09HIJEGCPM@__clrcall@ 100a68c4     libvcruntime:undname.obj
 0002:000038d0       ??_C@_06GHPCKEAG@__eabi@   100a68d0     libvcruntime:undname.obj
 0002:000038d8       ??_C@_09IOPIDJLG@__swift_1@ 100a68d8     libvcruntime:undname.obj
 0002:000038e4       ??_C@_09KFNFGKHF@__swift_2@ 100a68e4     libvcruntime:undname.obj
 0002:000038f0       ??_C@_07JOMMBBKO@__ptr64@  100a68f0     libvcruntime:undname.obj
 0002:000038f8       ??_C@_0L@PILCLIHE@__restrict@ 100a68f8     libvcruntime:undname.obj
 0002:00003904       ??_C@_0M@GFIIJFMG@__unaligned@ 100a6904     libvcruntime:undname.obj
 0002:00003910       ??_C@_09DHDLOLLB@restrict?$CI@ 100a6910     libvcruntime:undname.obj
 0002:0000391c       ??_C@_04NIHEBCM@?5new@     100a691c     libvcruntime:undname.obj
 0002:00003924       ??_C@_07FPCDHGMM@?5delete@ 100a6924     libvcruntime:undname.obj
 0002:0000392c       ??_C@_01NEMOKFLO@?$DN@     100a692c     libvcruntime:undname.obj
 0002:00003930       ??_C@_02GPIOPFAK@?$DO?$DO@ 100a6930     libvcruntime:undname.obj
 0002:00003934       ??_C@_02FODMEDOG@?$DM?$DM@ 100a6934     libvcruntime:undname.obj
 0002:00003938       ??_C@_01DCLJPIOD@?$CB@     100a6938     libvcruntime:undname.obj
 0002:0000393c       ??_C@_02EGOFBIJA@?$DN?$DN@ 100a693c     libvcruntime:undname.obj
 0002:00003940       ??_C@_02FDNJECIE@?$CB?$DN@ 100a6940     libvcruntime:undname.obj
 0002:00003944       ??_C@_02GPECMEKF@?$FL?$FN@ 100a6944     libvcruntime:undname.obj
 0002:00003948       ??_C@_08LHJFAFGD@operator@ 100a6948     libvcruntime:undname.obj
 0002:00003954       ??_C@_02HBOOOICD@?9?$DO@   100a6954     libvcruntime:undname.obj
 0002:00003958       ??_C@_02ECNGHCIF@?$CL?$CL@ 100a6958     libvcruntime:undname.obj
 0002:0000395c       ??_C@_02BAABKJLB@?9?9@     100a695c     libvcruntime:undname.obj
 0002:00003960       ??_C@_01MIFGBAGJ@?$CL@     100a6960     libvcruntime:undname.obj
 0002:00003964       ??_C@_01HNPIGOCE@?$CG@     100a6964     libvcruntime:undname.obj
 0002:00003968       ??_C@_03MNHNFDLC@?9?$DO?$CK@ 100a6968     libvcruntime:undname.obj
 0002:0000396c       ??_C@_01KMDKNFGN@?1@       100a696c     libvcruntime:undname.obj
 0002:00003970       ??_C@_01FGNFDNOH@?$CF@     100a6970     libvcruntime:undname.obj
 0002:00003974       ??_C@_01MNNFJEPP@?$DM@     100a6974     libvcruntime:undname.obj
 0002:00003978       ??_C@_02EHCHHCKH@?$DM?$DN@ 100a6978     libvcruntime:undname.obj
 0002:0000397c       ??_C@_01PPODPGHN@?$DO@     100a697c     libvcruntime:undname.obj
 0002:00003980       ??_C@_02EEKDKGMJ@?$DO?$DN@ 100a6980     libvcruntime:undname.obj
 0002:00003984       ??_C@_01IHBHIGKO@?0@       100a6984     libvcruntime:undname.obj
 0002:00003988       ??_C@_02HCKGKOFO@?$CI?$CJ@ 100a6988     libvcruntime:undname.obj
 0002:0000398c       ??_C@_01PJKLJHI@?$HO@      100a698c     libvcruntime:undname.obj
 0002:00003990       ??_C@_01JKBOJNNK@?$FO@     100a6990     libvcruntime:undname.obj
 0002:00003994       ??_C@_01DNKMNLPK@?$HM@     100a6994     libvcruntime:undname.obj
 0002:00003998       ??_C@_02PPKAJPJL@?$CG?$CG@ 100a6998     libvcruntime:undname.obj
 0002:0000399c       ??_C@_02NONPIBCD@?$HM?$HM@ 100a699c     libvcruntime:undname.obj
 0002:000039a0       ??_C@_02FPIMKNGF@?$CK?$DN@ 100a69a0     libvcruntime:undname.obj
 0002:000039a4       ??_C@_02FOEOMHFC@?$CL?$DN@ 100a69a4     libvcruntime:undname.obj
 0002:000039a8       ??_C@_02FKMDLLOA@?9?$DN@   100a69a8     libvcruntime:undname.obj
 0002:000039ac       ??_C@_02FJEHGPIO@?1?$DN@   100a69ac     libvcruntime:undname.obj
 0002:000039b0       ??_C@_02FENAOKFI@?$CF?$DN@ 100a69b0     libvcruntime:undname.obj
 0002:000039b4       ??_C@_03IKFCCPFF@?$DO?$DO?$DN@ 100a69b4     libvcruntime:undname.obj
 0002:000039b8       ??_C@_03CDNPDDLA@?$DM?$DM?$DN@ 100a69b8     libvcruntime:undname.obj
 0002:000039bc       ??_C@_02FGJGFEAB@?$CG?$DN@ 100a69bc     libvcruntime:undname.obj
 0002:000039c0       ??_C@_02DHLNPPGH@?$HM?$DN@ 100a69c0     libvcruntime:undname.obj
 0002:000039c4       ??_C@_02MHEGNOJ@?$FO?$DN@  100a69c4     libvcruntime:undname.obj
 0002:000039c8       ??_C@_09IFPLHPGF@?$GAvftable?8@ 100a69c8     libvcruntime:undname.obj
 0002:000039d4       ??_C@_09BLBHBJP@?$GAvbtable?8@ 100a69d4     libvcruntime:undname.obj
 0002:000039e0       ??_C@_07FEEIOKP@?$GAvcall?8@ 100a69e0     libvcruntime:undname.obj
 0002:000039e8       ??_C@_08LLFFHHDJ@?$GAtypeof?8@ 100a69e8     libvcruntime:undname.obj
 0002:000039f4       ??_C@_0BF@KDPPACIK@?$GAlocal?5static?5guard?8@ 100a69f4     libvcruntime:undname.obj
 0002:00003a0c       ??_C@_08OBABFOLI@?$GAstring?8@ 100a6a0c     libvcruntime:undname.obj
 0002:00003a18       ??_C@_0BD@JDLKDPAB@?$GAvbase?5destructor?8@ 100a6a18     libvcruntime:undname.obj
 0002:00003a2c       ??_C@_0BN@DEGPLNFK@?$GAvector?5deleting?5destructor?8@ 100a6a2c     libvcruntime:undname.obj
 0002:00003a4c       ??_C@_0BO@OBMKPJIG@?$GAdefault?5constructor?5closure?8@ 100a6a4c     libvcruntime:undname.obj
 0002:00003a6c       ??_C@_0BN@IMDCHIKM@?$GAscalar?5deleting?5destructor?8@ 100a6a6c     libvcruntime:undname.obj
 0002:00003a8c       ??_C@_0BO@PFGOCPJJ@?$GAvector?5constructor?5iterator?8@ 100a6a8c     libvcruntime:undname.obj
 0002:00003aac       ??_C@_0BN@LFPFMEDL@?$GAvector?5destructor?5iterator?8@ 100a6aac     libvcruntime:undname.obj
 0002:00003acc       ??_C@_0CE@IKBNEHA@?$GAvector?5vbase?5constructor?5itera@ 100a6acc     libvcruntime:undname.obj
 0002:00003af0       ??_C@_0BL@NILFHHPC@?$GAvirtual?5displacement?5map?8@ 100a6af0     libvcruntime:undname.obj
 0002:00003b0c       ??_C@_0CB@JONCMFFK@?$GAeh?5vector?5constructor?5iterator@ 100a6b0c     libvcruntime:undname.obj
 0002:00003b30       ??_C@_0CA@GCEOPDGL@?$GAeh?5vector?5destructor?5iterator?8@ 100a6b30     libvcruntime:undname.obj
 0002:00003b50       ??_C@_0CH@OOJPLCPH@?$GAeh?5vector?5vbase?5constructor?5it@ 100a6b50     libvcruntime:undname.obj
 0002:00003b78       ??_C@_0BL@LLKPOHJI@?$GAcopy?5constructor?5closure?8@ 100a6b78     libvcruntime:undname.obj
 0002:00003b94       ??_C@_0BA@KBCDOMBN@?$GAudt?5returning?8@ 100a6b94     libvcruntime:undname.obj
 0002:00003ba4       ??_C@_03KLGMFNMG@?$GAEH@   100a6ba4     libvcruntime:undname.obj
 0002:00003ba8       ??_C@_05KHLCHHI@?$GARTTI@  100a6ba8     libvcruntime:undname.obj
 0002:00003bb0       ??_C@_0BA@KKLDJDLB@?$GAlocal?5vftable?8@ 100a6bb0     libvcruntime:undname.obj
 0002:00003bc0       ??_C@_0CE@IIHCMGGL@?$GAlocal?5vftable?5constructor?5clos@ 100a6bc0     libvcruntime:undname.obj
 0002:00003be4       ??_C@_06FHBGPFGH@?5new?$FL?$FN@ 100a6be4     libvcruntime:undname.obj
 0002:00003bec       ??_C@_09LBNFPBCA@?5delete?$FL?$FN@ 100a6bec     libvcruntime:undname.obj
 0002:00003bf8       ??_C@_0P@HJKNJFNN@?$GAomni?5callsig?8@ 100a6bf8     libvcruntime:undname.obj
 0002:00003c08       ??_C@_0BL@CNOONJFP@?$GAplacement?5delete?5closure?8@ 100a6c08     libvcruntime:undname.obj
 0002:00003c24       ??_C@_0BN@CKNJLHMB@?$GAplacement?5delete?$FL?$FN?5closure?8@ 100a6c24     libvcruntime:undname.obj
 0002:00003c44       ??_C@_0CG@CFDHKGGD@?$GAmanaged?5vector?5constructor?5ite@ 100a6c44     libvcruntime:undname.obj
 0002:00003c6c       ??_C@_0CF@IMGKMJNO@?$GAmanaged?5vector?5destructor?5iter@ 100a6c6c     libvcruntime:undname.obj
 0002:00003c94       ??_C@_0CG@HLDDJMAG@?$GAeh?5vector?5copy?5constructor?5ite@ 100a6c94     libvcruntime:undname.obj
 0002:00003cbc       ??_C@_0CM@FCBBDIGB@?$GAeh?5vector?5vbase?5copy?5construct@ 100a6cbc     libvcruntime:undname.obj
 0002:00003ce8       ??_C@_0BL@CLIPGLGB@?$GAdynamic?5initializer?5for?5?8@ 100a6ce8     libvcruntime:undname.obj
 0002:00003d04       ??_C@_0CB@PDBIFEP@?$GAdynamic?5atexit?5destructor?5for?5@ 100a6d04     libvcruntime:undname.obj
 0002:00003d28       ??_C@_0CD@CGAJBKEJ@?$GAvector?5copy?5constructor?5iterat@ 100a6d28     libvcruntime:undname.obj
 0002:00003d4c       ??_C@_0CJ@GJELGAMM@?$GAvector?5vbase?5copy?5constructor?5@ 100a6d4c     libvcruntime:undname.obj
 0002:00003d78       ??_C@_0CL@FGIJHLCE@?$GAmanaged?5vector?5copy?5constructo@ 100a6d78     libvcruntime:undname.obj
 0002:00003da4       ??_C@_0BM@PMGGMLDN@?$GAlocal?5static?5thread?5guard?8@ 100a6da4     libvcruntime:undname.obj
 0002:00003dc0       ??_C@_0N@BDNMDMOL@operator?5?$CC?$CC?5@ 100a6dc0     libvcruntime:undname.obj
 0002:00003dd0       ??_C@_0BC@GGEBGALA@operator?5co_await@ 100a6dd0     libvcruntime:undname.obj
 0002:00003de4       ??_C@_0M@GAAIMMOH@operator?$DM?$DN?$DO@ 100a6de4     libvcruntime:undname.obj
 0002:00003df0       ??_C@_0BC@DAFEJGAK@?5Type?5Descriptor?8@ 100a6df0     libvcruntime:undname.obj
 0002:00003e04       ??_C@_0BM@LDKODKLH@?5Base?5Class?5Descriptor?5at?5?$CI@ 100a6e04     libvcruntime:undname.obj
 0002:00003e20       ??_C@_0BD@LGICGFMM@?5Base?5Class?5Array?8@ 100a6e20     libvcruntime:undname.obj
 0002:00003e34       ??_C@_0BN@MECKDCOJ@?5Class?5Hierarchy?5Descriptor?8@ 100a6e34     libvcruntime:undname.obj
 0002:00003e54       ??_C@_0BK@CFCOFLF@?5Complete?5Object?5Locator?8@ 100a6e54     libvcruntime:undname.obj
 0002:00003e70       ??_C@_0BG@JNJLAMPM@?$GAanonymous?5namespace?8@ 100a6e70     libvcruntime:undname.obj
 0002:00003e88       ??_C@_04HEJADOOB@CV?3?5@   100a6e88     libvcruntime:undname.obj
 0002:00003e90       ??_C@_02MOLJINC@?3?3@      100a6e90     libvcruntime:undname.obj
 0002:00003e94       ??_C@_0BE@JAEOCHPE@template?9parameter?9@ 100a6e94     libvcruntime:undname.obj
 0002:00003ea8       ??_C@_0BF@LNLGBBNL@?$GAtemplate?9parameter?9@ 100a6ea8     libvcruntime:undname.obj
 0002:00003ec0       ??_C@_0O@KHGCOMHP@generic?9type?9@ 100a6ec0     libvcruntime:undname.obj
 0002:00003ed0       ??_C@_0P@ODDENDLM@?$GAgeneric?9type?9@ 100a6ed0     libvcruntime:undname.obj
 0002:00003ee0       ??_C@_02OHHJMEON@?8?8@     100a6ee0     libvcruntime:undname.obj
 0002:00003ee4       ??_C@_0BN@IBLMMFAP@?$GAnon?9type?9template?9parameter@ 100a6ee4     libvcruntime:undname.obj
 0002:00003f04       ??_C@_03KHICJKCI@?4?4?4@   100a6f04     libvcruntime:undname.obj
 0002:00003f08       ??_C@_04HIBGFPH@NULL@      100a6f08     libvcruntime:undname.obj
 0002:00003f10       ??_C@_02DPKJAMEF@?$CFd@    100a6f10     libvcruntime:undname.obj
 0002:00003f14       ??_C@_0BK@IHCCFNEL@?$GAtemplate?9type?9parameter?9@ 100a6f14     libvcruntime:undname.obj
 0002:00003f30       ??_C@_0BK@OFCNNNKO@?$GAgeneric?9class?9parameter?9@ 100a6f30     libvcruntime:undname.obj
 0002:00003f4c       ??_C@_0BL@NGJBLFIL@?$GAgeneric?9method?9parameter?9@ 100a6f4c     libvcruntime:undname.obj
 0002:00003f68       ??_C@_04GKJNKENE@void@     100a6f68     libvcruntime:undname.obj
 0002:00003f70       ??_C@_0BE@EODMJLIF@?$GAtemplate?9parameter@ 100a6f70     libvcruntime:undname.obj
 0002:00003f84       ??_C@_03OPGICMGF@?$HN?8?5@ 100a6f84     libvcruntime:undname.obj
 0002:00003f88       ??_C@_02IGFCGPIL@?$HN?8@   100a6f88     libvcruntime:undname.obj
 0002:00003f8c       ??_C@_0N@CBHHHENL@?$GAvtordispex?$HL@ 100a6f8c     libvcruntime:undname.obj
 0002:00003f9c       ??_C@_0L@GHPFDFH@?$GAvtordisp?$HL@ 100a6f9c     libvcruntime:undname.obj
 0002:00003fa8       ??_C@_0L@HNGCOGAE@?$GAadjustor?$HL@ 100a6fa8     libvcruntime:undname.obj
 0002:00003fb4       ??_C@_0CB@KJDOOODE@?$GAlocal?5static?5destructor?5helper@ 100a6fb4     libvcruntime:undname.obj
 0002:00003fd8       ??_C@_0DB@ILEFOCIJ@?$GAtemplate?5static?5data?5member?5co@ 100a6fd8     libvcruntime:undname.obj
 0002:0000400c       ??_C@_0DA@HGFJFBBE@?$GAtemplate?5static?5data?5member?5de@ 100a700c     libvcruntime:undname.obj
 0002:0000403c       ??_C@_07PGOEDBHP@static?5@ 100a703c     libvcruntime:undname.obj
 0002:00004044       ??_C@_08NIEOINHE@virtual?5@ 100a7044     libvcruntime:undname.obj
 0002:00004050       ??_C@_09LAPHOOG@private?3?5@ 100a7050     libvcruntime:undname.obj
 0002:0000405c       ??_C@_0M@GAIFPFIP@protected?3?5@ 100a705c     libvcruntime:undname.obj
 0002:00004068       ??_C@_08GPDDCMKI@public?3?5@ 100a7068     libvcruntime:undname.obj
 0002:00004074       ??_C@_08KJLFOPNE@?$FLthunk?$FN?3@ 100a7074     libvcruntime:undname.obj
 0002:00004080       ??_C@_0M@DHNBOJMP@extern?5?$CCC?$CC?5@ 100a7080     libvcruntime:undname.obj
 0002:0000408c       ??_C@_02KCKGHPCA@?$CJ?5@   100a708c     libvcruntime:undname.obj
 0002:00004090       ??_C@_05CIHEBHNO@char?5@   100a7090     libvcruntime:undname.obj
 0002:00004098       ??_C@_06EHJMALKF@short?5@  100a7098     libvcruntime:undname.obj
 0002:000040a0       ??_C@_04LAHKHJMA@int?5@    100a70a0     libvcruntime:undname.obj
 0002:000040a8       ??_C@_05CJIMAING@long?5@   100a70a8     libvcruntime:undname.obj
 0002:000040b0       ??_C@_09EBBEKKIH@unsigned?5@ 100a70b0     libvcruntime:undname.obj
 0002:000040bc       ??_C@_05BEFAKPML@void?5@   100a70bc     libvcruntime:undname.obj
 0002:000040c4       ??_C@_09GAIEOBLP@volatile?5@ 100a70c4     libvcruntime:undname.obj
 0002:000040d0       ??_C@_08PABEKFH@volatile@  100a70d0     libvcruntime:undname.obj
 0002:000040dc       ??_C@_0BA@LKIJLKPP@std?3?3nullptr_t?5@ 100a70dc     libvcruntime:undname.obj
 0002:000040ec       ??_C@_0P@GCOCNKDM@std?3?3nullptr_t@ 100a70ec     libvcruntime:undname.obj
 0002:000040fc       ??_C@_0L@EGPHHEKN@?$DMellipsis?$DO@ 100a70fc     libvcruntime:undname.obj
 0002:00004108       ??_C@_04EENFHACM@?0?4?4?4@ 100a7108     libvcruntime:undname.obj
 0002:00004110       ??_C@_0M@ELJOJFFH@?0?$DMellipsis?$DO@ 100a7110     libvcruntime:undname.obj
 0002:0000411c       ??_C@_09DNHFEOJI@?5noexcept@ 100a711c     libvcruntime:undname.obj
 0002:00004128       ??_C@_03PBJBJNON@cpu@      100a7128     libvcruntime:undname.obj
 0002:0000412c       ??_C@_03DCBBJBAA@amp@      100a712c     libvcruntime:undname.obj
 0002:00004130       ??_C@_02KEGNLNML@?0?5@     100a7130     libvcruntime:undname.obj
 0002:00004134       ??_C@_04ENMBGAPA@char@     100a7134     libvcruntime:undname.obj
 0002:0000413c       ??_C@_05BFKKPKCG@short@    100a713c     libvcruntime:undname.obj
 0002:00004144       ??_C@_03JBIPMCLC@int@      100a7144     libvcruntime:undname.obj
 0002:00004148       ??_C@_04GOKPGOLB@long@     100a7148     libvcruntime:undname.obj
 0002:00004150       ??_C@_05KNFBNCOH@float@    100a7150     libvcruntime:undname.obj
 0002:00004158       ??_C@_06BNJCAIGJ@double@   100a7158     libvcruntime:undname.obj
 0002:00004160       ??_C@_04DDKJGDCM@bool@     100a7160     libvcruntime:undname.obj
 0002:00004168       ??_C@_06EBGKOKIG@__int8@   100a7168     libvcruntime:undname.obj
 0002:00004170       ??_C@_07ICFHOGAF@__int16@  100a7170     libvcruntime:undname.obj
 0002:00004178       ??_C@_07OFLPPHGP@__int32@  100a7178     libvcruntime:undname.obj
 0002:00004180       ??_C@_07LFCOJCAC@__int64@  100a7180     libvcruntime:undname.obj
 0002:00004188       ??_C@_08GAHOLHEO@__int128@ 100a7188     libvcruntime:undname.obj
 0002:00004194       ??_C@_09EEKGDCPH@?$DMunknown?$DO@ 100a7194     libvcruntime:undname.obj
 0002:000041a0       ??_C@_07CFHGOPCN@char8_t@  100a71a0     libvcruntime:undname.obj
 0002:000041a8       ??_C@_08HBIPOFJB@char16_t@ 100a71a8     libvcruntime:undname.obj
 0002:000041b4       ??_C@_08IECNCBKG@char32_t@ 100a71b4     libvcruntime:undname.obj
 0002:000041c0       ??_C@_07CLGGIAMF@wchar_t@  100a71c0     libvcruntime:undname.obj
 0002:000041c8       ??_C@_06GCICPBLB@__w64?5@  100a71c8     libvcruntime:undname.obj
 0002:000041d0       ??_C@_07NFANNNEC@UNKNOWN@  100a71d0     libvcruntime:undname.obj
 0002:000041d8       ??_C@_07EDHNAJHC@signed?5@ 100a71d8     libvcruntime:undname.obj
 0002:000041e0       ??_C@_05BNCCCJPP@const@    100a71e0     libvcruntime:undname.obj
 0002:000041e8       ??_C@_09EFNPDFFP@?5volatile@ 100a71e8     libvcruntime:undname.obj
 0002:000041f4       ??_C@_0P@GCIFDJCJ@?$GAunknown?5ecsu?8@ 100a71f4     libvcruntime:undname.obj
 0002:00004204       ??_C@_06MOJHIBMG@union?5@  100a7204     libvcruntime:undname.obj
 0002:0000420c       ??_C@_07DIBCDNGL@struct?5@ 100a720c     libvcruntime:undname.obj
 0002:00004214       ??_C@_06LJBABKPM@class?5@  100a7214     libvcruntime:undname.obj
 0002:0000421c       ??_C@_08KOFANOFK@coclass?5@ 100a721c     libvcruntime:undname.obj
 0002:00004228       ??_C@_0N@DLIEFKNA@cointerface?5@ 100a7228     libvcruntime:undname.obj
 0002:00004238       ??_C@_05LJGMCFOG@enum?5@   100a7238     libvcruntime:undname.obj
 0002:00004240       ??_C@_06LIJLOJAG@const?5@  100a7240     libvcruntime:undname.obj
 0002:00004248       ??_C@_02KJPKDIBN@?$CG?5@   100a7248     libvcruntime:undname.obj
 0002:0000424c       ??_C@_03PCKGMOPB@?$CG?$CG?5@ 100a724c     libvcruntime:undname.obj
 0002:00004250       ??_C@_0M@EALIELKG@cli?3?3array?$DM@ 100a7250     libvcruntime:undname.obj
 0002:0000425c       ??_C@_0O@GKABPPIF@cli?3?3pin_ptr?$DM@ 100a725c     libvcruntime:undname.obj
 0002:0000426c       ??_C@_02GOGNNPBN@?$CJ?$FL@ 100a726c     libvcruntime:undname.obj
 0002:00004270       ??_C@_06EEGAIFAK@?$HLflat?$HN@ 100a7270     libvcruntime:undname.obj
 0002:00004278       ??_C@_05JIBOFOHK@?$HLfor?5@ 100a7278     libvcruntime:undname.obj
 0002:00004280       ??_C@_02MDINNEEG@s?5@      100a7280     libvcruntime:undname.obj
 0002:00004288       ??_7charNode@@6B@          100a7288     libvcruntime:undname.obj
 0002:0000429c       ??_7pcharNode@@6B@         100a729c     libvcruntime:undname.obj
 0002:000042b0       ??_7pDNameNode@@6B@        100a72b0     libvcruntime:undname.obj
 0002:000042c4       ??_7DNameStatusNode@@6B@   100a72c4     libvcruntime:undname.obj
 0002:000042d8       ??_7pairNode@@6B@          100a72d8     libvcruntime:undname.obj
 0002:000043e8       ??_C@_04OKOHEJBO@?5?$DP?$DP?5@ 100a73e8     libvcruntime:undname.obj
 0002:000043f0       ?nodes@?1??make@DNameStatusNode@@SAPBV2@W4DNameStatus@@@Z@4QBV2@B 100a73f0     libvcruntime:undname.obj
 0002:0000442c       ??_C@_1DM@KHCHBNEB@?$AAa?$AAp?$AAi?$AA?9?$AAm?$AAs?$AA?9?$AAw?$AAi?$AAn?$AA?9?$AAc?$AAo?$AAr?$AAe@ 100a742c     libvcruntime:winapi_downlevel.obj
 0002:00004468       ??_C@_1DK@LPPGFMPP@?$AAa?$AAp?$AAi?$AA?9?$AAm?$AAs?$AA?9?$AAw?$AAi?$AAn?$AA?9?$AAc?$AAo?$AAr?$AAe@ 100a7468     libvcruntime:winapi_downlevel.obj
 0002:000044a4       ??_C@_1BC@GDMECMAK@?$AAk?$AAe?$AAr?$AAn?$AAe?$AAl?$AA3?$AA2@ 100a74a4     libvcruntime:winapi_downlevel.obj
 0002:000044b8       ??_C@_1BA@PFFKHIOG@?$AAa?$AAp?$AAi?$AA?9?$AAm?$AAs?$AA?9@ 100a74b8     libvcruntime:winapi_downlevel.obj
 0002:000044f0       _format_validation_lookup_table 100a74f0     libucrt:output.obj
 0002:0000454c       ??_C@_1O@CEDCILHN@?$AA?$CI?$AAn?$AAu?$AAl?$AAl?$AA?$CJ@ 100a754c     libucrt:output.obj
 0002:0000455c       ??_C@_06OJHGLDPL@?$CInull?$CJ@ 100a755c     libucrt:output.obj
 0002:00004568       __real@3ff0000000000000    100a7568     libucrt:frexp.obj
 0002:00004570       __real@8000000000000000    100a7570     libucrt:frexp.obj
 0002:000046e0       ___newctype                100a76e0     libucrt:ctype.obj
 0002:000049e0       ___newclmap                100a79e0     libucrt:ctype.obj
 0002:00004b60       ___newcumap                100a7b60     libucrt:ctype.obj
 0002:00004ce0       __wctype                   100a7ce0     libucrt:ctype.obj
 0002:00004ee8       ?large_power_data@?1??multiply_by_power_of_ten@__crt_strtox@@YA_NAAUbig_integer@2@I@Z@4QBIB 100a7ee8     libucrt:strtod.obj
 0002:000057f0       ?small_powers_of_ten@?1??multiply_by_power_of_ten@__crt_strtox@@YA_NAAUbig_integer@2@I@Z@4QBIB 100a87f0     libucrt:strtod.obj
 0002:00005824       __half                     100a8824     libucrt:pow_impl.obj
 0002:00005830       ___acrt_exception_action_table 100a8830     libucrt:exception_filter.obj
 0002:000058c0       ___acrt_signal_action_table_count 100a88c0     libucrt:exception_filter.obj
 0002:000058c4       ___acrt_signal_action_first_fpe_index 100a88c4     libucrt:exception_filter.obj
 0002:000058c8       ___acrt_signal_action_fpe_count 100a88c8     libucrt:exception_filter.obj
 0002:000058cc       ??_C@_1BI@BGOHAHKC@?$AAm?$AAs?$AAc?$AAo?$AAr?$AAe?$AAe?$AA?4?$AAd?$AAl?$AAl@ 100a88cc     libucrt:exit.obj
 0002:000058e4       ??_C@_0P@MIGLKIOC@CorExitProcess@ 100a88e4     libucrt:exit.obj
 0002:000059f8       ___lc_category             100a89f8     libucrt:wsetlocale.obj
 0002:00005a40       ??_C@_1O@GIFLHMA@?$AAL?$AAC?$AA_?$AAA?$AAL?$AAL@ 100a8a40     libucrt:wsetlocale.obj
 0002:00005a50       ??_C@_1BG@PPOMIBNJ@?$AAL?$AAC?$AA_?$AAC?$AAO?$AAL?$AAL?$AAA?$AAT?$AAE@ 100a8a50     libucrt:wsetlocale.obj
 0002:00005a68       ??_C@_1BC@FFJGAPJM@?$AAL?$AAC?$AA_?$AAC?$AAT?$AAY?$AAP?$AAE@ 100a8a68     libucrt:wsetlocale.obj
 0002:00005a7c       ??_C@_1BI@PCKFNJFB@?$AAL?$AAC?$AA_?$AAM?$AAO?$AAN?$AAE?$AAT?$AAA?$AAR?$AAY@ 100a8a7c     libucrt:wsetlocale.obj
 0002:00005a94       ??_C@_1BG@ENIEDKID@?$AAL?$AAC?$AA_?$AAN?$AAU?$AAM?$AAE?$AAR?$AAI?$AAC@ 100a8a94     libucrt:wsetlocale.obj
 0002:00005aac       ??_C@_1BA@HAAOMIIG@?$AAL?$AAC?$AA_?$AAT?$AAI?$AAM?$AAE@ 100a8aac     libucrt:wsetlocale.obj
 0002:00005abc       ??_C@_15NBPDDFIP@?$AA?$DN?$AA?$DL@ 100a8abc     libucrt:wsetlocale.obj
 0002:00005ac4       ??_C@_17EFJLDFDO@?$AA?9?$AA_?$AA?4@ 100a8ac4     libucrt:wsetlocale.obj
 0002:00005acc       ??_C@_17MBJJLFDM@?$AA_?$AA?4?$AA?0@ 100a8acc     libucrt:wsetlocale.obj
 0002:00005ad8       ___lc_time_c               100a8ad8     libucrt:nlsdata.obj
 0002:00005c3c       ??_C@_03KOEHGMDN@Sun@      100a8c3c     libucrt:nlsdata.obj
 0002:00005c40       ??_C@_03PDAGKDH@Mon@       100a8c40     libucrt:nlsdata.obj
 0002:00005c44       ??_C@_03NAGEINEP@Tue@      100a8c44     libucrt:nlsdata.obj
 0002:00005c48       ??_C@_03MHOMLAJA@Wed@      100a8c48     libucrt:nlsdata.obj
 0002:00005c4c       ??_C@_03IOFIKPDN@Thu@      100a8c4c     libucrt:nlsdata.obj
 0002:00005c50       ??_C@_03IDIOELNC@Fri@      100a8c50     libucrt:nlsdata.obj
 0002:00005c54       ??_C@_03FEFJNEK@Sat@       100a8c54     libucrt:nlsdata.obj
 0002:00005c58       ??_C@_06OOPIFAJ@Sunday@    100a8c58     libucrt:nlsdata.obj
 0002:00005c60       ??_C@_06JLEDEDGH@Monday@   100a8c60     libucrt:nlsdata.obj
 0002:00005c68       ??_C@_07BAAGCFCM@Tuesday@  100a8c68     libucrt:nlsdata.obj
 0002:00005c70       ??_C@_09DLIGFAKA@Wednesday@ 100a8c70     libucrt:nlsdata.obj
 0002:00005c7c       ??_C@_08HACCIKIA@Thursday@ 100a8c7c     libucrt:nlsdata.obj
 0002:00005c88       ??_C@_06JECMNKMI@Friday@   100a8c88     libucrt:nlsdata.obj
 0002:00005c90       ??_C@_08INBOOONO@Saturday@ 100a8c90     libucrt:nlsdata.obj
 0002:00005c9c       ??_C@_03JIHJHPIE@Jan@      100a8c9c     libucrt:nlsdata.obj
 0002:00005ca0       ??_C@_03HJBDCHOM@Feb@      100a8ca0     libucrt:nlsdata.obj
 0002:00005ca4       ??_C@_03ODNJBKGA@Mar@      100a8ca4     libucrt:nlsdata.obj
 0002:00005ca8       ??_C@_03LEOLGMJP@Apr@      100a8ca8     libucrt:nlsdata.obj
 0002:00005cac       ??_C@_03CNMDKL@May@        100a8cac     libucrt:nlsdata.obj
 0002:00005cb0       ??_C@_03IDFGHECI@Jun@      100a8cb0     libucrt:nlsdata.obj
 0002:00005cb4       ??_C@_03LBGABGKK@Jul@      100a8cb4     libucrt:nlsdata.obj
 0002:00005cb8       ??_C@_03IFJFEIGA@Aug@      100a8cb8     libucrt:nlsdata.obj
 0002:00005cbc       ??_C@_03GGCAPAJC@Sep@      100a8cbc     libucrt:nlsdata.obj
 0002:00005cc0       ??_C@_03BMAOKBAD@Oct@      100a8cc0     libucrt:nlsdata.obj
 0002:00005cc4       ??_C@_03JPJOFNIA@Nov@      100a8cc4     libucrt:nlsdata.obj
 0002:00005cc8       ??_C@_03MKABNOCG@Dec@      100a8cc8     libucrt:nlsdata.obj
 0002:00005ccc       ??_C@_07CGJPFGJA@January@  100a8ccc     libucrt:nlsdata.obj
 0002:00005cd4       ??_C@_08GNJGEPFN@February@ 100a8cd4     libucrt:nlsdata.obj
 0002:00005ce0       ??_C@_05HPCKOFNC@March@    100a8ce0     libucrt:nlsdata.obj
 0002:00005ce8       ??_C@_05DMJDNLEJ@April@    100a8ce8     libucrt:nlsdata.obj
 0002:00005cf0       ??_C@_04CNLMGBGM@June@     100a8cf0     libucrt:nlsdata.obj
 0002:00005cf8       ??_C@_04MIEPOIFP@July@     100a8cf8     libucrt:nlsdata.obj
 0002:00005d00       ??_C@_06LBBHFDDG@August@   100a8d00     libucrt:nlsdata.obj
 0002:00005d08       ??_C@_09BHHEALKD@September@ 100a8d08     libucrt:nlsdata.obj
 0002:00005d14       ??_C@_07JJNFCEND@October@  100a8d14     libucrt:nlsdata.obj
 0002:00005d1c       ??_C@_08HCHEGEOA@November@ 100a8d1c     libucrt:nlsdata.obj
 0002:00005d28       ??_C@_08EDHMEBNP@December@ 100a8d28     libucrt:nlsdata.obj
 0002:00005d34       ??_C@_02DEDBPAFC@AM@       100a8d34     libucrt:nlsdata.obj
 0002:00005d38       ??_C@_02CJNFDJBF@PM@       100a8d38     libucrt:nlsdata.obj
 0002:00005d3c       ??_C@_08BPBNCDIB@MM?1dd?1yy@ 100a8d3c     libucrt:nlsdata.obj
 0002:00005d48       ??_C@_0BE@CKGJFCPC@dddd?0?5MMMM?5dd?0?5yyyy@ 100a8d48     libucrt:nlsdata.obj
 0002:00005d5c       ??_C@_08JCCMCCIL@HH?3mm?3ss@ 100a8d5c     libucrt:nlsdata.obj
 0002:00005d68       ??_C@_17MBGCMIPB@?$AAS?$AAu?$AAn@ 100a8d68     libucrt:nlsdata.obj
 0002:00005d70       ??_C@_17KBOMKBF@?$AAM?$AAo?$AAn@ 100a8d70     libucrt:nlsdata.obj
 0002:00005d78       ??_C@_17BMKGEGOJ@?$AAT?$AAu?$AAe@ 100a8d78     libucrt:nlsdata.obj
 0002:00005d80       ??_C@_17CJEDCEPE@?$AAW?$AAe?$AAd@ 100a8d80     libucrt:nlsdata.obj
 0002:00005d88       ??_C@_17PDPHAADD@?$AAT?$AAh?$AAu@ 100a8d88     libucrt:nlsdata.obj
 0002:00005d90       ??_C@_17HFOLPPLP@?$AAF?$AAr?$AAi@ 100a8d90     libucrt:nlsdata.obj
 0002:00005d98       ??_C@_17GGIBDPIH@?$AAS?$AAa?$AAt@ 100a8d98     libucrt:nlsdata.obj
 0002:00005da0       ??_C@_1O@IHNHDHPB@?$AAS?$AAu?$AAn?$AAd?$AAa?$AAy@ 100a8da0     libucrt:nlsdata.obj
 0002:00005db0       ??_C@_1O@MMNBFLIA@?$AAM?$AAo?$AAn?$AAd?$AAa?$AAy@ 100a8db0     libucrt:nlsdata.obj
 0002:00005dc0       ??_C@_1BA@ENFBFFEK@?$AAT?$AAu?$AAe?$AAs?$AAd?$AAa?$AAy@ 100a8dc0     libucrt:nlsdata.obj
 0002:00005dd0       ??_C@_1BE@EBOGMDOH@?$AAW?$AAe?$AAd?$AAn?$AAe?$AAs?$AAd?$AAa?$AAy@ 100a8dd0     libucrt:nlsdata.obj
 0002:00005de4       ??_C@_1BC@HHMNLIHE@?$AAT?$AAh?$AAu?$AAr?$AAs?$AAd?$AAa?$AAy@ 100a8de4     libucrt:nlsdata.obj
 0002:00005df8       ??_C@_1O@PDICJHAG@?$AAF?$AAr?$AAi?$AAd?$AAa?$AAy@ 100a8df8     libucrt:nlsdata.obj
 0002:00005e08       ??_C@_1BC@ENMNNPAJ@?$AAS?$AAa?$AAt?$AAu?$AAr?$AAd?$AAa?$AAy@ 100a8e08     libucrt:nlsdata.obj
 0002:00005e1c       ??_C@_17DKNBKCHM@?$AAJ?$AAa?$AAn@ 100a8e1c     libucrt:nlsdata.obj
 0002:00005e24       ??_C@_17LMDJEKJN@?$AAF?$AAe?$AAb@ 100a8e24     libucrt:nlsdata.obj
 0002:00005e2c       ??_C@_17CKNLEDEC@?$AAM?$AAa?$AAr@ 100a8e2c     libucrt:nlsdata.obj
 0002:00005e34       ??_C@_17LFPOIHDD@?$AAA?$AAp?$AAr@ 100a8e34     libucrt:nlsdata.obj
 0002:00005e3c       ??_C@_17PNNKMEED@?$AAM?$AAa?$AAy@ 100a8e3c     libucrt:nlsdata.obj
 0002:00005e44       ??_C@_17KCJGOCPB@?$AAJ?$AAu?$AAn@ 100a8e44     libucrt:nlsdata.obj
 0002:00005e4c       ??_C@_17IJPCKHK@?$AAJ?$AAu?$AAl@ 100a8e4c     libucrt:nlsdata.obj
 0002:00005e54       ??_C@_17ICPELBCN@?$AAA?$AAu?$AAg@ 100a8e54     libucrt:nlsdata.obj
 0002:00005e5c       ??_C@_17HCHCOKMG@?$AAS?$AAe?$AAp@ 100a8e5c     libucrt:nlsdata.obj
 0002:00005e64       ??_C@_17FNLKOI@?$AAO?$AAc?$AAt@ 100a8e64     libucrt:nlsdata.obj
 0002:00005e6c       ??_C@_17BBDMLCIG@?$AAN?$AAo?$AAv@ 100a8e6c     libucrt:nlsdata.obj
 0002:00005e74       ??_C@_17EGKACKIF@?$AAD?$AAe?$AAc@ 100a8e74     libucrt:nlsdata.obj
 0002:00005e7c       ??_C@_1BA@EFMEIEBA@?$AAJ?$AAa?$AAn?$AAu?$AAa?$AAr?$AAy@ 100a8e7c     libucrt:nlsdata.obj
 0002:00005e8c       ??_C@_1BC@JGDDFFAM@?$AAF?$AAe?$AAb?$AAr?$AAu?$AAa?$AAr?$AAy@ 100a8e8c     libucrt:nlsdata.obj
 0002:00005ea0       ??_C@_1M@IKEENEDF@?$AAM?$AAa?$AAr?$AAc?$AAh@ 100a8ea0     libucrt:nlsdata.obj
 0002:00005eac       ??_C@_1M@GJNLMHFD@?$AAA?$AAp?$AAr?$AAi?$AAl@ 100a8eac     libucrt:nlsdata.obj
 0002:00005eb8       ??_C@_19EPFLPGAP@?$AAJ?$AAu?$AAn?$AAe@ 100a8eb8     libucrt:nlsdata.obj
 0002:00005ec4       ??_C@_19BIFMLPCD@?$AAJ?$AAu?$AAl?$AAy@ 100a8ec4     libucrt:nlsdata.obj
 0002:00005ed0       ??_C@_1O@PAHLKOAC@?$AAA?$AAu?$AAg?$AAu?$AAs?$AAt@ 100a8ed0     libucrt:nlsdata.obj
 0002:00005ee0       ??_C@_1BE@DKAAMBJL@?$AAS?$AAe?$AAp?$AAt?$AAe?$AAm?$AAb?$AAe?$AAr@ 100a8ee0     libucrt:nlsdata.obj
 0002:00005ef4       ??_C@_1BA@EPANDLNG@?$AAO?$AAc?$AAt?$AAo?$AAb?$AAe?$AAr@ 100a8ef4     libucrt:nlsdata.obj
 0002:00005f04       ??_C@_1BC@BGLIFPF@?$AAN?$AAo?$AAv?$AAe?$AAm?$AAb?$AAe?$AAr@ 100a8f04     libucrt:nlsdata.obj
 0002:00005f18       ??_C@_1BC@FEMKIFH@?$AAD?$AAe?$AAc?$AAe?$AAm?$AAb?$AAe?$AAr@ 100a8f18     libucrt:nlsdata.obj
 0002:00005f2c       ??_C@_15ODEHAHHF@?$AAA?$AAM@ 100a8f2c     libucrt:nlsdata.obj
 0002:00005f34       ??_C@_15CLMNNGEL@?$AAP?$AAM@ 100a8f34     libucrt:nlsdata.obj
 0002:00005f3c       ??_C@_1BC@IEBCMHCM@?$AAM?$AAM?$AA?1?$AAd?$AAd?$AA?1?$AAy?$AAy@ 100a8f3c     libucrt:nlsdata.obj
 0002:00005f50       ??_C@_1CI@KNAKOEBC@?$AAd?$AAd?$AAd?$AAd?$AA?0?$AA?5?$AAM?$AAM?$AAM?$AAM?$AA?5?$AAd?$AAd?$AA?0?$AA?5@ 100a8f50     libucrt:nlsdata.obj
 0002:00005f78       ??_C@_1BC@GDGBMEMK@?$AAH?$AAH?$AA?3?$AAm?$AAm?$AA?3?$AAs?$AAs@ 100a8f78     libucrt:nlsdata.obj
 0002:00005fd0       ??_C@_03OEIAHPBN@INF@      100a8fd0     libucrt:cvt.obj
 0002:00005fd4       ??_C@_03OJHLLCGB@inf@      100a8fd4     libucrt:cvt.obj
 0002:00005fd8       ??_C@_03LKNCIKJB@NAN@      100a8fd8     libucrt:cvt.obj
 0002:00005fdc       ??_C@_03LHCJEHON@nan@      100a8fdc     libucrt:cvt.obj
 0002:00005fe0       ??_C@_09OFJJIMPC@NAN?$CISNAN?$CJ@ 100a8fe0     libucrt:cvt.obj
 0002:00005fec       ??_C@_09IPFBKMDL@nan?$CIsnan?$CJ@ 100a8fec     libucrt:cvt.obj
 0002:00005ff8       ??_C@_08IKHNHAJ@NAN?$CIIND?$CJ@ 100a8ff8     libucrt:cvt.obj
 0002:00006004       ??_C@_08OFCDMILK@nan?$CIind?$CJ@ 100a9004     libucrt:cvt.obj
 0002:00006010       ??_C@_05KLBDPFGC@e?$CL000@ 100a9010     libucrt:cvt.obj
 0002:00006100       ??_C@_03KHJOGHMM@exp@      100a9100     libucrt:fpexcept.obj
 0002:00006104       ??_C@_03JGHBODFD@pow@      100a9104     libucrt:fpexcept.obj
 0002:00006108       ??_C@_03MGHMBJCF@log@      100a9108     libucrt:fpexcept.obj
 0002:0000610c       ??_C@_05HGHHAHAP@log10@    100a910c     libucrt:fpexcept.obj
 0002:00006114       ??_C@_04COOMCNPB@sinh@     100a9114     libucrt:fpexcept.obj
 0002:0000611c       ??_C@_04HPJJNFIM@cosh@     100a911c     libucrt:fpexcept.obj
 0002:00006124       ??_C@_04FJHINJAO@tanh@     100a9124     libucrt:fpexcept.obj
 0002:0000612c       ??_C@_04FIHNOPOL@asin@     100a912c     libucrt:fpexcept.obj
 0002:00006134       ??_C@_04PDIFKINK@acos@     100a9134     libucrt:fpexcept.obj
 0002:0000613c       ??_C@_04MLLJIGOK@atan@     100a913c     libucrt:fpexcept.obj
 0002:00006144       ??_C@_05KNGEOGJB@atan2@    100a9144     libucrt:fpexcept.obj
 0002:0000614c       ??_C@_04EIAKFFMI@sqrt@     100a914c     libucrt:fpexcept.obj
 0002:00006154       ??_C@_03BLEJJJBH@sin@      100a9154     libucrt:fpexcept.obj
 0002:00006158       ??_C@_03LALBNOCG@cos@      100a9158     libucrt:fpexcept.obj
 0002:0000615c       ??_C@_03IIINPABG@tan@      100a915c     libucrt:fpexcept.obj
 0002:00006160       ??_C@_04GFPJNGEK@ceil@     100a9160     libucrt:fpexcept.obj
 0002:00006168       ??_C@_05PBJFFIGL@floor@    100a9168     libucrt:fpexcept.obj
 0002:00006170       ??_C@_04ODHECPBC@fabs@     100a9170     libucrt:fpexcept.obj
 0002:00006178       ??_C@_04EHEDPDJG@modf@     100a9178     libucrt:fpexcept.obj
 0002:00006180       ??_C@_05CEJMAHNP@ldexp@    100a9180     libucrt:fpexcept.obj
 0002:00006188       ??_C@_05KBKMEMPO@_cabs@    100a9188     libucrt:fpexcept.obj
 0002:00006190       ??_C@_06MEIMCGCF@_hypot@   100a9190     libucrt:fpexcept.obj
 0002:00006198       ??_C@_04KEPJIHGP@fmod@     100a9198     libucrt:fpexcept.obj
 0002:000061a0       ??_C@_05GKKHEGJL@frexp@    100a91a0     libucrt:fpexcept.obj
 0002:000061a8       ??_C@_03MJLDFKDL@_y0@      100a91a8     libucrt:fpexcept.obj
 0002:000061ac       ??_C@_03NAKIGLHK@_y1@      100a91ac     libucrt:fpexcept.obj
 0002:000061b0       ??_C@_03ONILCKOB@_yn@      100a91b0     libucrt:fpexcept.obj
 0002:000061b4       ??_C@_05JGDBENOH@_logb@    100a91b4     libucrt:fpexcept.obj
 0002:000061bc       ??_C@_0L@KDOEJCKC@_nextafter@ 100a91bc     libucrt:fpexcept.obj
 0002:000061c8       __d_inf                    100a91c8     libucrt:util.obj
 0002:000061d0       __d_max                    100a91d0     libucrt:util.obj
 0002:000061d8       __d_mzero                  100a91d8     libucrt:util.obj
 0002:00006248       ??_C@_1EA@JGEFHKEI@?$AAa?$AAp?$AAi?$AA?9?$AAm?$AAs?$AA?9?$AAw?$AAi?$AAn?$AA?9?$AAc?$AAo?$AAr?$AAe@ 100a9248     libucrt:winapi_thunks.obj
 0002:00006288       ??_C@_1DI@IJCEHOCB@?$AAa?$AAp?$AAi?$AA?9?$AAm?$AAs?$AA?9?$AAw?$AAi?$AAn?$AA?9?$AAc?$AAo?$AAr?$AAe@ 100a9288     libucrt:winapi_thunks.obj
 0002:000062c0       ??_C@_1EI@MPIAOHOC@?$AAa?$AAp?$AAi?$AA?9?$AAm?$AAs?$AA?9?$AAw?$AAi?$AAn?$AA?9?$AAc?$AAo?$AAr?$AAe@ 100a92c0     libucrt:winapi_thunks.obj
 0002:00006308       ??_C@_1FK@FPHCKFIE@?$AAa?$AAp?$AAi?$AA?9?$AAm?$AAs?$AA?9?$AAw?$AAi?$AAn?$AA?9?$AAc?$AAo?$AAr?$AAe@ 100a9308     libucrt:winapi_thunks.obj
 0002:00006368       ??_C@_1EM@DILCGIIO@?$AAa?$AAp?$AAi?$AA?9?$AAm?$AAs?$AA?9?$AAw?$AAi?$AAn?$AA?9?$AAc?$AAo?$AAr?$AAe@ 100a9368     libucrt:winapi_thunks.obj
 0002:000063b4       ??_C@_1DM@LNCGDDPN@?$AAa?$AAp?$AAi?$AA?9?$AAm?$AAs?$AA?9?$AAw?$AAi?$AAn?$AA?9?$AAc?$AAo?$AAr?$AAe@ 100a93b4     libucrt:winapi_thunks.obj
 0002:000063f0       ??_C@_1DO@FPAPJEMD@?$AAa?$AAp?$AAi?$AA?9?$AAm?$AAs?$AA?9?$AAw?$AAi?$AAn?$AA?9?$AAc?$AAo?$AAr?$AAe@ 100a93f0     libucrt:winapi_thunks.obj
 0002:00006430       ??_C@_1DK@NDHNAHIO@?$AAa?$AAp?$AAi?$AA?9?$AAm?$AAs?$AA?9?$AAw?$AAi?$AAn?$AA?9?$AAc?$AAo?$AAr?$AAe@ 100a9430     libucrt:winapi_thunks.obj
 0002:0000646c       ??_C@_1DM@KGHDGBCM@?$AAa?$AAp?$AAi?$AA?9?$AAm?$AAs?$AA?9?$AAw?$AAi?$AAn?$AA?9?$AAc?$AAo?$AAr?$AAe@ 100a946c     libucrt:winapi_thunks.obj
 0002:000064a8       ??_C@_1EO@IJIOEFOH@?$AAa?$AAp?$AAi?$AA?9?$AAm?$AAs?$AA?9?$AAw?$AAi?$AAn?$AA?9?$AAr?$AAt?$AAc?$AAo@ 100a94a8     libucrt:winapi_thunks.obj
 0002:000064f8       ??_C@_1FG@HHGEKANL@?$AAa?$AAp?$AAi?$AA?9?$AAm?$AAs?$AA?9?$AAw?$AAi?$AAn?$AA?9?$AAs?$AAe?$AAc?$AAu@ 100a94f8     libucrt:winapi_thunks.obj
 0002:00006550       ??_C@_1EG@DBIOJECG@?$AAe?$AAx?$AAt?$AA?9?$AAm?$AAs?$AA?9?$AAw?$AAi?$AAn?$AA?9?$AAn?$AAt?$AAu?$AAs@ 100a9550     libucrt:winapi_thunks.obj
 0002:00006598       ??_C@_1EO@FIHMJCLF@?$AAe?$AAx?$AAt?$AA?9?$AAm?$AAs?$AA?9?$AAw?$AAi?$AAn?$AA?9?$AAn?$AAt?$AAu?$AAs@ 100a9598     libucrt:winapi_thunks.obj
 0002:000065e8       ??_C@_1BC@DNHGCMLG@?$AAa?$AAd?$AAv?$AAa?$AAp?$AAi?$AA3?$AA2@ 100a95e8     libucrt:winapi_thunks.obj
 0002:000065fc       ??_C@_1M@OAIMIKLP@?$AAn?$AAt?$AAd?$AAl?$AAl@ 100a95fc     libucrt:winapi_thunks.obj
 0002:00006608       ??_C@_1EG@DPGNFKGC@?$AAa?$AAp?$AAi?$AA?9?$AAm?$AAs?$AA?9?$AAw?$AAi?$AAn?$AA?9?$AAa?$AAp?$AAp?$AAm@ 100a9608     libucrt:winapi_thunks.obj
 0002:00006650       ??_C@_1O@BCCLBEOE@?$AAu?$AAs?$AAe?$AAr?$AA3?$AA2@ 100a9650     libucrt:winapi_thunks.obj
 0002:00006660       ??_C@_1BA@IAIFMGEF@?$AAe?$AAx?$AAt?$AA?9?$AAm?$AAs?$AA?9@ 100a9660     libucrt:winapi_thunks.obj
 0002:00006674       ??_C@_0BA@FHFNEAED@AreFileApisANSI@ 100a9674     libucrt:winapi_thunks.obj
 0002:00006694       ??_C@_0BE@LJANKFHF@EnumSystemLocalesEx@ 100a9694     libucrt:winapi_thunks.obj
 0002:000066d0       ??_C@_0BA@EPCJIIPD@GetDateFormatEx@ 100a96d0     libucrt:winapi_thunks.obj
 0002:000066f0       ??_C@_0BA@CIJJKCJJ@GetTimeFormatEx@ 100a96f0     libucrt:winapi_thunks.obj
 0002:00006708       ??_C@_0BJ@PBCCBIPI@GetUserDefaultLocaleName@ 100a9708     libucrt:winapi_thunks.obj
 0002:00006734       ??_C@_0BC@CELBKLLA@IsValidLocaleName@ 100a9734     libucrt:winapi_thunks.obj
 0002:00006758       ??_C@_0BB@CDHDDLLP@LCIDToLocaleName@ 100a9758     libucrt:winapi_thunks.obj
 0002:00006774       ??_C@_0BB@HBDEELFH@LocaleNameToLCID@ 100a9774     libucrt:winapi_thunks.obj
 0002:0000678c       ??_C@_0CF@OJOFEIGO@AppPolicyGetProcessTerminationM@ 100a978c     libucrt:winapi_thunks.obj
 0002:00006880       __infinity                 100a9880     libucrt:87tran.obj
 0002:0000688a       __minfinity                100a988a     libucrt:87tran.obj
 0002:00006894       __logemax                  100a9894     libucrt:87tran.obj
 0002:000068ba       __OP_EXPjmptab             100a98ba     libucrt:87tran.obj
 0002:000068e0       __indefinite               100a98e0     libucrt:87disp.obj
 0002:000068ea       __piby2                    100a98ea     libucrt:87disp.obj
 0002:000068f4       __piby4                    100a98f4     libucrt:87disp.obj
 0002:00006928       __DEFAULT_CW_in_mem        100a9928     libucrt:common.obj
 0002:0000692a       __pi_by_2_to_61            100a992a     libucrt:common.obj
 0002:00006978       ___acrt_rg_language        100a9978     libucrt:get_qualified_locale.obj
 0002:00006c84       ___acrt_rg_language_count  100a9c84     libucrt:get_qualified_locale.obj
 0002:00006c88       ___acrt_rg_country         100a9c88     libucrt:get_qualified_locale.obj
 0002:00006d9c       ___acrt_rg_country_count   100a9d9c     libucrt:get_qualified_locale.obj
 0002:00006da0       ??_C@_1BC@LLOKLNP@?$AAa?$AAm?$AAe?$AAr?$AAi?$AAc?$AAa?$AAn@ 100a9da0     libucrt:get_qualified_locale.obj
 0002:00006db4       ??_C@_1CC@HEIGCDGG@?$AAa?$AAm?$AAe?$AAr?$AAi?$AAc?$AAa?$AAn?$AA?5?$AAe?$AAn?$AAg?$AAl?$AAi?$AAs@ 100a9db4     libucrt:get_qualified_locale.obj
 0002:00006dd8       ??_C@_1CC@IHCNOMIN@?$AAa?$AAm?$AAe?$AAr?$AAi?$AAc?$AAa?$AAn?$AA?9?$AAe?$AAn?$AAg?$AAl?$AAi?$AAs@ 100a9dd8     libucrt:get_qualified_locale.obj
 0002:00006dfc       ??_C@_1BG@GKAGPCGG@?$AAa?$AAu?$AAs?$AAt?$AAr?$AAa?$AAl?$AAi?$AAa?$AAn@ 100a9dfc     libucrt:get_qualified_locale.obj
 0002:00006e14       ??_C@_1BA@GMENCENF@?$AAb?$AAe?$AAl?$AAg?$AAi?$AAa?$AAn@ 100a9e14     libucrt:get_qualified_locale.obj
 0002:00006e24       ??_C@_1BC@PJMIIAAN@?$AAc?$AAa?$AAn?$AAa?$AAd?$AAi?$AAa?$AAn@ 100a9e24     libucrt:get_qualified_locale.obj
 0002:00006e38       ??_C@_17NOIMNFBF@?$AAc?$AAh?$AAh@ 100a9e38     libucrt:get_qualified_locale.obj
 0002:00006e40       ??_C@_17GGDALCHA@?$AAc?$AAh?$AAi@ 100a9e40     libucrt:get_qualified_locale.obj
 0002:00006e48       ??_C@_1BA@NPNJKIBL@?$AAc?$AAh?$AAi?$AAn?$AAe?$AAs?$AAe@ 100a9e48     libucrt:get_qualified_locale.obj
 0002:00006e58       ??_C@_1CC@DINBAMMJ@?$AAc?$AAh?$AAi?$AAn?$AAe?$AAs?$AAe?$AA?9?$AAh?$AAo?$AAn?$AAg?$AAk?$AAo?$AAn@ 100a9e58     libucrt:get_qualified_locale.obj
 0002:00006e7c       ??_C@_1CG@IOBJPACO@?$AAc?$AAh?$AAi?$AAn?$AAe?$AAs?$AAe?$AA?9?$AAs?$AAi?$AAm?$AAp?$AAl?$AAi?$AAf@ 100a9e7c     libucrt:get_qualified_locale.obj
 0002:00006ea4       ??_C@_1CE@GAJNDCKG@?$AAc?$AAh?$AAi?$AAn?$AAe?$AAs?$AAe?$AA?9?$AAs?$AAi?$AAn?$AAg?$AAa?$AAp?$AAo@ 100a9ea4     libucrt:get_qualified_locale.obj
 0002:00006ec8       ??_C@_1CI@PAJPIOOD@?$AAc?$AAh?$AAi?$AAn?$AAe?$AAs?$AAe?$AA?9?$AAt?$AAr?$AAa?$AAd?$AAi?$AAt?$AAi@ 100a9ec8     libucrt:get_qualified_locale.obj
 0002:00006ef0       ??_C@_1BM@NILJBMMD@?$AAd?$AAu?$AAt?$AAc?$AAh?$AA?9?$AAb?$AAe?$AAl?$AAg?$AAi?$AAa?$AAn@ 100a9ef0     libucrt:get_qualified_locale.obj
 0002:00006f0c       ??_C@_1CC@OOJPJNEJ@?$AAe?$AAn?$AAg?$AAl?$AAi?$AAs?$AAh?$AA?9?$AAa?$AAm?$AAe?$AAr?$AAi?$AAc?$AAa@ 100a9f0c     libucrt:get_qualified_locale.obj
 0002:00006f30       ??_C@_1BI@IOLFEEM@?$AAe?$AAn?$AAg?$AAl?$AAi?$AAs?$AAh?$AA?9?$AAa?$AAu?$AAs@ 100a9f30     libucrt:get_qualified_locale.obj
 0002:00006f48       ??_C@_1BO@HFFNLENJ@?$AAe?$AAn?$AAg?$AAl?$AAi?$AAs?$AAh?$AA?9?$AAb?$AAe?$AAl?$AAi?$AAz?$AAe@ 100a9f48     libucrt:get_qualified_locale.obj
 0002:00006f68       ??_C@_1BI@HAPKJMPO@?$AAe?$AAn?$AAg?$AAl?$AAi?$AAs?$AAh?$AA?9?$AAc?$AAa?$AAn@ 100a9f68     libucrt:get_qualified_locale.obj
 0002:00006f80       ??_C@_1CE@HLNDMIOJ@?$AAe?$AAn?$AAg?$AAl?$AAi?$AAs?$AAh?$AA?9?$AAc?$AAa?$AAr?$AAi?$AAb?$AAb?$AAe@ 100a9f80     libucrt:get_qualified_locale.obj
 0002:00006fa4       ??_C@_1BI@LDHJHHAC@?$AAe?$AAn?$AAg?$AAl?$AAi?$AAs?$AAh?$AA?9?$AAi?$AAr?$AAe@ 100a9fa4     libucrt:get_qualified_locale.obj
 0002:00006fbc       ??_C@_1CA@NJMMCFOC@?$AAe?$AAn?$AAg?$AAl?$AAi?$AAs?$AAh?$AA?9?$AAj?$AAa?$AAm?$AAa?$AAi?$AAc?$AAa@ 100a9fbc     libucrt:get_qualified_locale.obj
 0002:00006fdc       ??_C@_1BG@BHJEBBGG@?$AAe?$AAn?$AAg?$AAl?$AAi?$AAs?$AAh?$AA?9?$AAn?$AAz@ 100a9fdc     libucrt:get_qualified_locale.obj
 0002:00006ff4       ??_C@_1CK@FGOEJJCO@?$AAe?$AAn?$AAg?$AAl?$AAi?$AAs?$AAh?$AA?9?$AAs?$AAo?$AAu?$AAt?$AAh?$AA?5?$AAa@ 100a9ff4     libucrt:get_qualified_locale.obj
 0002:00007020       ??_C@_1DE@PDBJPCJ@?$AAe?$AAn?$AAg?$AAl?$AAi?$AAs?$AAh?$AA?9?$AAt?$AAr?$AAi?$AAn?$AAi?$AAd?$AAa@ 100aa020     libucrt:get_qualified_locale.obj
 0002:00007054       ??_C@_1BG@JGCANDME@?$AAe?$AAn?$AAg?$AAl?$AAi?$AAs?$AAh?$AA?9?$AAu?$AAk@ 100aa054     libucrt:get_qualified_locale.obj
 0002:0000706c       ??_C@_1BG@DINKMLE@?$AAe?$AAn?$AAg?$AAl?$AAi?$AAs?$AAh?$AA?9?$AAu?$AAs@ 100aa06c     libucrt:get_qualified_locale.obj
 0002:00007084       ??_C@_1BI@NMFDBHJE@?$AAe?$AAn?$AAg?$AAl?$AAi?$AAs?$AAh?$AA?9?$AAu?$AAs?$AAa@ 100aa084     libucrt:get_qualified_locale.obj
 0002:0000709c       ??_C@_1BO@OIHKJKII@?$AAf?$AAr?$AAe?$AAn?$AAc?$AAh?$AA?9?$AAb?$AAe?$AAl?$AAg?$AAi?$AAa?$AAn@ 100aa09c     libucrt:get_qualified_locale.obj
 0002:000070bc       ??_C@_1CA@NKAELJKI@?$AAf?$AAr?$AAe?$AAn?$AAc?$AAh?$AA?9?$AAc?$AAa?$AAn?$AAa?$AAd?$AAi?$AAa?$AAn@ 100aa0bc     libucrt:get_qualified_locale.obj
 0002:000070dc       ??_C@_1CE@MGKCNLGN@?$AAf?$AAr?$AAe?$AAn?$AAc?$AAh?$AA?9?$AAl?$AAu?$AAx?$AAe?$AAm?$AAb?$AAo?$AAu@ 100aa0dc     libucrt:get_qualified_locale.obj
 0002:00007100       ??_C@_1BK@CEGEAILM@?$AAf?$AAr?$AAe?$AAn?$AAc?$AAh?$AA?9?$AAs?$AAw?$AAi?$AAs?$AAs@ 100aa100     libucrt:get_qualified_locale.obj
 0002:0000711c       ??_C@_1CA@PAFKEOCC@?$AAg?$AAe?$AAr?$AAm?$AAa?$AAn?$AA?9?$AAa?$AAu?$AAs?$AAt?$AAr?$AAi?$AAa?$AAn@ 100aa11c     libucrt:get_qualified_locale.obj
 0002:0000713c       ??_C@_1CI@HCFHGOFD@?$AAg?$AAe?$AAr?$AAm?$AAa?$AAn?$AA?9?$AAl?$AAi?$AAc?$AAh?$AAt?$AAe?$AAn?$AAs@ 100aa13c     libucrt:get_qualified_locale.obj
 0002:00007164       ??_C@_1CE@FEDDNPDG@?$AAg?$AAe?$AAr?$AAm?$AAa?$AAn?$AA?9?$AAl?$AAu?$AAx?$AAe?$AAm?$AAb?$AAo?$AAu@ 100aa164     libucrt:get_qualified_locale.obj
 0002:00007188       ??_C@_1BK@LIMINNMN@?$AAg?$AAe?$AAr?$AAm?$AAa?$AAn?$AA?9?$AAs?$AAw?$AAi?$AAs?$AAs@ 100aa188     libucrt:get_qualified_locale.obj
 0002:000071a4       ??_C@_1BM@LGMDBEPD@?$AAi?$AAr?$AAi?$AAs?$AAh?$AA?9?$AAe?$AAn?$AAg?$AAl?$AAi?$AAs?$AAh@ 100aa1a4     libucrt:get_qualified_locale.obj
 0002:000071c0       ??_C@_1BM@NNCFBAEE@?$AAi?$AAt?$AAa?$AAl?$AAi?$AAa?$AAn?$AA?9?$AAs?$AAw?$AAi?$AAs?$AAs@ 100aa1c0     libucrt:get_qualified_locale.obj
 0002:000071dc       ??_C@_1BE@FEDJNPIB@?$AAn?$AAo?$AAr?$AAw?$AAe?$AAg?$AAi?$AAa?$AAn@ 100aa1dc     libucrt:get_qualified_locale.obj
 0002:000071f0       ??_C@_1CC@CILKDEIE@?$AAn?$AAo?$AAr?$AAw?$AAe?$AAg?$AAi?$AAa?$AAn?$AA?9?$AAb?$AAo?$AAk?$AAm?$AAa@ 100aa1f0     libucrt:get_qualified_locale.obj
 0002:00007214       ??_C@_1CE@DHMMHEPL@?$AAn?$AAo?$AAr?$AAw?$AAe?$AAg?$AAi?$AAa?$AAn?$AA?9?$AAn?$AAy?$AAn?$AAo?$AAr@ 100aa214     libucrt:get_qualified_locale.obj
 0002:00007238       ??_C@_1CK@OPNMHECD@?$AAp?$AAo?$AAr?$AAt?$AAu?$AAg?$AAu?$AAe?$AAs?$AAe?$AA?9?$AAb?$AAr?$AAa?$AAz@ 100aa238     libucrt:get_qualified_locale.obj
 0002:00007264       ??_C@_1CE@KEEHCDB@?$AAs?$AAp?$AAa?$AAn?$AAi?$AAs?$AAh?$AA?9?$AAa?$AAr?$AAg?$AAe?$AAn?$AAt?$AAi@ 100aa264     libucrt:get_qualified_locale.obj
 0002:00007288       ??_C@_1CA@GIAOLHJD@?$AAs?$AAp?$AAa?$AAn?$AAi?$AAs?$AAh?$AA?9?$AAb?$AAo?$AAl?$AAi?$AAv?$AAi?$AAa@ 100aa288     libucrt:get_qualified_locale.obj
 0002:000072a8       ??_C@_1BM@OJNDFNPD@?$AAs?$AAp?$AAa?$AAn?$AAi?$AAs?$AAh?$AA?9?$AAc?$AAh?$AAi?$AAl?$AAe@ 100aa2a8     libucrt:get_qualified_locale.obj
 0002:000072c4       ??_C@_1CC@OCOLPALL@?$AAs?$AAp?$AAa?$AAn?$AAi?$AAs?$AAh?$AA?9?$AAc?$AAo?$AAl?$AAo?$AAm?$AAb?$AAi@ 100aa2c4     libucrt:get_qualified_locale.obj
 0002:000072e8       ??_C@_1CG@BPOFMKBB@?$AAs?$AAp?$AAa?$AAn?$AAi?$AAs?$AAh?$AA?9?$AAc?$AAo?$AAs?$AAt?$AAa?$AA?5?$AAr@ 100aa2e8     libucrt:get_qualified_locale.obj
 0002:00007310       ??_C@_1DG@IGOBAPBB@?$AAs?$AAp?$AAa?$AAn?$AAi?$AAs?$AAh?$AA?9?$AAd?$AAo?$AAm?$AAi?$AAn?$AAi?$AAc@ 100aa310     libucrt:get_qualified_locale.obj
 0002:00007348       ??_C@_1CA@JHAPGEGI@?$AAs?$AAp?$AAa?$AAn?$AAi?$AAs?$AAh?$AA?9?$AAe?$AAc?$AAu?$AAa?$AAd?$AAo?$AAr@ 100aa348     libucrt:get_qualified_locale.obj
 0002:00007368       ??_C@_1CI@LAPALJPP@?$AAs?$AAp?$AAa?$AAn?$AAi?$AAs?$AAh?$AA?9?$AAe?$AAl?$AA?5?$AAs?$AAa?$AAl?$AAv@ 100aa368     libucrt:get_qualified_locale.obj
 0002:00007390       ??_C@_1CE@PDGBOFOM@?$AAs?$AAp?$AAa?$AAn?$AAi?$AAs?$AAh?$AA?9?$AAg?$AAu?$AAa?$AAt?$AAe?$AAm?$AAa@ 100aa390     libucrt:get_qualified_locale.obj
 0002:000073b4       ??_C@_1CC@NBEBAODI@?$AAs?$AAp?$AAa?$AAn?$AAi?$AAs?$AAh?$AA?9?$AAh?$AAo?$AAn?$AAd?$AAu?$AAr?$AAa@ 100aa3b4     libucrt:get_qualified_locale.obj
 0002:000073d8       ??_C@_1CA@LLKGHBMF@?$AAs?$AAp?$AAa?$AAn?$AAi?$AAs?$AAh?$AA?9?$AAm?$AAe?$AAx?$AAi?$AAc?$AAa?$AAn@ 100aa3d8     libucrt:get_qualified_locale.obj
 0002:000073f8       ??_C@_1BO@LKNDOIGD@?$AAs?$AAp?$AAa?$AAn?$AAi?$AAs?$AAh?$AA?9?$AAm?$AAo?$AAd?$AAe?$AAr?$AAn@ 100aa3f8     libucrt:get_qualified_locale.obj
 0002:00007418       ??_C@_1CE@NMDMOEEB@?$AAs?$AAp?$AAa?$AAn?$AAi?$AAs?$AAh?$AA?9?$AAn?$AAi?$AAc?$AAa?$AAr?$AAa?$AAg@ 100aa418     libucrt:get_qualified_locale.obj
 0002:0000743c       ??_C@_1BO@LLCBEJGB@?$AAs?$AAp?$AAa?$AAn?$AAi?$AAs?$AAh?$AA?9?$AAp?$AAa?$AAn?$AAa?$AAm?$AAa@ 100aa43c     libucrt:get_qualified_locale.obj
 0002:0000745c       ??_C@_1CC@FKPGGIHO@?$AAs?$AAp?$AAa?$AAn?$AAi?$AAs?$AAh?$AA?9?$AAp?$AAa?$AAr?$AAa?$AAg?$AAu?$AAa@ 100aa45c     libucrt:get_qualified_locale.obj
 0002:00007480       ??_C@_1BK@CDEIHOOP@?$AAs?$AAp?$AAa?$AAn?$AAi?$AAs?$AAh?$AA?9?$AAp?$AAe?$AAr?$AAu@ 100aa480     libucrt:get_qualified_locale.obj
 0002:0000749c       ??_C@_1CI@GAHAKKGP@?$AAs?$AAp?$AAa?$AAn?$AAi?$AAs?$AAh?$AA?9?$AAp?$AAu?$AAe?$AAr?$AAt?$AAo?$AA?5@ 100aa49c     libucrt:get_qualified_locale.obj
 0002:000074c4       ??_C@_1CA@NKJBCAGP@?$AAs?$AAp?$AAa?$AAn?$AAi?$AAs?$AAh?$AA?9?$AAu?$AAr?$AAu?$AAg?$AAu?$AAa?$AAy@ 100aa4c4     libucrt:get_qualified_locale.obj
 0002:000074e4       ??_C@_1CE@ODILCONM@?$AAs?$AAp?$AAa?$AAn?$AAi?$AAs?$AAh?$AA?9?$AAv?$AAe?$AAn?$AAe?$AAz?$AAu?$AAe@ 100aa4e4     libucrt:get_qualified_locale.obj
 0002:00007508       ??_C@_1CA@OBNMCGFO@?$AAs?$AAw?$AAe?$AAd?$AAi?$AAs?$AAh?$AA?9?$AAf?$AAi?$AAn?$AAl?$AAa?$AAn?$AAd@ 100aa508     libucrt:get_qualified_locale.obj
 0002:00007528       ??_C@_1M@PIPDDPPI@?$AAs?$AAw?$AAi?$AAs?$AAs@ 100aa528     libucrt:get_qualified_locale.obj
 0002:00007534       ??_C@_15GMFIMNFM@?$AAu?$AAs@ 100aa534     libucrt:get_qualified_locale.obj
 0002:0000753c       ??_C@_17HAEBFAGL@?$AAu?$AAs?$AAa@ 100aa53c     libucrt:get_qualified_locale.obj
 0002:00007544       ??_C@_1BA@DPFJEPHB@?$AAa?$AAm?$AAe?$AAr?$AAi?$AAc?$AAa@ 100aa544     libucrt:get_qualified_locale.obj
 0002:00007554       ??_C@_1BA@ELOGGFK@?$AAb?$AAr?$AAi?$AAt?$AAa?$AAi?$AAn@ 100aa554     libucrt:get_qualified_locale.obj
 0002:00007564       ??_C@_1M@GHBGIGDA@?$AAc?$AAh?$AAi?$AAn?$AAa@ 100aa564     libucrt:get_qualified_locale.obj
 0002:00007570       ??_C@_1M@NCHEJOPO@?$AAc?$AAz?$AAe?$AAc?$AAh@ 100aa570     libucrt:get_qualified_locale.obj
 0002:0000757c       ??_C@_1BA@BKPAPBLA@?$AAe?$AAn?$AAg?$AAl?$AAa?$AAn?$AAd@ 100aa57c     libucrt:get_qualified_locale.obj
 0002:0000758c       ??_C@_1BM@HKBCKIPC@?$AAg?$AAr?$AAe?$AAa?$AAt?$AA?5?$AAb?$AAr?$AAi?$AAt?$AAa?$AAi?$AAn@ 100aa58c     libucrt:get_qualified_locale.obj
 0002:000075a8       ??_C@_1BA@PPCHPGJB@?$AAh?$AAo?$AAl?$AAl?$AAa?$AAn?$AAd@ 100aa5a8     libucrt:get_qualified_locale.obj
 0002:000075b8       ??_C@_1BE@JBMPEGDG@?$AAh?$AAo?$AAn?$AAg?$AA?9?$AAk?$AAo?$AAn?$AAg@ 100aa5b8     libucrt:get_qualified_locale.obj
 0002:000075cc       ??_C@_1BI@KOELBBPJ@?$AAn?$AAe?$AAw?$AA?9?$AAz?$AAe?$AAa?$AAl?$AAa?$AAn?$AAd@ 100aa5cc     libucrt:get_qualified_locale.obj
 0002:000075e4       ??_C@_15HIEBHAIO@?$AAn?$AAz@ 100aa5e4     libucrt:get_qualified_locale.obj
 0002:000075ec       ??_C@_1BC@CHBCPFPI@?$AAp?$AAr?$AA?5?$AAc?$AAh?$AAi?$AAn?$AAa@ 100aa5ec     libucrt:get_qualified_locale.obj
 0002:00007600       ??_C@_1BC@JAOIIFKD@?$AAp?$AAr?$AA?9?$AAc?$AAh?$AAi?$AAn?$AAa@ 100aa600     libucrt:get_qualified_locale.obj
 0002:00007614       ??_C@_1BI@BEHPPHKC@?$AAp?$AAu?$AAe?$AAr?$AAt?$AAo?$AA?9?$AAr?$AAi?$AAc?$AAo@ 100aa614     libucrt:get_qualified_locale.obj
 0002:0000762c       ??_C@_1O@PAEOFKDI@?$AAs?$AAl?$AAo?$AAv?$AAa?$AAk@ 100aa62c     libucrt:get_qualified_locale.obj
 0002:0000763c       ??_C@_1BK@FIHMCKAM@?$AAs?$AAo?$AAu?$AAt?$AAh?$AA?5?$AAa?$AAf?$AAr?$AAi?$AAc?$AAa@ 100aa63c     libucrt:get_qualified_locale.obj
 0002:00007658       ??_C@_1BI@NAEOODKB@?$AAs?$AAo?$AAu?$AAt?$AAh?$AA?5?$AAk?$AAo?$AAr?$AAe?$AAa@ 100aa658     libucrt:get_qualified_locale.obj
 0002:00007670       ??_C@_1BK@FBDGGIFF@?$AAs?$AAo?$AAu?$AAt?$AAh?$AA?9?$AAa?$AAf?$AAr?$AAi?$AAc?$AAa@ 100aa670     libucrt:get_qualified_locale.obj
 0002:0000768c       ??_C@_1BI@GHLEJDPK@?$AAs?$AAo?$AAu?$AAt?$AAh?$AA?9?$AAk?$AAo?$AAr?$AAe?$AAa@ 100aa68c     libucrt:get_qualified_locale.obj
 0002:000076a4       ??_C@_1CE@PLHLOMJF@?$AAt?$AAr?$AAi?$AAn?$AAi?$AAd?$AAa?$AAd?$AA?5?$AA?$CG?$AA?5?$AAt?$AAo?$AAb?$AAa@ 100aa6a4     libucrt:get_qualified_locale.obj
 0002:000076c8       ??_C@_1BO@MODIMHHI@?$AAu?$AAn?$AAi?$AAt?$AAe?$AAd?$AA?9?$AAk?$AAi?$AAn?$AAg?$AAd?$AAo?$AAm@ 100aa6c8     libucrt:get_qualified_locale.obj
 0002:000076e8       ??_C@_1BM@FFHJONBJ@?$AAu?$AAn?$AAi?$AAt?$AAe?$AAd?$AA?9?$AAs?$AAt?$AAa?$AAt?$AAe?$AAs@ 100aa6e8     libucrt:get_qualified_locale.obj
 0002:00007704       ??_C@_19MPDNHKDG@?$AAu?$AAt?$AAf?$AA8@ 100aa704     libucrt:get_qualified_locale.obj
 0002:00007710       ??_C@_17DNCLJFIF@?$AAA?$AAC?$AAP@ 100aa710     libucrt:get_qualified_locale.obj
 0002:00007718       ??_C@_1M@FPEIIFAM@?$AAu?$AAt?$AAf?$AA?9?$AA8@ 100aa718     libucrt:get_qualified_locale.obj
 0002:00007724       ??_C@_17CIKBIHLH@?$AAO?$AAC?$AAP@ 100aa724     libucrt:get_qualified_locale.obj
 0002:0000772c       ___rglangidNotDefault      100aa72c     libucrt:getqloc_downlevel.obj
 0002:000077d8       ??_C@_01GBGANLPD@0@        100aa7d8     libucrt:cfout.obj
 0002:000077dc       ??_C@_05DNEBIAHO@1?$CDINF@ 100aa7dc     libucrt:cfout.obj
 0002:000077e4       ??_C@_06IMKFLFPG@1?$CDQNAN@ 100aa7e4     libucrt:cfout.obj
 0002:000077ec       ??_C@_06PGGFOGJG@1?$CDSNAN@ 100aa7ec     libucrt:cfout.obj
 0002:000077f4       ??_C@_05PHHOCPM@1?$CDIND@  100aa7f4     libucrt:cfout.obj
 0002:00008640       ___acrt_pow_rcp_t1         100ab640     libucrt:pow_tables.obj
 0002:00008a50       ___acrt_pow_log2_t1        100aba50     libucrt:pow_tables.obj
 0002:00009260       ___acrt_pow_rcp_t2         100ac260     libucrt:pow_tables.obj
 0002:00009670       ___acrt_pow_log2_t2        100ac670     libucrt:pow_tables.obj
 0002:00009e80       ___acrt_pow_rcp_t3         100ace80     libucrt:pow_tables.obj
 0002:0000a690       ___acrt_pow_log2_t3        100ad690     libucrt:pow_tables.obj
 0002:0000b6a0       ___acrt_pow_clv            100ae6a0     libucrt:pow_tables.obj
 0002:0000b6c0       ___acrt_pow_exp2_tbl       100ae6c0     libucrt:pow_tables.obj
 0002:0000c020       ??_C@_1BA@BALFACEM@?$AAC?$AAO?$AAN?$AAO?$AAU?$AAT?$AA$@ 100af020     libucrt:initcon.obj
 0002:0000c030       ___acrt_log10_table_t      100af030     libucrt:log10_tables.obj
 0002:0000c440       ___acrt_log10_table_cb     100af440     libucrt:log10_tables.obj
 0002:0000c85c       _IID_ICryptoGetTextPassword2 100af85c     headers.obj
 0002:0000c86c       _IID_ISequentialOutStream  100af86c     headers.obj
 0002:0000c87c       _IID_ISetProperties        100af87c     headers.obj
 0002:0000c88c       _IID_IStreamGetSize        100af88c     headers.obj
 0002:0000c89c       _IID_IOutArchive           100af89c     headers.obj
 0002:0000c8ac       _IID_IProgress             100af8ac     headers.obj
 0002:0000c8bc       _IID_ICompressCodecsInfo   100af8bc     headers.obj
 0002:0000c8cc       _IID_IArchiveUpdateCallback 100af8cc     headers.obj
 0002:0000c8dc       _IID_IHashers              100af8dc     headers.obj
 0002:0000c8ec       _IID_IInArchiveGetStream   100af8ec     headers.obj
 0002:0000c8fc       _IID_IArchiveExtractCallback 100af8fc     headers.obj
 0002:0000c90c       _IID_ICryptoGetTextPassword 100af90c     headers.obj
 0002:0000c91c       _IID_IInStream             100af91c     headers.obj
 0002:0000c92c       _IID_IArchiveAllowTail     100af92c     headers.obj
 0002:0000c93c       _IID_IInArchive            100af93c     headers.obj
 0002:0000c94c       _IID_IArchiveOpenVolumeCallback 100af94c     headers.obj
 0002:0000c95c       _IID_ISequentialInStream   100af95c     headers.obj
 0002:0000c96c       _IID_IArchiveOpenCallback  100af96c     headers.obj
 0002:0000c97c       _IID_IOutStream            100af97c     headers.obj
 0002:0000c98c       ??_C@_0CE@FILPLMEH@C?3?2src?2plugins?2arclite?2comutils@ 100af98c     archive.obj
 0002:0000c9b0       ??_C@_19HNCGHLOK@?$AAC?$AAo?$AAp?$AAy@ 100af9b0     archive.obj
 0002:0000c9bc       ??_C@_19MMHLLJED@?$AAL?$AAZ?$AAM?$AAA@ 100af9bc     archive.obj
 0002:0000c9c8       ??_C@_1M@DDMLOLLP@?$AAL?$AAZ?$AAM?$AAA?$AA2@ 100af9c8     archive.obj
 0002:0000c9d4       ??_C@_19FHPHDENP@?$AAP?$AAP?$AAM?$AAD@ 100af9d4     archive.obj
 0002:0000c9e0       ??_C@_19DOGDICKI@?$AA?4?$AAe?$AAx?$AAe@ 100af9e0     archive.obj
 0002:0000c9ec       ??_C@_19IEMBGPPO@?$AA?4?$AA0?$AA0?$AA1@ 100af9ec     archive.obj
 0002:0000c9f8       ??_C@_13PAHNCFBL@?$PP?$JC@ 100af9f8     archive.obj
 0002:0000c9fc       ??_C@_0N@DLJIDING@CreateObject@ 100af9fc     archive.obj
 0002:0000ca0c       ??_C@_0O@HMDGOOC@CreateDecoder@ 100afa0c     archive.obj
 0002:0000ca1c       ??_C@_0O@MJGODKIG@CreateEncoder@ 100afa1c     archive.obj
 0002:0000ca2c       ??_C@_0BD@HEPKNIHJ@GetNumberOfMethods@ 100afa2c     archive.obj
 0002:0000ca40       ??_C@_0BC@OJPJFIMA@GetMethodProperty@ 100afa40     archive.obj
 0002:0000ca54       ??_C@_0BD@GPKACDEP@GetNumberOfFormats@ 100afa54     archive.obj
 0002:0000ca68       ??_C@_0BD@DAJFLGDO@GetHandlerProperty@ 100afa68     archive.obj
 0002:0000ca7c       ??_C@_0BE@CMCBNMGM@GetHandlerProperty2@ 100afa7c     archive.obj
 0002:0000ca90       ??_C@_08IPABKFMB@GetIsArc@ 100afa90     archive.obj
 0002:0000ca9c       ??_C@_09NCDAKKNI@SetCodecs@ 100afa9c     archive.obj
 0002:0000caa8       ??_C@_0L@FNFIFDEC@GetHashers@ 100afaa8     archive.obj
 0002:0000cab4       ??_C@_1O@CNEPMAPN@?$AA7?$AAz?$AA?4?$AAs?$AAf?$AAx@ 100afab4     archive.obj
 0002:0000cac4       ??_C@_1BE@CPEIGPON@?$AA7?$AAz?$AAC?$AAo?$AAn?$AA?4?$AAs?$AAf?$AAx@ 100afac4     archive.obj
 0002:0000cad8       ??_C@_1BA@GPHFCJDK@?$AA7?$AAz?$AAS?$AA?4?$AAs?$AAf?$AAx@ 100afad8     archive.obj
 0002:0000cae8       ??_C@_1BC@EKJIHECG@?$AA7?$AAz?$AAS?$AAD?$AA?4?$AAs?$AAf?$AAx@ 100afae8     archive.obj
 0002:0000cafc       ??_C@_1BC@IBOPFADC@?$AA7?$AAz?$AAS?$AA2?$AA?4?$AAs?$AAf?$AAx@ 100afafc     archive.obj
 0002:0000cb10       ??_C@_1BI@JEMGCCOA@?$AA7?$AAz?$AAS?$AA2?$AAc?$AAo?$AAn?$AA?4?$AAs?$AAf?$AAx@ 100afb10     archive.obj
 0002:0000cb28       ??_C@_13OHNMPHJM@?$AA?$FN@ 100afb28     archive.obj
 0002:0000cb2c       ??_C@_15FFJNNDMJ@?$AA?5?$AA?$FL@ 100afb2c     archive.obj
 0002:0000cb34       ??_C@_1M@HNNPBALB@?$AA?$CK?$AA?4?$AAd?$AAl?$AAl@ 100afb34     archive.obj
 0002:0000cb40       ??_C@_1M@HFEBMLCN@?$AA?$CK?$AA?4?$AAs?$AAf?$AAx@ 100afb40     archive.obj
 0002:0000cb4c       ??_C@_1BO@CHFBIDJD@?$AAS?$AAo?$AAf?$AAt?$AAw?$AAa?$AAr?$AAe?$AA?2?$AA7?$AA?9?$AAZ?$AAi?$AAp@ 100afb4c     archive.obj
 0002:0000cb6c       ??_C@_19NHABCBNP@?$AAP?$AAa?$AAt?$AAh@ 100afb6c     archive.obj
 0002:0000cb78       ??_C@_1O@CFNBBLGB@?$AA7?$AAz?$AA?4?$AAd?$AAl?$AAl@ 100afb78     archive.obj
 0002:0000cb88       ??_C@_1CC@DJBHBKGF@?$AAF?$AAo?$AAr?$AAm?$AAa?$AAt?$AAs?$AA?2?$AA?$CK?$AA?4?$AAf?$AAo?$AAr?$AAm?$AAa@ 100afb88     archive.obj
 0002:0000cbac       ??_C@_1BO@IMACGJDG@?$AAC?$AAo?$AAd?$AAe?$AAc?$AAs?$AA?2?$AA?$CK?$AA?4?$AAc?$AAo?$AAd?$AAe?$AAc@ 100afbac     archive.obj
 0002:0000cbcc       ??_C@_13BBDEGPLJ@?$AA?$CK@ 100afbcc     archive.obj
 0002:0000cbd0       ??_C@_0M@HIHBHGEM@archive?4cpp@ 100afbd0     archive.obj
 0002:0000cbe0       ??_C@_1GK@CKLFAJOB@?$AAS?$AAt?$AAr?$AAi?$AAn?$AAg?$AAF?$AAr?$AAo?$AAm?$AAG?$AAU?$AAI?$AAD?$AA2@ 100afbe0     archive.obj
 0002:0000cc4c       ??_C@_19LKKOIHJI@?$AA?4?$AAt?$AAm?$AAp@ 100afc4c     archive.obj
 0002:0000cc58       ??_C@_15DDHGOCBH@?$AA?4?$AA?4@ 100afc58     archive.obj
 0002:0000cc60       ??_C@_13JOFGPIOO@?$AA?4@   100afc60     archive.obj
 0002:0000cc64       ??_C@_1CM@CMIJFKHD@?$AAE?$AAn?$AAc?$AAr?$AAy?$AAp?$AAt?$AAe?$AAd?$AAH?$AAe?$AAa?$AAd?$AAe?$AAr@ 100afc64     archive.obj
 0002:0000cc90       ??_C@_1CC@NJPIIGFF@?$AAU?$AAn?$AAc?$AAo?$AAn?$AAf?$AAi?$AAr?$AAm?$AAe?$AAd?$AAS?$AAt?$AAa?$AAr@ 100afc90     archive.obj
 0002:0000ccb4       ??_C@_1CG@NCCDFAEB@?$AAU?$AAn?$AAs?$AAu?$AAp?$AAp?$AAo?$AAr?$AAt?$AAe?$AAd?$AAF?$AAe?$AAa?$AAt@ 100afcb4     archive.obj
 0002:0000ccdc       ??_C@_1CA@KGIFCFON@?$AAU?$AAn?$AAk?$AAn?$AAo?$AAw?$AAn?$AA?5?$AAe?$AAr?$AAr?$AAo?$AAr?$AA?3?$AA?5@ 100afcdc     archive.obj
 0002:0000ccfc       ??_C@_0BG@BBKNOMOH@invalid?5map?$DMK?0?5T?$DO?5key@ 100afcfc     archive.obj
 0002:0000cd14       ??_C@_0BA@FOIKENOD@vector?5too?5long@ 100afd14     archive.obj
 0002:0000cd24       ??_C@_0BI@CFPLBAOH@invalid?5string?5position@ 100afd24     archive.obj
 0002:0000cd3c       ??_C@_0O@NKNMEGII@list?5too?5long@ 100afd3c     archive.obj
 0002:0000cd4c       ??_C@_0BC@KBDMBKEH@deque?$DMT?$DO?5too?5long@ 100afd4c     archive.obj
 0002:0000cd60       ??_C@_0BB@GCADKGJO@map?1set?5too?5long@ 100afd60     archive.obj
 0002:0000cdcc       ??_7IHashers@@6B@          100afdcc     archive.obj
 0002:0000cde8       ??_7MyCompressCodecsInfo@@6BComBase@@@ 100afde8     archive.obj
 0002:0000cdfc       ??_7MyCompressCodecsInfo@@6BIHashers@@@ 100afdfc     archive.obj
 0002:0000ce18       ??_7MyCompressCodecsInfo@@6BICompressCodecsInfo@@@ 100afe18     archive.obj
 0002:0000cf50       ??_7ComBase@@6B@           100aff50     archive.obj
 0002:0000cf60       ??_C@_0BA@JFNIOLAK@string?5too?5long@ 100aff60     archive.obj
 0002:0000cf70       ??_C@_0BF@KINCDENJ@bad?5array?5new?5length@ 100aff70     archive.obj
 0002:0000cf88       ??_C@_0BC@EOODALEL@Unknown?5exception@ 100aff88     archive.obj
 0002:0000cf9c       ??_C@_17HLHNPJIN@?$AA?5?$AA?$DN?$AA?5@ 100aff9c     attr.obj
 0002:0000cfa4       ??_C@_13HOIJIPNN@?$AA?5@   100affa4     attr.obj
 0002:0000cfa8       ??_C@_08IJFGBAA@attr?4cpp@ 100affa8     attr.obj
 0002:0000d010       ??_C@_13PHCIHIAO@?$AAc@    100b0010     cmdline.obj
 0002:0000d014       ??_C@_13ICFKHAEN@?$AAu@    100b0014     cmdline.obj
 0002:0000d018       ??_C@_13HADAKIJA@?$AAx@    100b0018     cmdline.obj
 0002:0000d01c       ??_C@_13NCEDCHNC@?$AAe@    100b001c     cmdline.obj
 0002:0000d020       ??_C@_13GKPPEALH@?$AAd@    100b0020     cmdline.obj
 0002:0000d024       ??_C@_13DKOGBHCI@?$AAt@    100b0024     cmdline.obj
 0002:0000d028       ??_C@_0M@ECEFEAAC@cmdline?4cpp@ 100b0028     cmdline.obj
 0002:0000d034       ??_C@_13FHBKNHDA@?$AAC@    100b0034     cmdline.obj
 0002:0000d038       ??_C@_13CCGINPHD@?$AAU@    100b0038     cmdline.obj
 0002:0000d03c       ??_C@_13NAACAHKO@?$AAX@    100b003c     cmdline.obj
 0002:0000d040       ??_C@_13HCHBIIOM@?$AAE@    100b0040     cmdline.obj
 0002:0000d044       ??_C@_13MKMNOPIJ@?$AAD@    100b0044     cmdline.obj
 0002:0000d048       ??_C@_13JKNELIBG@?$AAT@    100b0048     cmdline.obj
 0002:0000d04c       ??_C@_13MIIMMPPF@?$AAy@    100b004c     cmdline.obj
 0002:0000d050       ??_C@_13FECKAND@?$AAn@     100b0050     cmdline.obj
 0002:0000d054       ??_C@_13FNCBLAIF@?$AAa@    100b0054     cmdline.obj
 0002:0000d058       ??_C@_13LFIEIAHP@?$AAp@    100b0058     cmdline.obj
 0002:0000d05c       ??_C@_19NNMOHCMN@?$AAl?$AAz?$AAm?$AAa@ 100b005c     cmdline.obj
 0002:0000d068       ??_C@_1M@JKHNFEPH@?$AAl?$AAz?$AAm?$AAa?$AA2@ 100b0068     cmdline.obj
 0002:0000d074       ??_C@_19EGECPPFB@?$AAp?$AAp?$AAm?$AAd@ 100b0074     cmdline.obj
 0002:0000d080       ??_C@_15IECJDLIK@?$AAp?$AAr@ 100b0080     cmdline.obj
 0002:0000d088       ??_C@_13KPELGIFI@?$AAl@    100b0088     cmdline.obj
 0002:0000d08c       ??_C@_13BHPHAPDN@?$AAm@    100b008c     cmdline.obj
 0002:0000d090       ??_C@_13KHDBCPJB@?$AAs@    100b0090     cmdline.obj
 0002:0000d094       ??_C@_15OIJGBPFJ@?$AAe?$AAh@ 100b0094     cmdline.obj
 0002:0000d09c       ??_C@_17MICENCNB@?$AAs?$AAf?$AAx@ 100b009c     cmdline.obj
 0002:0000d0a4       ??_C@_13JAOPNPKD@?$AAv@    100b00a4     cmdline.obj
 0002:0000d0a8       ??_C@_15OEBKOKAH@?$AAm?$AAf@ 100b00a8     cmdline.obj
 0002:0000d0b0       ??_C@_15GNDOAHPP@?$AAi?$AAe@ 100b00b0     cmdline.obj
 0002:0000d0b8       ??_C@_13LNPOMHLG@?$AAo@    100b00b8     cmdline.obj
 0002:0000d0bc       ??_C@_17FLKNDCLP@?$AAa?$AAd?$AAv@ 100b00bc     cmdline.obj
 0002:0000d0c4       ??_C@_15KHFHDPFH@?$AA?9?$AA?9@ 100b00c4     cmdline.obj
 0002:0000d0cc       ??_C@_13BPINEIPE@?$AAr@    100b00cc     cmdline.obj
 0002:0000d0d0       ??_C@_15HHMPEBGH@?$AAs?$AAd@ 100b00d0     cmdline.obj
 0002:0000d0d8       ??_C@_15FOMCIDHG@?$AAd?$AAa@ 100b00d8     cmdline.obj
 0002:0000d0e0       ??_C@_17CMKEDJDI@?$AAo?$AAu?$AAt@ 100b00e0     cmdline.obj
 0002:0000d100       ??_C@_0CB@GHBAJPG@C?3?2src?2plugins?2arclite?2error?4hp@ 100b0100     common.obj
 0002:0000d124       ??_C@_13FPGAJAPJ@?$AA?2@   100b0124     common.obj
 0002:0000d128       ??_C@_1CA@PMIEPGIA@?$AA?$CJ?$AA?5?$AAK?$AAe?$AAy?$AAs?$AA?$CI?$AA?8?$AAE?$AAn?$AAt?$AAe?$AAr?$AA?8?$AA?$CJ@ 100b0128     common.obj
 0002:0000d148       ??_C@_1O@BBPMHPCD@?$AAp?$AAr?$AAi?$AAn?$AAt?$AA?$CI@ 100b0148     common.obj
 0002:0000d158       ??_C@_0L@PIMMLIEG@common?4cpp@ 100b0158     common.obj
 0002:0000d164       ?c_generic_guid@@3U_GUID@@B 100b0164     common.obj
 0002:0000d174       ??_C@_17MMMBOHJC@?$AA?5?$AA?$EA?$AA?5@ 100b0174     delete.obj
 0002:0000d17c       ??_C@_17DFGDFKBN@?$AA?5?$AA?1?$AA?5@ 100b017c     delete.obj
 0002:0000d184       ??_C@_0L@NFFAKAN@delete?4cpp@ 100b0184     delete.obj
 0002:0000d194       ??_7?$_Ref_count@VArchiveFileDeleterProgress@@@std@@6B@ 100b0194     delete.obj
 0002:0000d1a4       ??_C@_0BA@ELKIONDK@bad?5locale?5name@ 100b01a4     delete.obj
 0002:0000d1b4       ??_C@_00CNPNBAHC@@         100b01b4     delete.obj
 0002:0000d1b8       ??_C@_0BF@PHHKMMFD@ios_base?3?3badbit?5set@ 100b01b8     delete.obj
 0002:0000d1d0       ??_C@_0BG@FMKFHCIL@ios_base?3?3failbit?5set@ 100b01d0     delete.obj
 0002:0000d1e8       ??_C@_0BF@OOHOMBOF@ios_base?3?3eofbit?5set@ 100b01e8     delete.obj
 0002:0000d200       ??_C@_08LLGCOLLL@iostream@ 100b0200     delete.obj
 0002:0000d20c       ??_C@_0BG@PADBLCHM@iostream?5stream?5error@ 100b020c     delete.obj
 0002:0000d228       ??_7_Iostream_error_category@std@@6B@ 100b0228     delete.obj
 0002:0000d244       ??_7failure@ios_base@std@@6B@ 100b0244     delete.obj
 0002:0000d250       ??_7ios_base@std@@6B@      100b0250     delete.obj
 0002:0000d258       ??_7?$basic_ios@_WU?$char_traits@_W@std@@@std@@6B@ 100b0258     delete.obj
 0002:0000d260       ??_7?$basic_ostream@_WU?$char_traits@_W@std@@@std@@6B@ 100b0260     delete.obj
 0002:0000d264       ??_8?$basic_ostringstream@_WU?$char_traits@_W@std@@V?$allocator@_W@2@@std@@7B@ 100b0264     delete.obj
 0002:0000d270       ??_7?$basic_ostringstream@_WU?$char_traits@_W@std@@V?$allocator@_W@2@@std@@6B@ 100b0270     delete.obj
 0002:0000d278       ??_7?$basic_streambuf@_WU?$char_traits@_W@std@@@std@@6B@ 100b0278     delete.obj
 0002:0000d2b8       ??_7?$basic_stringbuf@_WU?$char_traits@_W@std@@V?$allocator@_W@2@@std@@6B@ 100b02b8     delete.obj
 0002:0000d2f8       ??_7ArchiveFileDeleter@@6BComBase@@@ 100b02f8     delete.obj
 0002:0000d30c       ??_7ArchiveFileDeleter@@6BIArchiveUpdateCallback@@@ 100b030c     delete.obj
 0002:0000d334       ??_7ArchiveFileDeleterStream@@6BComBase@@@ 100b0334     delete.obj
 0002:0000d348       ??_7ArchiveFileDeleterStream@@6BIOutStream@@@ 100b0348     delete.obj
 0002:0000d364       ??_7ArchiveFileDeleterProgress@@6B@ 100b0364     delete.obj
 0002:0000d36c       ??_C@_02LMMGGCAJ@?3?5@     100b036c     delete.obj
 0002:0000d374       ??_7?$_Ref_count@V?$set@IU?$less@I@std@@V?$allocator@I@2@@std@@@std@@6B@ 100b0374     extract.obj
 0002:0000d388       ??_7?$_Ref_count@_N@std@@6B@ 100b0388     extract.obj
 0002:0000d39c       ??_7?$_Ref_count@W4OverwriteAction@@@std@@6B@ 100b039c     extract.obj
 0002:0000d3b0       ??_7?$_Ref_count@VExtractProgress@@@std@@6B@ 100b03b0     extract.obj
 0002:0000d3c4       ??_7?$_Ref_count@VFileWriteCache@@@std@@6B@ 100b03c4     extract.obj
 0002:0000d3d4       ??_C@_0N@FJHHFFAF@bad_weak_ptr@ 100b03d4     extract.obj
 0002:0000d3e8       ??_7bad_weak_ptr@std@@6B@  100b03e8     extract.obj
 0002:0000d3f4       ??_7SetDirAttr@@6B@        100b03f4     extract.obj
 0002:0000d400       ??_7PrepareExtract@@6B@    100b0400     extract.obj
 0002:0000d40c       ??_7ICryptoGetTextPassword@@6B@ 100b040c     extract.obj
 0002:0000d420       ??_7IArchiveExtractCallback@@6B@ 100b0420     extract.obj
 0002:0000d444       ??_7ArchiveExtractor@@6BComBase@@@ 100b0444     extract.obj
 0002:0000d458       ??_7ArchiveExtractor@@6BICryptoGetTextPassword@@@ 100b0458     extract.obj
 0002:0000d46c       ??_7ArchiveExtractor@@6BIArchiveExtractCallback@@@ 100b046c     extract.obj
 0002:0000d490       ??_7CachedFileExtractStream@@6BComBase@@@ 100b0490     extract.obj
 0002:0000d4a4       ??_7CachedFileExtractStream@@6BISequentialOutStream@@@ 100b04a4     extract.obj
 0002:0000d4b8       ??_7ExtractProgress@@6B@   100b04b8     extract.obj
 0002:0000d4c0       ??_C@_15OKNMGNJN@?$AA?$AB?$AA?6@ 100b04c0     extract.obj
 0002:0000d4c8       ??_C@_19IDMFBI@?$AA?$CJ?$AA?5?$AA?1?$AA?5@ 100b04c8     extract.obj
 0002:0000d4d4       ??_C@_17HIKLPLBG@?$AA?5?$AA?9?$AA?5@ 100b04d4     extract.obj
 0002:0000d4dc       ??_C@_13LLDNKHDC@?$AA?$CI@ 100b04dc     extract.obj
 0002:0000d4e0       ??_C@_0M@ELMNDOCL@extract?4cpp@ 100b04e0     extract.obj
 0002:0000d4ec       ??_C@_13CGOKJPIL@?$AA?1@   100b04ec     farutils.obj
 0002:0000d4f0       ??_C@_0N@NEKDJBOO@farutils?4cpp@ 100b04f0     farutils.obj
 0002:0000d500       ??_C@_1GM@ELBBCICA@?$AAs?$AAi?$AAz?$AAe?$AA?5?$AA?$DO?$AA?$DN?$AA?5?$AAs?$AAi?$AAz?$AAe?$AAo?$AAf?$AA?$CI@ 100b0500     farutils.obj
 0002:0000d56c       ??_C@_1CG@GFKBHPGN@?$AAs?$AAi?$AAz?$AAe?$AA?5?$AA?$DN?$AA?$DN?$AA?5?$AAb?$AAu?$AAf?$AA?4?$AAs?$AAi?$AAz@ 100b056c     farutils.obj
 0002:0000d594       ??_C@_15IEGBJKPD@?$AA?3?$AA?6@ 100b0594     farutils.obj
 0002:0000d59c       ??_C@_02BBAHNLBA@?$CFp@    100b059c     farutils.obj
 0002:0000d5a0       ??_C@_02MDKMJEGG@eE@       100b05a0     farutils.obj
 0002:0000d5a4       ??_C@_02OOPEBDOJ@pP@       100b05a4     farutils.obj
 0002:0000d5a8       ??_C@_04LOAJBDKD@true@     100b05a8     farutils.obj
 0002:0000d5b0       ??_C@_05LAPONLG@false@     100b05b0     farutils.obj
 0002:0000d5bc       ??_7Dialog@Far@@6B@        100b05bc     farutils.obj
 0002:0000d5d4       ?c_far_guid@@3U_GUID@@B    100b05d4     farutils.obj
 0002:0000d5e4       ?c_error_dialog_guid@@3U_GUID@@B 100b05e4     farutils.obj
 0002:0000d5f4       ?c_plugin_guid@@3U_GUID@@B 100b05f4     farutils.obj
 0002:0000d604       ??_C@_0BG@EOMJEIFA@vector?$DMbool?$DO?5too?5long@ 100b0604     msearch.obj
 0002:0000d61c       ??_C@_08PBKAOBPC@open?4cpp@ 100b061c     open.obj
 0002:0000d628       ??_C@_04BNEKHNHI@PK?$AF?$AG@ 100b0628     open.obj
 0002:0000d630       ??_C@_1DC@IJGGMPKB@?$AAg?$AAe?$AAt?$AA_?$AAm?$AAa?$AAi?$AAn?$AA_?$AAf?$AAi?$AAl?$AAe?$AA?$CI?$AAm@ 100b0630     open.obj
 0002:0000d668       ??_C@_1FA@KJKBGIDM@?$AAg?$AAe?$AAt?$AA_?$AAs?$AAt?$AAr?$AAe?$AAa?$AAm?$AA?$CI?$AAm?$AAa?$AAi?$AAn@ 100b0668     open.obj
 0002:0000d6b8       ??_C@_1EE@OOLOIHM@?$AAo?$AAp?$AAe?$AAn?$AA?$CI?$AAs?$AAu?$AAb?$AA_?$AAs?$AAt?$AAr?$AAe?$AAa?$AAm@ 100b06b8     open.obj
 0002:0000d700       ??_7?$_Ref_count@VArchive@@@std@@6B@ 100b0700     open.obj
 0002:0000d714       ??_7IArchiveOpenVolumeCallback@@6B@ 100b0714     open.obj
 0002:0000d72c       ??_7IArchiveOpenCallback@@6B@ 100b072c     open.obj
 0002:0000d744       ??_7ArchiveOpener@@6BProgressMonitor@@@ 100b0744     open.obj
 0002:0000d750       ??_7ArchiveOpener@@6BComBase@@@ 100b0750     open.obj
 0002:0000d764       ??_7ArchiveOpener@@6BICryptoGetTextPassword@@@ 100b0764     open.obj
 0002:0000d778       ??_7ArchiveOpener@@6BIArchiveOpenVolumeCallback@@@ 100b0778     open.obj
 0002:0000d790       ??_7ArchiveOpener@@6BIArchiveOpenCallback@@@ 100b0790     open.obj
 0002:0000d7a8       ??_7ArchiveOpenStream@@6BComBase@@@ 100b07a8     open.obj
 0002:0000d7bc       ??_7ArchiveOpenStream@@6BIInStream@@@ 100b07bc     open.obj
 0002:0000d7d4       ??_7ArchiveSubStream@@6BComBase@@@ 100b07d4     open.obj
 0002:0000d7e8       ??_7ArchiveSubStream@@6BIInStream@@@ 100b07e8     open.obj
 0002:0000d7fc       ??_C@_09ODAGPFND@Codecs?47z@ 100b07fc     options.obj
 0002:0000d808       ??_C@_07KHIHFBFN@Options@  100b0808     options.obj
 0002:0000d810       ??_C@_0P@KHJJOKPN@max_check_size@ 100b0810     options.obj
 0002:0000d820       ??_C@_0BC@BPKCBNDI@correct_name_mode@ 100b0820     options.obj
 0002:0000d834       ??_C@_0O@BOFFKPJB@qs_by_default@ 100b0834     options.obj
 0002:0000d844       ??_C@_0M@DDNHBEON@strict_case@ 100b0844     options.obj
 0002:0000d850       ??_C@_05CCGOGOBM@range@    100b0850     options.obj
 0002:0000d858       ??_C@_03PFFIEBLO@std@      100b0858     options.obj
 0002:0000d85c       ??_C@_03JKBHOJDP@bcj@      100b085c     options.obj
 0002:0000d860       ??_C@_03GLJKANAJ@adv@      100b0860     options.obj
 0002:0000d864       ??_C@_1BI@PHELCDBJ@?$AAa?$AAr?$AAc?$AAl?$AAi?$AAt?$AAe?$AA?4?$AAx?$AAm?$AAl@ 100b0864     options.obj
 0002:0000d87c       ??_C@_1CG@FJDLGHGG@?$AAa?$AAr?$AAc?$AAl?$AAi?$AAt?$AAe?$AA?4?$AAx?$AAm?$AAl?$AA?4?$AAc?$AAu?$AAs@ 100b087c     options.obj
 0002:0000d8a4       ??_C@_1BK@IBHIPMBL@?$AA?$CF?$AAF?$AAA?$AAR?$AAP?$AAR?$AAO?$AAF?$AAI?$AAL?$AAE?$AA?$CF@ 100b08a4     options.obj
 0002:0000d8c0       ??_C@_17OJOFHEJE@?$AAa?$AAr?$AAc@ 100b08c0     options.obj
 0002:0000d8c8       ??_C@_15FDMACJLB@?$AA7?$AAz@ 100b08c8     options.obj
 0002:0000d8d0       ??_C@_1CGI@BLGKMGKC@?$AA?$CK?$AA?4?$AAz?$AAi?$AAp?$AA?0?$AA?$CK?$AA?4?$AAr?$AAa?$AAr?$AA?0?$AA?$CK?$AA?4?$AA?$FL@ 100b08d0     options.obj
 0002:0000db38       ??_C@_1BC@JCBBLHDN@?$AAs?$AAf?$AAx?$AA?4?$AAn?$AAa?$AAm?$AAe@ 100b0b38     options.obj
 0002:0000db4c       ??_C@_1CC@HONLGMMG@?$AAs?$AAf?$AAx?$AA?4?$AAr?$AAe?$AAp?$AAl?$AAa?$AAc?$AAe?$AA_?$AAi?$AAc?$AAo@ 100b0b4c     options.obj
 0002:0000db70       ??_C@_1BM@JPIAFBBJ@?$AAs?$AAf?$AAx?$AA?4?$AAi?$AAc?$AAo?$AAn?$AA_?$AAp?$AAa?$AAt?$AAh@ 100b0b70     options.obj
 0002:0000db8c       ??_C@_1CI@JFOGOFA@?$AAs?$AAf?$AAx?$AA?4?$AAr?$AAe?$AAp?$AAl?$AAa?$AAc?$AAe?$AA_?$AAv?$AAe?$AAr@ 100b0b8c     options.obj
 0002:0000dbb4       ??_C@_1CK@ELAOMKDG@?$AAs?$AAf?$AAx?$AA?4?$AAv?$AAe?$AAr?$AA_?$AAi?$AAn?$AAf?$AAo?$AA?4?$AAv?$AAe@ 100b0bb4     options.obj
 0002:0000dbe0       ??_C@_1CM@BEBJAOOB@?$AAs?$AAf?$AAx?$AA?4?$AAv?$AAe?$AAr?$AA_?$AAi?$AAn?$AAf?$AAo?$AA?4?$AAc?$AAo@ 100b0be0     options.obj
 0002:0000dc0c       ??_C@_1DE@DCPPCPEM@?$AAs?$AAf?$AAx?$AA?4?$AAv?$AAe?$AAr?$AA_?$AAi?$AAn?$AAf?$AAo?$AA?4?$AAc?$AAo@ 100b0c0c     options.obj
 0002:0000dc40       ??_C@_1DM@MFOMGNPE@?$AAs?$AAf?$AAx?$AA?4?$AAv?$AAe?$AAr?$AA_?$AAi?$AAn?$AAf?$AAo?$AA?4?$AAf?$AAi@ 100b0c40     options.obj
 0002:0000dc7c       ??_C@_1DK@HPCOKLKF@?$AAs?$AAf?$AAx?$AA?4?$AAv?$AAe?$AAr?$AA_?$AAi?$AAn?$AAf?$AAo?$AA?4?$AAl?$AAe@ 100b0c7c     options.obj
 0002:0000dcb8       ??_C@_1DE@DEHPBBNH@?$AAs?$AAf?$AAx?$AA?4?$AAv?$AAe?$AAr?$AA_?$AAi?$AAn?$AAf?$AAo?$AA?4?$AAp?$AAr@ 100b0cb8     options.obj
 0002:0000dcec       ??_C@_1DE@CMPJDOC@?$AAs?$AAf?$AAx?$AA?4?$AAa?$AAp?$AAp?$AAe?$AAn?$AAd?$AA_?$AAi?$AAn?$AAs?$AAt@ 100b0cec     options.obj
 0002:0000dd20       ??_C@_1DC@IBDCCCFH@?$AAs?$AAf?$AAx?$AA?4?$AAi?$AAn?$AAs?$AAt?$AAa?$AAl?$AAl?$AA_?$AAc?$AAo?$AAn@ 100b0d20     options.obj
 0002:0000dd58       ??_C@_1EA@FHBMGOJC@?$AAs?$AAf?$AAx?$AA?4?$AAi?$AAn?$AAs?$AAt?$AAa?$AAl?$AAl?$AA_?$AAc?$AAo?$AAn@ 100b0d58     options.obj
 0002:0000dd98       ??_C@_1DI@FGFGCAEP@?$AAs?$AAf?$AAx?$AA?4?$AAi?$AAn?$AAs?$AAt?$AAa?$AAl?$AAl?$AA_?$AAc?$AAo?$AAn@ 100b0d98     options.obj
 0002:0000ddd0       ??_C@_1DO@EDLAEBAA@?$AAs?$AAf?$AAx?$AA?4?$AAi?$AAn?$AAs?$AAt?$AAa?$AAl?$AAl?$AA_?$AAc?$AAo?$AAn@ 100b0dd0     options.obj
 0002:0000de10       ??_C@_1DK@JGHNKBKG@?$AAs?$AAf?$AAx?$AA?4?$AAi?$AAn?$AAs?$AAt?$AAa?$AAl?$AAl?$AA_?$AAc?$AAo?$AAn@ 100b0e10     options.obj
 0002:0000de50       ??_C@_1EA@KNCOOEHK@?$AAs?$AAf?$AAx?$AA?4?$AAi?$AAn?$AAs?$AAt?$AAa?$AAl?$AAl?$AA_?$AAc?$AAo?$AAn@ 100b0e50     options.obj
 0002:0000de90       ??_C@_1EM@GLJDOHOC@?$AAs?$AAf?$AAx?$AA?4?$AAi?$AAn?$AAs?$AAt?$AAa?$AAl?$AAl?$AA_?$AAc?$AAo?$AAn@ 100b0e90     options.obj
 0002:0000dedc       ??_C@_1BM@BHABOEEP@?$AAh?$AAa?$AAn?$AAd?$AAl?$AAe?$AA_?$AAc?$AAr?$AAe?$AAa?$AAt?$AAe@ 100b0edc     options.obj
 0002:0000def8       ??_C@_1CA@FIGILPCF@?$AAh?$AAa?$AAn?$AAd?$AAl?$AAe?$AA_?$AAc?$AAo?$AAm?$AAm?$AAa?$AAn?$AAd?$AAs@ 100b0ef8     options.obj
 0002:0000df18       ??_C@_1BM@IOCBKKLB@?$AAp?$AAl?$AAu?$AAg?$AAi?$AAn?$AA_?$AAp?$AAr?$AAe?$AAf?$AAi?$AAx@ 100b0f18     options.obj
 0002:0000df34       ??_C@_1BO@IEILHPMJ@?$AAm?$AAa?$AAx?$AA_?$AAc?$AAh?$AAe?$AAc?$AAk?$AA_?$AAs?$AAi?$AAz?$AAe@ 100b0f34     options.obj
 0002:0000df54       ??_C@_1CM@CBFIHEKK@?$AAe?$AAx?$AAt?$AAr?$AAa?$AAc?$AAt?$AA_?$AAi?$AAg?$AAn?$AAo?$AAr?$AAe?$AA_@ 100b0f54     options.obj
 0002:0000df80       ??_C@_1CE@HIFCNFIN@?$AAe?$AAx?$AAt?$AAr?$AAa?$AAc?$AAt?$AA_?$AAo?$AAv?$AAe?$AAr?$AAw?$AAr?$AAi@ 100b0f80     options.obj
 0002:0000dfa4       ??_C@_1CK@CPALOIJF@?$AAe?$AAx?$AAt?$AAr?$AAa?$AAc?$AAt?$AA_?$AAs?$AAe?$AAp?$AAa?$AAr?$AAa?$AAt@ 100b0fa4     options.obj
 0002:0000dfd0       ??_C@_1CC@JIDFBFJI@?$AAe?$AAx?$AAt?$AAr?$AAa?$AAc?$AAt?$AA_?$AAo?$AAp?$AAe?$AAn?$AA_?$AAd?$AAi@ 100b0fd0     options.obj
 0002:0000dff4       ??_C@_1CO@BOJMLONJ@?$AAu?$AAp?$AAd?$AAa?$AAt?$AAe?$AA_?$AAa?$AAr?$AAc?$AA_?$AAf?$AAo?$AAr?$AAm@ 100b0ff4     options.obj
 0002:0000e024       ??_C@_1BK@CGJCKDIP@?$AAu?$AAp?$AAd?$AAa?$AAt?$AAe?$AA_?$AAl?$AAe?$AAv?$AAe?$AAl@ 100b1024     options.obj
 0002:0000e040       ??_C@_1BM@IKEOFPDG@?$AAu?$AAp?$AAd?$AAa?$AAt?$AAe?$AA_?$AAl?$AAe?$AAv?$AAe?$AAl?$AAs@ 100b1040     options.obj
 0002:0000e05c       ??_C@_1BM@MDOLGGCE@?$AAu?$AAp?$AAd?$AAa?$AAt?$AAe?$AA_?$AAm?$AAe?$AAt?$AAh?$AAo?$AAd@ 100b105c     options.obj
 0002:0000e078       ??_C@_1BK@BADBIELM@?$AAu?$AAp?$AAd?$AAa?$AAt?$AAe?$AA_?$AAs?$AAo?$AAl?$AAi?$AAd@ 100b1078     options.obj
 0002:0000e094       ??_C@_1CA@BLMBLMOL@?$AAu?$AAp?$AAd?$AAa?$AAt?$AAe?$AA_?$AAa?$AAd?$AAv?$AAa?$AAn?$AAc?$AAe?$AAd@ 100b1094     options.obj
 0002:0000e0b4       ??_C@_1BO@OHNABIDK@?$AAu?$AAp?$AAd?$AAa?$AAt?$AAe?$AA_?$AAe?$AAn?$AAc?$AAr?$AAy?$AAp?$AAt@ 100b10b4     options.obj
 0002:0000e0d4       ??_C@_1CK@BCFJMECK@?$AAu?$AAp?$AAd?$AAa?$AAt?$AAe?$AA_?$AAs?$AAh?$AAo?$AAw?$AA_?$AAp?$AAa?$AAs@ 100b10d4     options.obj
 0002:0000e100       ??_C@_1CM@HPBKHKPI@?$AAu?$AAp?$AAd?$AAa?$AAt?$AAe?$AA_?$AAe?$AAn?$AAc?$AAr?$AAy?$AAp?$AAt?$AA_@ 100b1100     options.obj
 0002:0000e12c       ??_C@_1CA@FGCOBLEE@?$AAu?$AAp?$AAd?$AAa?$AAt?$AAe?$AA_?$AAp?$AAa?$AAs?$AAs?$AAw?$AAo?$AAr?$AAd@ 100b112c     options.obj
 0002:0000e14c       ??_C@_1CE@DJBPJNEE@?$AAu?$AAp?$AAd?$AAa?$AAt?$AAe?$AA_?$AAc?$AAr?$AAe?$AAa?$AAt?$AAe?$AA_?$AAs@ 100b114c     options.obj
 0002:0000e170       ??_C@_1CM@CHAOPLGB@?$AAu?$AAp?$AAd?$AAa?$AAt?$AAe?$AA_?$AAe?$AAn?$AAa?$AAb?$AAl?$AAe?$AA_?$AAv@ 100b1170     options.obj
 0002:0000e19c       ??_C@_1CG@KICFKBBP@?$AAu?$AAp?$AAd?$AAa?$AAt?$AAe?$AA_?$AAv?$AAo?$AAl?$AAu?$AAm?$AAe?$AA_?$AAs@ 100b119c     options.obj
 0002:0000e1c4       ??_C@_1CE@NAAPDECD@?$AAu?$AAp?$AAd?$AAa?$AAt?$AAe?$AA_?$AAm?$AAo?$AAv?$AAe?$AA_?$AAf?$AAi?$AAl@ 100b11c4     options.obj
 0002:0000e1e8       ??_C@_1CK@ICOFBPBC@?$AAu?$AAp?$AAd?$AAa?$AAt?$AAe?$AA_?$AAi?$AAg?$AAn?$AAo?$AAr?$AAe?$AA_?$AAe@ 100b11e8     options.obj
 0002:0000e214       ??_C@_1CC@JJLCAMDI@?$AAu?$AAp?$AAd?$AAa?$AAt?$AAe?$AA_?$AAo?$AAv?$AAe?$AAr?$AAw?$AAr?$AAi?$AAt@ 100b1214     options.obj
 0002:0000e238       ??_C@_1CE@CFBHBNFH@?$AAu?$AAp?$AAd?$AAa?$AAt?$AAe?$AA_?$AAa?$AAp?$AAp?$AAe?$AAn?$AAd?$AA_?$AAe@ 100b1238     options.obj
 0002:0000e25c       ??_C@_1CI@LDHPGHDF@?$AAo?$AAw?$AAn?$AA_?$AAp?$AAa?$AAn?$AAe?$AAl?$AA_?$AAv?$AAi?$AAe?$AAw?$AA_@ 100b125c     options.obj
 0002:0000e284       ??_C@_1CA@BMEGBAGO@?$AAp?$AAa?$AAn?$AAe?$AAl?$AA_?$AAv?$AAi?$AAe?$AAw?$AA_?$AAm?$AAo?$AAd?$AAe@ 100b1284     options.obj
 0002:0000e2a4       ??_C@_1CA@FOAPJPME@?$AAp?$AAa?$AAn?$AAe?$AAl?$AA_?$AAs?$AAo?$AAr?$AAt?$AA_?$AAm?$AAo?$AAd?$AAe@ 100b12a4     options.obj
 0002:0000e2c4       ??_C@_1CG@IMENIFAM@?$AAp?$AAa?$AAn?$AAe?$AAl?$AA_?$AAr?$AAe?$AAv?$AAe?$AAr?$AAs?$AAe?$AA_?$AAs@ 100b12c4     options.obj
 0002:0000e2ec       ??_C@_1CE@JGFBPPBK@?$AAu?$AAs?$AAe?$AA_?$AAi?$AAn?$AAc?$AAl?$AAu?$AAd?$AAe?$AA_?$AAm?$AAa?$AAs@ 100b12ec     options.obj
 0002:0000e310       ??_C@_1BM@KFJICIME@?$AAi?$AAn?$AAc?$AAl?$AAu?$AAd?$AAe?$AA_?$AAm?$AAa?$AAs?$AAk?$AAs@ 100b1310     options.obj
 0002:0000e32c       ??_C@_1CE@IKFGFEP@?$AAu?$AAs?$AAe?$AA_?$AAe?$AAx?$AAc?$AAl?$AAu?$AAd?$AAe?$AA_?$AAm?$AAa?$AAs@ 100b132c     options.obj
 0002:0000e350       ??_C@_1BM@DLGMLCJB@?$AAe?$AAx?$AAc?$AAl?$AAu?$AAd?$AAe?$AA_?$AAm?$AAa?$AAs?$AAk?$AAs@ 100b1350     options.obj
 0002:0000e36c       ??_C@_1BG@EHDBJMPF@?$AAp?$AAg?$AAd?$AAn?$AA_?$AAm?$AAa?$AAs?$AAk?$AAs@ 100b136c     options.obj
 0002:0000e384       ??_C@_1CI@EOKCLAPP@?$AAu?$AAs?$AAe?$AA_?$AAe?$AAn?$AAa?$AAb?$AAl?$AAe?$AAd?$AA_?$AAf?$AAo?$AAr@ 100b1384     options.obj
 0002:0000e3ac       ??_C@_1CA@KFAHFAPB@?$AAe?$AAn?$AAa?$AAb?$AAl?$AAe?$AAd?$AA_?$AAf?$AAo?$AAr?$AAm?$AAa?$AAt?$AAs@ 100b13ac     options.obj
 0002:0000e3cc       ??_C@_1CK@JLKPDPGC@?$AAu?$AAs?$AAe?$AA_?$AAd?$AAi?$AAs?$AAa?$AAb?$AAl?$AAe?$AAd?$AA_?$AAf?$AAo@ 100b13cc     options.obj
 0002:0000e3f8       ??_C@_1CC@KFCGBLDB@?$AAd?$AAi?$AAs?$AAa?$AAb?$AAl?$AAe?$AAd?$AA_?$AAf?$AAo?$AAr?$AAm?$AAa?$AAt@ 100b13f8     options.obj
 0002:0000e41c       ??_C@_1BK@LLAIEAGG@?$AAp?$AAg?$AAd?$AAn?$AA_?$AAf?$AAo?$AAr?$AAm?$AAa?$AAt?$AAs@ 100b141c     options.obj
 0002:0000e438       ??_C@_1O@CKCABMKB@?$AAs?$AAa?$AAv?$AAe?$AAC?$AAP@ 100b1438     options.obj
 0002:0000e448       ??_C@_1M@OAANMHNH@?$AAo?$AAe?$AAm?$AAC?$AAP@ 100b1448     options.obj
 0002:0000e454       ??_C@_1O@GOOOKFBK@?$AAa?$AAn?$AAs?$AAi?$AAC?$AAP@ 100b1454     options.obj
 0002:0000e464       ??_C@_1CE@PDJEHHLN@?$AAc?$AAo?$AAr?$AAr?$AAe?$AAc?$AAt?$AA_?$AAn?$AAa?$AAm?$AAe?$AA_?$AAm?$AAo@ 100b1464     options.obj
 0002:0000e488       ??_C@_1BM@MNDMAIMM@?$AAq?$AAs?$AA_?$AAb?$AAy?$AA_?$AAd?$AAe?$AAf?$AAa?$AAu?$AAl?$AAt@ 100b1488     options.obj
 0002:0000e4a4       ??_C@_1BI@EHINFBH@?$AAs?$AAt?$AAr?$AAi?$AAc?$AAt?$AA_?$AAc?$AAa?$AAs?$AAe@ 100b14a4     options.obj
 0002:0000e4bc       ??_C@_1BC@DNIPBCFP@?$AAa?$AAr?$AAc?$AA_?$AAt?$AAy?$AAp?$AAe@ 100b14bc     options.obj
 0002:0000e4d0       ??_C@_1M@NNEKJJGI@?$AAl?$AAe?$AAv?$AAe?$AAl@ 100b14d0     options.obj
 0002:0000e4dc       ??_C@_1O@BENICBGF@?$AAm?$AAe?$AAt?$AAh?$AAo?$AAd@ 100b14dc     options.obj
 0002:0000e4ec       ??_C@_1M@OLOJLOFL@?$AAs?$AAo?$AAl?$AAi?$AAd@ 100b14ec     options.obj
 0002:0000e4f8       ??_C@_1BC@OMIPJNBO@?$AAp?$AAa?$AAs?$AAs?$AAw?$AAo?$AAr?$AAd@ 100b14f8     options.obj
 0002:0000e50c       ??_C@_1BA@OGAKGFHO@?$AAe?$AAn?$AAc?$AAr?$AAy?$AAp?$AAt@ 100b150c     options.obj
 0002:0000e51c       ??_C@_1BO@KNNCBMKF@?$AAe?$AAn?$AAc?$AAr?$AAy?$AAp?$AAt?$AA_?$AAh?$AAe?$AAa?$AAd?$AAe?$AAr@ 100b151c     options.obj
 0002:0000e53c       ??_C@_1BG@OELPMCIK@?$AAc?$AAr?$AAe?$AAa?$AAt?$AAe?$AA_?$AAs?$AAf?$AAx@ 100b153c     options.obj
 0002:0000e554       ??_C@_1BO@PFMGJNDM@?$AAe?$AAn?$AAa?$AAb?$AAl?$AAe?$AA_?$AAv?$AAo?$AAl?$AAu?$AAm?$AAe?$AAs@ 100b1554     options.obj
 0002:0000e574       ??_C@_1BI@GIIMKBK@?$AAv?$AAo?$AAl?$AAu?$AAm?$AAe?$AA_?$AAs?$AAi?$AAz?$AAe@ 100b1574     options.obj
 0002:0000e58c       ??_C@_1BG@NKPGLON@?$AAm?$AAo?$AAv?$AAe?$AA_?$AAf?$AAi?$AAl?$AAe?$AAs@ 100b158c     options.obj
 0002:0000e5a4       ??_C@_1BM@NLHOIHKK@?$AAi?$AAg?$AAn?$AAo?$AAr?$AAe?$AA_?$AAe?$AAr?$AAr?$AAo?$AAr?$AAs@ 100b15a4     options.obj
 0002:0000e5c0       ??_C@_1BC@KBGADKLB@?$AAa?$AAd?$AAv?$AAa?$AAn?$AAc?$AAe?$AAd@ 100b15c0     options.obj
 0002:0000e5d4       ??_C@_1BG@BBLLCINI@?$AAC?$AAo?$AAp?$AAy?$AAO?$AAp?$AAe?$AAn?$AAe?$AAd@ 100b15d4     options.obj
 0002:0000e5ec       ??_C@_17FPIFMLJN@?$AAE?$AAs?$AAc@ 100b15ec     options.obj
 0002:0000e5f4       ??_C@_0BJ@DHFDPMIM@invalid?5vector?5subscript@ 100b15f4     options.obj
 0002:0000e628       ??_7xml_parser@@6B@        100b1628     options.obj
 0002:0000e63c       ??_7IParseCallback@SimpleXML@@6B@ 100b163c     options.obj
 0002:0000e6a0       ??_C@_15LEKKCGMK@?$AA?2?$AA?2@ 100b16a0     pathutils.obj
 0002:0000e6a8       ??_C@_15DKMKFLDO@?$AA?$DP?$AA?2@ 100b16a8     pathutils.obj
 0002:0000e6b0       ??_C@_15PCEAIKAA@?$AA?4?$AA?2@ 100b16b0     pathutils.obj
 0002:0000e6b8       ??_C@_1BA@BFGBFLGI@?$AA?2?$AA?2?$AA?$DP?$AA?2?$AAU?$AAN?$AAC@ 100b16b8     pathutils.obj
 0002:0000e6c8       ??_C@_19MJCDBCKE@?$AA?2?$AA?2?$AA?$DP?$AA?2@ 100b16c8     pathutils.obj
 0002:0000e6d4       ??_C@_1O@IBEKDEPM@?$AA?$DP?$AA?2?$AAU?$AAN?$AAC?$AA?2@ 100b16d4     pathutils.obj
 0002:0000e6e4       ??_C@_15GKAHMKIN@?$AA?3?$AA?2@ 100b16e4     pathutils.obj
 0002:0000e6ec       ??_C@_17LIAKHCCP@?$AAC?$AAO?$AAN@ 100b16ec     pathutils.obj
 0002:0000e6f4       ??_C@_17PFHGFFKC@?$AAP?$AAR?$AAN@ 100b16f4     pathutils.obj
 0002:0000e6fc       ??_C@_17CNBAFMOM@?$AAA?$AAU?$AAX@ 100b16fc     pathutils.obj
 0002:0000e704       ??_C@_17CLELIOII@?$AAN?$AAU?$AAL@ 100b1704     pathutils.obj
 0002:0000e70c       ??_C@_19KHKAFFPC@?$AAC?$AAO?$AAM?$AA9@ 100b170c     pathutils.obj
 0002:0000e718       ??_C@_19NHOJHOKL@?$AAL?$AAP?$AAT?$AA9@ 100b1718     pathutils.obj
 0002:0000e780       ??_C@_0L@MBOHGIBE@plugin?4cpp@ 100b1780     plugin.obj
 0002:0000e78c       ??_C@_13EBCNDICG@?$AA?3@   100b178c     plugin.obj
 0002:0000e790       ??_C@_1FE@OHPOHPOP@?$AAF?$AAa?$AAr?$AA?3?$AA?3?$AAg?$AAe?$AAt?$AA_?$AAp?$AAa?$AAn?$AAe?$AAl?$AA_@ 100b1790     plugin.obj
 0002:0000e7e4       ??_C@_13ENNFDPBH@?$AA_@    100b17e4     plugin.obj
 0002:0000e7e8       ??_C@_1JK@FFADHFBH@?$AAg?$AAe?$AAt?$AA_?$AAa?$AAp?$AAp?$AA_?$AAo?$AAp?$AAt?$AAi?$AAo?$AAn?$AA?$CI@ 100b17e8     plugin.obj
 0002:0000e884       ??_C@_13LBAGMAIH@?$AA?6@   100b1884     plugin.obj
 0002:0000e888       ??_C@_1BA@BAPGAOIJ@?$AAA?$AAr?$AAc?$AAL?$AAi?$AAt?$AAe@ 100b1888     plugin.obj
 0002:0000e898       ??_C@_1HC@PBOGNNOD@?$AAA?$AAr?$AAc?$AAh?$AAi?$AAv?$AAe?$AA?5?$AAs?$AAu?$AAp?$AAp?$AAo?$AAr?$AAt@ 100b1898     plugin.obj
 0002:0000e90c       ??_C@_1DE@BGKMIKPD@?$AAE?$AAu?$AAg?$AAe?$AAn?$AAe?$AA?5?$AAR?$AAo?$AAs?$AAh?$AAa?$AAl?$AA?5?$AA?$CG@ 100b190c     plugin.obj
 0002:0000e940       ??_C@_1BC@ENICKDH@?$AAC?$AAo?$AAn?$AAt?$AAe?$AAn?$AAt?$AAs@ 100b1940     plugin.obj
 0002:0000e954       ??_C@_1CC@GBAAMIEE@?$AAK?$AAe?$AAy?$AAs?$AA?$CI?$AA?8?$AAC?$AAt?$AAr?$AAl?$AAP?$AAg?$AAD?$AAn?$AA?8@ 100b1954     plugin.obj
 0002:0000e978       ??_C@_1O@GBAEOCCH@?$AAP?$AAr?$AAe?$AAf?$AAi?$AAx@ 100b1978     plugin.obj
 0002:0000e9a0       ??_7?$_Ref_count@V?$list@UError@@V?$allocator@UError@@@std@@@std@@@std@@6B@ 100b19a0     plugin.obj
 0002:0000e9b0       ?empty@?1???$null_to_empty@_W@@YAPB_WPB_W@Z@4_WB 100b19b0     plugin.obj
 0002:0000e9b0       ??_C@_11LOCGONAA@@         100b19b0     sysutils.obj
 0002:0000e9b8       ??_7PluginPanelItems@?1??extract@Plugin@@QAEXXZ@6B@ 100b19b8     plugin.obj
 0002:0000e9c8       ??_7PluginPanelItems@?1??get_files@Plugin@@QAEXPBUPluginPanelItem@@HHPAPB_W_K@Z@6B@ 100b19c8     plugin.obj
 0002:0000e9d4       ?c_create_dir_dialog_guid@@3U_GUID@@B 100b19d4     plugin.obj
 0002:0000e9e4       ?c_arccmd_menu_guid@@3U_GUID@@B 100b19e4     plugin.obj
 0002:0000e9f4       ?c_main_menu_guid@@3U_GUID@@B 100b19f4     plugin.obj
 0002:0000ea04       ?c_format_menu_guid@@3U_GUID@@B 100b1a04     plugin.obj
 0002:0000ea14       ?c_test_ok_dialog_guid@@3U_GUID@@B 100b1a14     plugin.obj
 0002:0000ea24       ?c_overwrite_archive_dialog_guid@@3U_GUID@@B 100b1a24     plugin.obj
 0002:0000ea34       ?c_delete_files_dialog_guid@@3U_GUID@@B 100b1a34     plugin.obj
 0002:0000ea44       ?c_plugin_config_guid@@3U_GUID@@B 100b1a44     plugin.obj
 0002:0000ea54       ?c_plugin_menu_guid@@3U_GUID@@B 100b1a54     plugin.obj
 0002:0000ea64       ??_C@_08DMEHPCKJ@rsrc?4cpp@ 100b1a64     rsrc.obj
 0002:0000ea70       ??_C@_1GK@MOFBPDLL@?$AAe?$AAn?$AAt?$AAr?$AAy?$AA?4?$AAi?$AAm?$AAa?$AAg?$AAe?$AA_?$AAo?$AAf?$AAf@ 100b1a70     rsrc.obj
 0002:0000eadc       ??_C@_1CA@FOECMPGO@?$AAV?$AAS?$AA_?$AAV?$AAE?$AAR?$AAS?$AAI?$AAO?$AAN?$AA_?$AAI?$AAN?$AAF?$AAO@ 100b1adc     rsrc.obj
 0002:0000eafc       ??_C@_1BO@PBBNDBNF@?$AAS?$AAt?$AAr?$AAi?$AAn?$AAg?$AAF?$AAi?$AAl?$AAe?$AAI?$AAn?$AAf?$AAo@ 100b1afc     rsrc.obj
 0002:0000eb1c       ??_C@_19MABGBOMG@?$AA0?$AA4?$AAb?$AA0@ 100b1b1c     rsrc.obj
 0002:0000eb28       ??_C@_1BC@OJAINIIB@?$AAC?$AAo?$AAm?$AAm?$AAe?$AAn?$AAt?$AAs@ 100b1b28     rsrc.obj
 0002:0000eb3c       ??_C@_1BI@KBKGFMKH@?$AAC?$AAo?$AAm?$AAp?$AAa?$AAn?$AAy?$AAN?$AAa?$AAm?$AAe@ 100b1b3c     rsrc.obj
 0002:0000eb54       ??_C@_1CA@JGBAIPOO@?$AAF?$AAi?$AAl?$AAe?$AAD?$AAe?$AAs?$AAc?$AAr?$AAi?$AAp?$AAt?$AAi?$AAo?$AAn@ 100b1b54     rsrc.obj
 0002:0000eb74       ??_C@_1BI@HCCAONKE@?$AAF?$AAi?$AAl?$AAe?$AAV?$AAe?$AAr?$AAs?$AAi?$AAo?$AAn@ 100b1b74     rsrc.obj
 0002:0000eb8c       ??_C@_1BO@DAFANMIE@?$AAL?$AAe?$AAg?$AAa?$AAl?$AAC?$AAo?$AAp?$AAy?$AAr?$AAi?$AAg?$AAh?$AAt@ 100b1b8c     rsrc.obj
 0002:0000ebac       ??_C@_1BI@CJGIOPAN@?$AAP?$AAr?$AAo?$AAd?$AAu?$AAc?$AAt?$AAN?$AAa?$AAm?$AAe@ 100b1bac     rsrc.obj
 0002:0000ebc4       ??_C@_1BO@OKEPMKJE@?$AAP?$AAr?$AAo?$AAd?$AAu?$AAc?$AAt?$AAV?$AAe?$AAr?$AAs?$AAi?$AAo?$AAn@ 100b1bc4     rsrc.obj
 0002:0000ebe4       ??_C@_1BI@LJHFMFCG@?$AAV?$AAa?$AAr?$AAF?$AAi?$AAl?$AAe?$AAI?$AAn?$AAf?$AAo@ 100b1be4     rsrc.obj
 0002:0000ebfc       ??_C@_1BI@OMFAJHAK@?$AAT?$AAr?$AAa?$AAn?$AAs?$AAl?$AAa?$AAt?$AAi?$AAo?$AAn@ 100b1bfc     rsrc.obj
 0002:0000ec14       ??_C@_1CI@FOKFAKOH@?$AA?$DL?$AA?$CB?$AA?$EA?$AAI?$AAn?$AAs?$AAt?$AAa?$AAl?$AAl?$AA?$EA?$AA?$CB?$AAU?$AAT?$AAF@ 100b1c14     sfx.obj
 0002:0000ec3c       ??_C@_15GLOEBKAF@?$AA?$CC?$AA?6@ 100b1c3c     sfx.obj
 0002:0000ec44       ??_C@_1BA@OLOEMDEM@?$AAT?$AAi?$AAt?$AAl?$AAe?$AA?$DN?$AA?$CC@ 100b1c44     sfx.obj
 0002:0000ec54       ??_C@_1BM@GIJJCMLO@?$AAB?$AAe?$AAg?$AAi?$AAn?$AAP?$AAr?$AAo?$AAm?$AAp?$AAt?$AA?$DN?$AA?$CC@ 100b1c54     sfx.obj
 0002:0000ec70       ??_C@_1BG@NCOBKEDJ@?$AAP?$AAr?$AAo?$AAg?$AAr?$AAe?$AAs?$AAs?$AA?$DN?$AA?$CC@ 100b1c70     sfx.obj
 0002:0000ec88       ??_C@_1BK@KFKMPGNC@?$AAR?$AAu?$AAn?$AAP?$AAr?$AAo?$AAg?$AAr?$AAa?$AAm?$AA?$DN?$AA?$CC@ 100b1c88     sfx.obj
 0002:0000eca4       ??_C@_1BI@LDJDHMHI@?$AAD?$AAi?$AAr?$AAe?$AAc?$AAt?$AAo?$AAr?$AAy?$AA?$DN?$AA?$CC@ 100b1ca4     sfx.obj
 0002:0000ecbc       ??_C@_1BM@GCHJMPFL@?$AAE?$AAx?$AAe?$AAc?$AAu?$AAt?$AAe?$AAF?$AAi?$AAl?$AAe?$AA?$DN?$AA?$CC@ 100b1cbc     sfx.obj
 0002:0000ecd8       ??_C@_1CI@KHPPDIK@?$AAE?$AAx?$AAe?$AAc?$AAu?$AAt?$AAe?$AAP?$AAa?$AAr?$AAa?$AAm?$AAe?$AAt?$AAe@ 100b1cd8     sfx.obj
 0002:0000ed00       ??_C@_1CC@OAOKHGML@?$AA?$DL?$AA?$CB?$AA?$EA?$AAI?$AAn?$AAs?$AAt?$AAa?$AAl?$AAl?$AAE?$AAn?$AAd?$AA?$EA?$AA?$CB@ 100b1d00     sfx.obj
 0002:0000ed24       ??_C@_07JLLJJILI@sfx?4cpp@ 100b1d24     sfx.obj
 0002:0000ed2c       ??_C@_1DM@BJNOLDOM@?$AAs?$AAf?$AAx?$AA_?$AAi?$AAd?$AA?5?$AA?$DM?$AA?5?$AAA?$AAr?$AAc?$AAA?$AAP?$AAI@ 100b1d2c     sfx.obj
 0002:0000ed68       ??_C@_1GG@NAMIJFA@?$AAd?$AAs?$AAt?$AA_?$AAf?$AAi?$AAl?$AAe?$AA?4?$AAw?$AAr?$AAi?$AAt?$AAe?$AA?$CI@ 100b1d68     sfx.obj
 0002:0000edd0       ??_C@_17IHBDLLG@?$AAy?$AAe?$AAs@ 100b1dd0     sfx.obj
 0002:0000edd8       ??_C@_15BPIGNHCD@?$AAn?$AAo@ 100b1dd8     sfx.obj
 0002:0000ede0       ??_C@_1BG@HKPDLJKO@?$AAS?$AAf?$AAx?$AAO?$AAp?$AAt?$AAi?$AAo?$AAn?$AAs@ 100b1de0     sfx.obj
 0002:0000edf8       ??_C@_1CE@CCMGPAPF@?$AAa?$AAr?$AAc?$AAl?$AAi?$AAt?$AAe?$AA?4?$AAi?$AAc?$AAo?$AAn?$AA_?$AAp?$AAa@ 100b1df8     sfx.obj
 0002:0000ee20       ??_7SfxOptionsDialog@@6B@  100b1e20     sfx.obj
 0002:0000ee2c       ??_7AttachSfxModuleProgress@@6B@ 100b1e2c     sfx.obj
 0002:0000ee34       ?c_sfx_options_dialog_guid@@3U_GUID@@B 100b1e34     sfx.obj
 0002:0000ee44       ??_C@_03PKPBNCAL@?o?$LL?$LP@ 100b1e44     SimpleXML.obj
 0002:0000ee48       ??_C@_06CMNLMIOJ@?$DM?$DPxml?5@ 100b1e48     SimpleXML.obj
 0002:0000ee50       ??_C@_04FFDNBKGC@?$DM?$CB?9?9@ 100b1e50     SimpleXML.obj
 0002:0000ee58       ??_C@_09BLLNCBLF@?$DM?$CB?$FLCDATA?$FL@ 100b1e58     SimpleXML.obj
 0002:0000ee64       ??_C@_09PHEMGOEJ@?$DM?$CBDOCTYPE@ 100b1e64     SimpleXML.obj
 0002:0000ee70       ??_C@_17LGKOMLJ@?$AA?4?$AA?4?$AA?4@ 100b1e70     strutils.obj
 0002:0000ee78       ??_C@_13COJANIEC@?$AA0@    100b1e78     strutils.obj
 0002:0000ee7c       ??_C@_1BA@MDJFAEBM@?$AAw?$AAi?$AAn?$AAh?$AAt?$AAt?$AAp@ 100b1e7c     sysutils.obj
 0002:0000ee8c       ??_C@_13DIBMAFH@?$AA?$CJ@  100b1e8c     sysutils.obj
 0002:0000ee90       ??_C@_19NDEKGCGE@?$AA?5?$AA?$CI?$AA0?$AAx@ 100b1e90     sysutils.obj
 0002:0000ee9c       ??_C@_1BI@EPLLDPGF@?$AAH?$AAR?$AAE?$AAS?$AAU?$AAL?$AAT?$AA?3?$AA?5?$AA0?$AAx@ 100b1e9c     sysutils.obj
 0002:0000eeb4       ??_C@_0N@LGBBMAOF@sysutils?4cpp@ 100b1eb4     sysutils.obj
 0002:0000eec4       ??_C@_1CE@MHDMOOMJ@?$AAl?$AAe?$AAn?$AA?5?$AA?$DM?$AA?$DN?$AA?5?$AAb?$AAu?$AAf?$AA?4?$AAs?$AAi?$AAz?$AAe@ 100b1ec4     sysutils.obj
 0002:0000eee8       ??_C@_1CG@EKGDMFPK@?$AAs?$AAi?$AAz?$AAe?$AA?5?$AA?$DM?$AA?5?$AAp?$AAa?$AAt?$AAh?$AA?4?$AAs?$AAi?$AAz@ 100b1ee8     sysutils.obj
 0002:0000ef14       ??_7CriticalSection@@6B@   100b1f14     sysutils.obj
 0002:0000ef18       ??_C@_08ENCNIKBI@test?4cpp@ 100b1f18     test.obj
 0002:0000ef28       ??_7ArchiveTester@@6BProgressMonitor@@@ 100b1f28     test.obj
 0002:0000ef34       ??_7ArchiveTester@@6BComBase@@@ 100b1f34     test.obj
 0002:0000ef48       ??_7ArchiveTester@@6BICryptoGetTextPassword@@@ 100b1f48     test.obj
 0002:0000ef5c       ??_7ArchiveTester@@6BIArchiveExtractCallback@@@ 100b1f5c     test.obj
 0002:0000ef7c       ??_C@_06NPJEFJLB@ui?4cpp@  100b1f7c     ui.obj
 0002:0000ef88       ??_C@_1JG@OMFJPMPF@?$AAg?$AAe?$AAt?$AA_?$AAa?$AAp?$AAp?$AA_?$AAo?$AAp?$AAt?$AAi?$AAo?$AAn?$AA?$CI@ 100b1f88     ui.obj
 0002:0000f020       ??_C@_17DMMFPNIF@?$AA?$CF?$AA?$HN?$AA?5@ 100b2020     ui.obj
 0002:0000f028       ??_C@_13GCIFAHHO@?$AA?$HL@ 100b2028     ui.obj
 0002:0000f02c       ??_C@_15FOBPOKEL@?$AA?$FN?$AA?5@ 100b202c     ui.obj
 0002:0000f034       ??_C@_13MCLHKIEA@?$AA?$FL@ 100b2034     ui.obj
 0002:0000f038       ??_C@_13NEIAEHFG@?$AA?$CC@ 100b2038     ui.obj
 0002:0000f03c       ??_C@_1BA@DNNJDHAB@?$AAE?$AAx?$AAt?$AAr?$AAa?$AAc?$AAt@ 100b203c     ui.obj
 0002:0000f04c       ??_C@_1CI@GPLIDJDI@?$AAa?$AAr?$AAc?$AAl?$AAi?$AAt?$AAe?$AA?4?$AAe?$AAx?$AAt?$AAr?$AAa?$AAc?$AAt@ 100b204c     ui.obj
 0002:0000f074       ??_C@_15OJKDPEFE@?$AA?5?$AA?5@ 100b2074     ui.obj
 0002:0000f07c       ??_C@_13NMPKAAJP@?$AA?$DN@ 100b207c     ui.obj
 0002:0000f080       ??_C@_1BG@PGBNDIAE@?$AA0?$AA1?$AA2?$AA3?$AA4?$AA5?$AA6?$AA7?$AA8?$AA9@ 100b2080     ui.obj
 0002:0000f098       ??_C@_13PJJBFPED@?$AA?$DL@ 100b2098     ui.obj
 0002:0000f0a0       ??_C@_1GG@OEEJHDBB@?$AAs?$AAe?$AAn?$AAd?$AA_?$AAm?$AAe?$AAs?$AAs?$AAa?$AAg?$AAe?$AA?$CI?$AAD?$AAM@ 100b20a0     ui.obj
 0002:0000f108       ??_C@_1O@PBKAOOPF@?$AAU?$AAp?$AAd?$AAa?$AAt?$AAe@ 100b2108     ui.obj
 0002:0000f118       ??_C@_1CC@JHNGBHPE@?$AAa?$AAr?$AAc?$AAl?$AAi?$AAt?$AAe?$AA?4?$AAa?$AAr?$AAc?$AA_?$AAp?$AAa?$AAt@ 100b2118     ui.obj
 0002:0000f13c       ??_C@_1CC@MEHHCPDF@?$AAa?$AAr?$AAc?$AAl?$AAi?$AAt?$AAe?$AA?4?$AAa?$AAd?$AAv?$AAa?$AAn?$AAc?$AAe@ 100b213c     ui.obj
 0002:0000f160       ??_C@_1CI@KIHLOCML@?$AAa?$AAr?$AAc?$AAl?$AAi?$AAt?$AAe?$AA?4?$AAv?$AAo?$AAl?$AAu?$AAm?$AAe?$AA_@ 100b2160     ui.obj
 0002:0000f188       ??_C@_1DM@DOHHEJNC@?$AAi?$AAt?$AAe?$AAm?$AA_?$AAc?$AAo?$AAl?$AAo?$AAr?$AAs?$AA?9?$AA?$DO?$AAC?$AAo@ 100b2188     ui.obj
 0002:0000f1c4       ??_C@_13DEFPDAGF@?$AA?0@   100b21c4     ui.obj
 0002:0000f1c8       ??_C@_1O@BJPKKLLM@?$AAC?$AAo?$AAn?$AAf?$AAi?$AAg@ 100b21c8     ui.obj
 0002:0000f1dc       ??_7?$_Ref_count@VFileFilter@Far@@@std@@6B@ 100b21dc     ui.obj
 0002:0000f1f0       ??_7AttrDialog@@6B@        100b21f0     ui.obj
 0002:0000f1fc       ??_7SettingsDialog@@6B@    100b21fc     ui.obj
 0002:0000f208       ??_7FormatLibraryInfoDialog@@6B@ 100b2208     ui.obj
 0002:0000f214       ??_7MultiSelectDialog@@6B@ 100b2214     ui.obj
 0002:0000f220       ??_7UpdateDialog@@6B@      100b2220     ui.obj
 0002:0000f264       ??_7ExtractDialog@@6B@     100b2264     ui.obj
 0002:0000f270       ??_7OverwriteDialog@@6B@   100b2270     ui.obj
 0002:0000f27c       ??_7PasswordDialog@@6B@    100b227c     ui.obj
 0002:0000f2c0       ??_7ProgressMonitor@@6B@   100b22c0     ui.obj
 0002:0000f2c8       ?c_format_library_info_dialog_guid@@3U_GUID@@B 100b22c8     ui.obj
 0002:0000f2d8       ?c_multi_select_dialog_guid@@3U_GUID@@B 100b22d8     ui.obj
 0002:0000f2e8       ?c_update_params_saved_dialog_guid@@3U_GUID@@B 100b22e8     ui.obj
 0002:0000f2f8       ?c_save_profile_dialog_guid@@3U_GUID@@B 100b22f8     ui.obj
 0002:0000f308       ?c_arc_path_eval_dialog_guid@@3U_GUID@@B 100b2308     ui.obj
 0002:0000f318       ?c_extract_params_saved_dialog_guid@@3U_GUID@@B 100b2318     ui.obj
 0002:0000f328       ?c_delete_profile_dialog_guid@@3U_GUID@@B 100b2328     ui.obj
 0002:0000f338       ?c_error_log_dialog_guid@@3U_GUID@@B 100b2338     ui.obj
 0002:0000f348       ?c_retry_ignore_dialog_guid@@3U_GUID@@B 100b2348     ui.obj
 0002:0000f358       ?c_interrupt_dialog_guid@@3U_GUID@@B 100b2358     ui.obj
 0002:0000f368       ?c_progress_dialog_guid@@3U_GUID@@B 100b2368     ui.obj
 0002:0000f378       ?c_attr_dialog_guid@@3U_GUID@@B 100b2378     ui.obj
 0002:0000f388       ?c_settings_dialog_guid@@3U_GUID@@B 100b2388     ui.obj
 0002:0000f398       ?c_update_dialog_guid@@3U_GUID@@B 100b2398     ui.obj
 0002:0000f3a8       ?c_extract_dialog_guid@@3U_GUID@@B 100b23a8     ui.obj
 0002:0000f3b8       ?c_overwrite_dialog_guid@@3U_GUID@@B 100b23b8     ui.obj
 0002:0000f3c8       ?c_password_dialog_guid@@3U_GUID@@B 100b23c8     ui.obj
 0002:0000f3d8       ??_C@_15BLMJCMIJ@?$AA?5?$AA?9@ 100b23d8     update.obj
 0002:0000f3e0       ??_C@_13EJFHHPOP@?$AA?$CF@ 100b23e0     update.obj
 0002:0000f3e4       ??_C@_17GPJGFMAC@?$AA?5?$PP?$JC?$AA?5@ 100b23e4     update.obj
 0002:0000f3ec       ??_C@_0L@JMDIPHEI@update?4cpp@ 100b23ec     update.obj
 0002:0000f3f8       ??_C@_1CA@ODCKIHEE@?$AAw?$AAr?$AAi?$AAt?$AAe?$AA_?$AAs?$AAi?$AAz?$AAe?$AA?5?$AA?$CB?$AA?$DN?$AA?5?$AA0@ 100b23f8     update.obj
 0002:0000f418       ??_C@_15ILBMLOPH@?$AAs?$AA1@ 100b2418     update.obj
 0002:0000f420       ??_C@_15LELIAJAM@?$AAs?$AA?$CL@ 100b2420     update.obj
 0002:0000f428       ??_C@_19DNJINCAB@?$AAs?$AA?$DN?$AAo?$AAn@ 100b2428     update.obj
 0002:0000f434       ??_C@_15DDKANJJC@?$AAs?$AA0@ 100b2434     update.obj
 0002:0000f43c       ??_C@_15JBNDFGNA@?$AAs?$AA?9@ 100b243c     update.obj
 0002:0000f444       ??_C@_1M@IDNIJFJD@?$AAs?$AA?$DN?$AAo?$AAf?$AAf@ 100b2444     update.obj
 0002:0000f450       ??_C@_15PHMJIPEK@?$AAq?$AAs@ 100b2450     update.obj
 0002:0000f458       ??_C@_17DPAGFBDD@?$AAq?$AAs?$AA1@ 100b2458     update.obj
 0002:0000f460       ??_C@_17KCOGMI@?$AAq?$AAs?$AA?$CL@ 100b2460     update.obj
 0002:0000f468       ??_C@_1M@BKCILBID@?$AAq?$AAs?$AA?$DN?$AAo?$AAn@ 100b2468     update.obj
 0002:0000f474       ??_C@_17IHLKDGFG@?$AAq?$AAs?$AA0@ 100b2474     update.obj
 0002:0000f47c       ??_C@_17CFMJLJBE@?$AAq?$AAs?$AA?9@ 100b247c     update.obj
 0002:0000f484       ??_C@_1O@FONGHIAI@?$AAq?$AAs?$AA?$DN?$AAo?$AAf?$AAf@ 100b2484     update.obj
 0002:0000f494       ??_C@_13JGCMLPCH@?$AA1@    100b2494     update.obj
 0002:0000f498       ??_C@_17IMAACFJN@?$AAB?$AAC?$AAJ@ 100b2498     update.obj
 0002:0000f4a0       ??_C@_15KGGCNEFK@?$AAh?$AAe@ 100b24a0     update.obj
 0002:0000f4ac       ??_7?$_Ref_count@V?$map@IUFileIndexInfo@@U?$less@I@std@@V?$allocator@U?$pair@$$CBIUFileIndexInfo@@@std@@@3@@std@@@std@@6B@ 100b24ac     update.obj
 0002:0000f4c0       ??_7?$_Ref_count@VArchiveUpdateProgress@@@std@@6B@ 100b24c0     update.obj
 0002:0000f4d4       ??_7DeleteSrcFiles@@6B@    100b24d4     update.obj
 0002:0000f4e0       ??_7ICryptoGetTextPassword2@@6B@ 100b24e0     update.obj
 0002:0000f4f4       ??_7ArchiveUpdater@@6BComBase@@@ 100b24f4     update.obj
 0002:0000f508       ??_7ArchiveUpdater@@6BICryptoGetTextPassword2@@@ 100b2508     update.obj
 0002:0000f51c       ??_7ArchiveUpdater@@6BIArchiveUpdateCallback@@@ 100b251c     update.obj
 0002:0000f544       ??_7PrepareUpdate@@6B@     100b2544     update.obj
 0002:0000f550       ??_7FileReadStream@@6BComBase@@@ 100b2550     update.obj
 0002:0000f564       ??_7FileReadStream@@6BIStreamGetSize@@@ 100b2564     update.obj
 0002:0000f578       ??_7FileReadStream@@6BIInStream@@@ 100b2578     update.obj
 0002:0000f590       ??_7MultiVolumeUpdateStream@@6BComBase@@@ 100b2590     update.obj
 0002:0000f5a4       ??_7MultiVolumeUpdateStream@@6BUpdateStream@@@ 100b25a4     update.obj
 0002:0000f5c8       ??_7SfxUpdateStream@@6BComBase@@@ 100b25c8     update.obj
 0002:0000f5dc       ??_7SfxUpdateStream@@6BUpdateStream@@@ 100b25dc     update.obj
 0002:0000f600       ??_7SimpleUpdateStream@@6BComBase@@@ 100b2600     update.obj
 0002:0000f614       ??_7SimpleUpdateStream@@6BUpdateStream@@@ 100b2614     update.obj
 0002:0000f638       ??_7UpdateStream@@6B@      100b2638     update.obj
 0002:0000f65c       ??_7ArchiveUpdateProgress@@6B@ 100b265c     update.obj
 0002:0000f664       ??_C@_0O@NLDKAIKN@EncodePointer@ 100b2664     vc_crt_fix_impl.obj
 0002:0000f674       ??_C@_0O@KBPMFGHI@DecodePointer@ 100b2674     vc_crt_fix_impl.obj
 0002:0000f684       ??_C@_0BD@GIGEJCNH@GetModuleHandleExW@ 100b2684     vc_crt_fix_impl.obj
 0002:0000f698       ??_C@_0BE@NBEJPEJA@InitializeSListHead@ 100b2698     vc_crt_fix_impl.obj
 0002:0000f6ac       ??_C@_0BG@PLLPFLHB@InterlockedFlushSList@ 100b26ac     vc_crt_fix_impl.obj
 0002:0000f6c4       ??_C@_0BJ@PNEEKDOK@InterlockedPopEntrySList@ 100b26c4     vc_crt_fix_impl.obj
 0002:0000f6e0       ??_C@_0BK@JFGGAIOA@InterlockedPushEntrySList@ 100b26e0     vc_crt_fix_impl.obj
 0002:0000f6fc       ??_C@_0BL@FOECAEGO@InterlockedPushListSListEx@ 100b26fc     vc_crt_fix_impl.obj
 0002:0000f718       ??_C@_0BD@FHMMIGCI@RtlFirstEntrySList@ 100b2718     vc_crt_fix_impl.obj
 0002:0000f72c       ??_C@_0BA@FGPHPMJB@QueryDepthSList@ 100b272c     vc_crt_fix_impl.obj
 0002:0000f73c       ??_C@_0BJ@NLNFLAMA@GetNumaHighestNodeNumber@ 100b273c     vc_crt_fix_impl.obj
 0002:0000f758       ??_C@_0BP@KHGALBC@GetLogicalProcessorInformation@ 100b2758     vc_crt_fix_impl.obj
 0002:0000f778       ??_C@_0BI@BKLFFAPO@SetThreadStackGuarantee@ 100b2778     vc_crt_fix_impl.obj
 0002:0000f790       ??_C@_0BM@HCFOFFN@InitializeCriticalSectionEx@ 100b2790     vc_crt_fix_impl.obj
 0002:0000f7ac       ??_C@_0BA@IHGNDAEB@CompareStringEx@ 100b27ac     vc_crt_fix_impl.obj
 0002:0000f7e0       __real@3fe0000000000000    100b27e0     common.obj
 0002:0000f7e8       __real@4008000000000000    100b27e8     ui.obj
 0002:0000f7f0       __real@404e000000000000    100b27f0     extract.obj
 0002:0000f7f8       __real@4059000000000000    100b27f8     common.obj
 0002:0000f800       __real@41f0000000000000    100b2800     extract.obj
 0002:0000f808       __real@4202a05f20000000    100b2808     farutils.obj
 0002:0000f810       __real@43e0000000000000    100b2810     update.obj
 0002:0000f818       __real@7fefffffffffffff    100b2818     ui.obj
 0002:0000f878       __load_config_used         100b2878     LIBCMT:loadcfg.obj
 0002:0000f91c       ??_R4logic_error@std@@6B@  100b291c     libcpmt:xthrow.obj
 0002:0000f930       ??_R3logic_error@std@@8    100b2930     libcpmt:xthrow.obj
 0002:0000f940       ??_R2logic_error@std@@8    100b2940     libcpmt:xthrow.obj
 0002:0000f94c       ??_R1A@?0A@EA@logic_error@std@@8 100b294c     libcpmt:xthrow.obj
 0002:0000f968       ??_R4length_error@std@@6B@ 100b2968     libcpmt:xthrow.obj
 0002:0000f97c       ??_R3length_error@std@@8   100b297c     libcpmt:xthrow.obj
 0002:0000f98c       ??_R2length_error@std@@8   100b298c     libcpmt:xthrow.obj
 0002:0000f99c       ??_R1A@?0A@EA@length_error@std@@8 100b299c     libcpmt:xthrow.obj
 0002:0000f9b8       ??_R4out_of_range@std@@6B@ 100b29b8     libcpmt:xthrow.obj
 0002:0000f9cc       ??_R3out_of_range@std@@8   100b29cc     libcpmt:xthrow.obj
 0002:0000f9dc       ??_R2out_of_range@std@@8   100b29dc     libcpmt:xthrow.obj
 0002:0000f9ec       ??_R1A@?0A@EA@out_of_range@std@@8 100b29ec     libcpmt:xthrow.obj
 0002:0000fa08       ??_R4_Locimp@locale@std@@6B@ 100b2a08     libcpmt:locale0.obj
 0002:0000fa1c       ??_R3_Locimp@locale@std@@8 100b2a1c     libcpmt:locale0.obj
 0002:0000fa2c       ??_R2_Locimp@locale@std@@8 100b2a2c     libcpmt:locale0.obj
 0002:0000fa40       ??_R1A@?0A@EA@_Locimp@locale@std@@8 100b2a40     libcpmt:locale0.obj
 0002:0000fa5c       ??_R4type_info@@6B@        100b2a5c     LIBCMT:std_type_info_static.obj
 0002:0000fa70       ??_R3type_info@@8          100b2a70     LIBCMT:std_type_info_static.obj
 0002:0000fa80       ??_R2type_info@@8          100b2a80     LIBCMT:std_type_info_static.obj
 0002:0000fa88       ??_R1A@?0A@EA@type_info@@8 100b2a88     LIBCMT:std_type_info_static.obj
 0002:0000faa4       ??_R4bad_typeid@std@@6B@   100b2aa4     libvcruntime:rtti.obj
 0002:0000fab8       ??_R3bad_typeid@std@@8     100b2ab8     libvcruntime:rtti.obj
 0002:0000fac8       ??_R2bad_typeid@std@@8     100b2ac8     libvcruntime:rtti.obj
 0002:0000fad4       ??_R1A@?0A@EA@bad_typeid@std@@8 100b2ad4     libvcruntime:rtti.obj
 0002:0000faf0       ??_R4__non_rtti_object@std@@6B@ 100b2af0     libvcruntime:rtti.obj
 0002:0000fb04       ??_R3__non_rtti_object@std@@8 100b2b04     libvcruntime:rtti.obj
 0002:0000fb14       ??_R2__non_rtti_object@std@@8 100b2b14     libvcruntime:rtti.obj
 0002:0000fb24       ??_R1A@?0A@EA@__non_rtti_object@std@@8 100b2b24     libvcruntime:rtti.obj
 0002:0000fb40       ??_R4bad_exception@std@@6B@ 100b2b40     libvcruntime:frame.obj
 0002:0000fb54       ??_R3bad_exception@std@@8  100b2b54     libvcruntime:frame.obj
 0002:0000fb64       ??_R2bad_exception@std@@8  100b2b64     libvcruntime:frame.obj
 0002:0000fb70       ??_R1A@?0A@EA@bad_exception@std@@8 100b2b70     libvcruntime:frame.obj
 0002:0000fb8c       ??_R3DNameNode@@8          100b2b8c     libvcruntime:undname.obj
 0002:0000fb9c       ??_R2DNameNode@@8          100b2b9c     libvcruntime:undname.obj
 0002:0000fba4       ??_R1A@?0A@EA@DNameNode@@8 100b2ba4     libvcruntime:undname.obj
 0002:0000fbc0       ??_R4charNode@@6B@         100b2bc0     libvcruntime:undname.obj
 0002:0000fbd4       ??_R3charNode@@8           100b2bd4     libvcruntime:undname.obj
 0002:0000fbe4       ??_R2charNode@@8           100b2be4     libvcruntime:undname.obj
 0002:0000fbf0       ??_R1A@?0A@EA@charNode@@8  100b2bf0     libvcruntime:undname.obj
 0002:0000fc0c       ??_R4pcharNode@@6B@        100b2c0c     libvcruntime:undname.obj
 0002:0000fc20       ??_R3pcharNode@@8          100b2c20     libvcruntime:undname.obj
 0002:0000fc30       ??_R2pcharNode@@8          100b2c30     libvcruntime:undname.obj
 0002:0000fc3c       ??_R1A@?0A@EA@pcharNode@@8 100b2c3c     libvcruntime:undname.obj
 0002:0000fc58       ??_R4pDNameNode@@6B@       100b2c58     libvcruntime:undname.obj
 0002:0000fc6c       ??_R3pDNameNode@@8         100b2c6c     libvcruntime:undname.obj
 0002:0000fc7c       ??_R2pDNameNode@@8         100b2c7c     libvcruntime:undname.obj
 0002:0000fc88       ??_R1A@?0A@EA@pDNameNode@@8 100b2c88     libvcruntime:undname.obj
 0002:0000fca4       ??_R4DNameStatusNode@@6B@  100b2ca4     libvcruntime:undname.obj
 0002:0000fcb8       ??_R3DNameStatusNode@@8    100b2cb8     libvcruntime:undname.obj
 0002:0000fcc8       ??_R2DNameStatusNode@@8    100b2cc8     libvcruntime:undname.obj
 0002:0000fcd4       ??_R1A@?0A@EA@DNameStatusNode@@8 100b2cd4     libvcruntime:undname.obj
 0002:0000fcf0       ??_R4pairNode@@6B@         100b2cf0     libvcruntime:undname.obj
 0002:0000fd04       ??_R3pairNode@@8           100b2d04     libvcruntime:undname.obj
 0002:0000fd14       ??_R2pairNode@@8           100b2d14     libvcruntime:undname.obj
 0002:0000fd20       ??_R1A@?0A@EA@pairNode@@8  100b2d20     libvcruntime:undname.obj
 0002:0000fd3c       ??_R2MyCompressCodecsInfo@@8 100b2d3c     archive.obj
 0002:0000fd5c       ??_R2ComBase@@8            100b2d5c     archive.obj
 0002:0000fd68       ??_R2IHashers@@8           100b2d68     archive.obj
 0002:0000fd74       ??_R2ICompressCodecsInfo@@8 100b2d74     archive.obj
 0002:0000fd80       ??_R2IUnknown@@8           100b2d80     archive.obj
 0002:0000fd88       ??_R17?0A@EL@IUnknown@@8   100b2d88     archive.obj
 0002:0000fda4       ??_R17?0A@EN@ComBase@@8    100b2da4     archive.obj
 0002:0000fdc0       ??_R13?0A@EC@IUnknown@@8   100b2dc0     archive.obj
 0002:0000fddc       ??_R13?0A@EA@IHashers@@8   100b2ddc     archive.obj
 0002:0000fdf8       ??_R1A@?0A@EC@IUnknown@@8  100b2df8     archive.obj
 0002:0000fe14       ??_R1A@?0A@EA@MyCompressCodecsInfo@@8 100b2e14     archive.obj
 0002:0000fe30       ??_R1A@?0A@EA@ComBase@@8   100b2e30     archive.obj
 0002:0000fe4c       ??_R1A@?0A@EA@IHashers@@8  100b2e4c     archive.obj
 0002:0000fe68       ??_R1A@?0A@EA@ICompressCodecsInfo@@8 100b2e68     archive.obj
 0002:0000fe84       ??_R1A@?0A@EA@IUnknown@@8  100b2e84     archive.obj
 0002:0000fea0       ??_R3MyCompressCodecsInfo@@8 100b2ea0     archive.obj
 0002:0000feb0       ??_R3ComBase@@8            100b2eb0     archive.obj
 0002:0000fec0       ??_R3IHashers@@8           100b2ec0     archive.obj
 0002:0000fed0       ??_R3ICompressCodecsInfo@@8 100b2ed0     archive.obj
 0002:0000fee0       ??_R3IUnknown@@8           100b2ee0     archive.obj
 0002:0000fef0       ??_R4MyCompressCodecsInfo@@6BComBase@@@ 100b2ef0     archive.obj
 0002:0000ff04       ??_R4MyCompressCodecsInfo@@6BIHashers@@@ 100b2f04     archive.obj
 0002:0000ff18       ??_R4MyCompressCodecsInfo@@6BICompressCodecsInfo@@@ 100b2f18     archive.obj
 0002:0000ff2c       ??_R4ComBase@@6B@          100b2f2c     archive.obj
 0002:0000ff40       ??_R4IHashers@@6B@         100b2f40     archive.obj
 0002:0000ff54       ??_R1A@?0A@EA@bad_array_new_length@std@@8 100b2f54     archive.obj
 0002:0000ff70       ??_R2bad_array_new_length@std@@8 100b2f70     archive.obj
 0002:0000ff80       ??_R3bad_array_new_length@std@@8 100b2f80     archive.obj
 0002:0000ff90       ??_R4bad_array_new_length@std@@6B@ 100b2f90     archive.obj
 0002:0000ffa4       ??_R1A@?0A@EA@bad_alloc@std@@8 100b2fa4     archive.obj
 0002:0000ffc0       ??_R2bad_alloc@std@@8      100b2fc0     archive.obj
 0002:0000ffcc       ??_R3bad_alloc@std@@8      100b2fcc     archive.obj
 0002:0000ffdc       ??_R4bad_alloc@std@@6B@    100b2fdc     archive.obj
 0002:0000fff0       ??_R1A@?0A@EA@exception@std@@8 100b2ff0     archive.obj
 0002:0001000c       ??_R2exception@std@@8      100b300c     archive.obj
 0002:00010014       ??_R3exception@std@@8      100b3014     archive.obj
 0002:00010024       ??_R4exception@std@@6B@    100b3024     archive.obj
 0002:00010038       ??_R2?$_Ref_count@VArchiveFileDeleterProgress@@@std@@8 100b3038     delete.obj
 0002:00010044       ??_R2ArchiveFileDeleter@@8 100b3044     delete.obj
 0002:00010060       ??_R2ArchiveFileDeleterStream@@8 100b3060     delete.obj
 0002:00010084       ??_R2File@@8               100b3084     delete.obj
 0002:00010090       ??_R2ArchiveFileDeleterProgress@@8 100b3090     delete.obj
 0002:000100a0       ??_R2ProgressMonitor@@8    100b30a0     delete.obj
 0002:000100ac       ??_R2NonCopyable@@8        100b30ac     delete.obj
 0002:000100b4       ??_R2IArchiveUpdateCallback@@8 100b30b4     delete.obj
 0002:000100c4       ??_R2IOutStream@@8         100b30c4     delete.obj
 0002:000100d4       ??_R2ISequentialOutStream@@8 100b30d4     delete.obj
 0002:000100e0       ??_R2IProgress@@8          100b30e0     delete.obj
 0002:000100ec       ??_R2?$basic_ostringstream@_WU?$char_traits@_W@std@@V?$allocator@_W@2@@std@@8 100b30ec     delete.obj
 0002:00010104       ??_R2?$basic_stringbuf@_WU?$char_traits@_W@std@@V?$allocator@_W@2@@std@@8 100b3104     delete.obj
 0002:00010110       ??_R2?$basic_ostream@_WU?$char_traits@_W@std@@@std@@8 100b3110     delete.obj
 0002:00010124       ??_R2?$basic_streambuf@_WU?$char_traits@_W@std@@@std@@8 100b3124     delete.obj
 0002:0001012c       ??_R2?$basic_ios@_WU?$char_traits@_W@std@@@std@@8 100b312c     delete.obj
 0002:0001013c       ??_R2_Ref_count_base@std@@8 100b313c     delete.obj
 0002:00010144       ??_R3_Ref_count_base@std@@8 100b3144     delete.obj
 0002:00010154       ??_R1A@?0A@EA@_Ref_count_base@std@@8 100b3154     delete.obj
 0002:00010170       ??_R1A@?0A@EA@?$_Ref_count@VArchiveFileDeleterProgress@@@std@@8 100b3170     delete.obj
 0002:0001018c       ??_R1A@?0A@EA@ArchiveFileDeleter@@8 100b318c     delete.obj
 0002:000101a8       ??_R1M@?0A@EN@NonCopyable@@8 100b31a8     delete.obj
 0002:000101c4       ??_R1M@?0A@EN@File@@8      100b31c4     delete.obj
 0002:000101e0       ??_R13?0A@EA@ComBase@@8    100b31e0     delete.obj
 0002:000101fc       ??_R1A@?0A@EA@ArchiveFileDeleterStream@@8 100b31fc     delete.obj
 0002:00010218       ??_R1A@?0A@EN@NonCopyable@@8 100b3218     delete.obj
 0002:00010234       ??_R1A@?0A@EA@File@@8      100b3234     delete.obj
 0002:00010250       ??_R1A@?0A@EA@ArchiveFileDeleterProgress@@8 100b3250     delete.obj
 0002:0001026c       ??_R17?0A@EN@NonCopyable@@8 100b326c     delete.obj
 0002:00010288       ??_R1A@?0A@EA@ProgressMonitor@@8 100b3288     delete.obj
 0002:000102a4       ??_R1A@?0A@EA@NonCopyable@@8 100b32a4     delete.obj
 0002:000102c0       ??_R1A@?0A@EA@IArchiveUpdateCallback@@8 100b32c0     delete.obj
 0002:000102dc       ??_R1A@?0A@EA@IOutStream@@8 100b32dc     delete.obj
 0002:000102f8       ??_R1A@?0A@EA@ISequentialOutStream@@8 100b32f8     delete.obj
 0002:00010314       ??_R1A@?0A@EA@IProgress@@8 100b3314     delete.obj
 0002:00010330       ??_R1A@?0A@EA@?$basic_ostringstream@_WU?$char_traits@_W@std@@V?$allocator@_W@2@@std@@8 100b3330     delete.obj
 0002:0001034c       ??_R1A@?0A@EA@?$basic_stringbuf@_WU?$char_traits@_W@std@@V?$allocator@_W@2@@std@@8 100b334c     delete.obj
 0002:00010368       ??_R17A@3EA@?$_Iosb@H@std@@8 100b3368     delete.obj
 0002:00010384       ??_R1A@A@3EA@ios_base@std@@8 100b3384     delete.obj
 0002:000103a0       ??_R1A@A@3FA@?$basic_ios@_WU?$char_traits@_W@std@@@std@@8 100b33a0     delete.obj
 0002:000103bc       ??_R1A@?0A@EA@?$basic_ostream@_WU?$char_traits@_W@std@@@std@@8 100b33bc     delete.obj
 0002:000103d8       ??_R1A@?0A@EA@?$basic_streambuf@_WU?$char_traits@_W@std@@@std@@8 100b33d8     delete.obj
 0002:000103f4       ??_R1A@?0A@EA@?$basic_ios@_WU?$char_traits@_W@std@@@std@@8 100b33f4     delete.obj
 0002:00010410       ??_R3?$_Ref_count@VArchiveFileDeleterProgress@@@std@@8 100b3410     delete.obj
 0002:00010420       ??_R3ArchiveFileDeleter@@8 100b3420     delete.obj
 0002:00010430       ??_R3File@@8               100b3430     delete.obj
 0002:00010440       ??_R3ArchiveFileDeleterStream@@8 100b3440     delete.obj
 0002:00010450       ??_R3ProgressMonitor@@8    100b3450     delete.obj
 0002:00010460       ??_R3ArchiveFileDeleterProgress@@8 100b3460     delete.obj
 0002:00010470       ??_R3NonCopyable@@8        100b3470     delete.obj
 0002:00010480       ??_R3IArchiveUpdateCallback@@8 100b3480     delete.obj
 0002:00010490       ??_R3IOutStream@@8         100b3490     delete.obj
 0002:000104a0       ??_R3ISequentialOutStream@@8 100b34a0     delete.obj
 0002:000104b0       ??_R3IProgress@@8          100b34b0     delete.obj
 0002:000104c0       ??_R3?$basic_ostringstream@_WU?$char_traits@_W@std@@V?$allocator@_W@2@@std@@8 100b34c0     delete.obj
 0002:000104d0       ??_R3?$basic_stringbuf@_WU?$char_traits@_W@std@@V?$allocator@_W@2@@std@@8 100b34d0     delete.obj
 0002:000104e0       ??_R3?$basic_ostream@_WU?$char_traits@_W@std@@@std@@8 100b34e0     delete.obj
 0002:000104f0       ??_R3?$basic_streambuf@_WU?$char_traits@_W@std@@@std@@8 100b34f0     delete.obj
 0002:00010500       ??_R3?$basic_ios@_WU?$char_traits@_W@std@@@std@@8 100b3500     delete.obj
 0002:00010510       ??_R4?$_Ref_count@VArchiveFileDeleterProgress@@@std@@6B@ 100b3510     delete.obj
 0002:00010524       ??_R4ArchiveFileDeleter@@6BComBase@@@ 100b3524     delete.obj
 0002:00010538       ??_R4ArchiveFileDeleter@@6BIArchiveUpdateCallback@@@ 100b3538     delete.obj
 0002:0001054c       ??_R4ArchiveFileDeleterStream@@6BComBase@@@ 100b354c     delete.obj
 0002:00010560       ??_R4ArchiveFileDeleterStream@@6BIOutStream@@@ 100b3560     delete.obj
 0002:00010574       ??_R4ArchiveFileDeleterProgress@@6B@ 100b3574     delete.obj
 0002:00010588       ??_R4?$basic_ostringstream@_WU?$char_traits@_W@std@@V?$allocator@_W@2@@std@@6B@ 100b3588     delete.obj
 0002:0001059c       ??_R4?$basic_stringbuf@_WU?$char_traits@_W@std@@V?$allocator@_W@2@@std@@6B@ 100b359c     delete.obj
 0002:000105b0       ??_R4?$basic_ostream@_WU?$char_traits@_W@std@@@std@@6B@ 100b35b0     delete.obj
 0002:000105c4       ??_R4?$basic_streambuf@_WU?$char_traits@_W@std@@@std@@6B@ 100b35c4     delete.obj
 0002:000105d8       ??_R4?$basic_ios@_WU?$char_traits@_W@std@@@std@@6B@ 100b35d8     delete.obj
 0002:000105ec       ??_R1A@?0A@EA@?$ctype@_W@std@@8 100b35ec     delete.obj
 0002:00010608       ??_R2ctype_base@std@@8     100b3608     delete.obj
 0002:0001061c       ??_R3ctype_base@std@@8     100b361c     delete.obj
 0002:0001062c       ??_R1A@?0A@EA@ctype_base@std@@8 100b362c     delete.obj
 0002:00010648       ??_R2facet@locale@std@@8   100b3648     delete.obj
 0002:00010658       ??_R3facet@locale@std@@8   100b3658     delete.obj
 0002:00010668       ??_R1A@?0A@EA@facet@locale@std@@8 100b3668     delete.obj
 0002:00010684       ??_R1A@?0A@EA@_Crt_new_delete@std@@8 100b3684     delete.obj
 0002:000106a0       ??_R2_Crt_new_delete@std@@8 100b36a0     delete.obj
 0002:000106a8       ??_R3_Crt_new_delete@std@@8 100b36a8     delete.obj
 0002:000106b8       ??_R13?0A@EA@_Crt_new_delete@std@@8 100b36b8     delete.obj
 0002:000106d4       ??_R2?$ctype@_W@std@@8     100b36d4     delete.obj
 0002:000106ec       ??_R3?$ctype@_W@std@@8     100b36ec     delete.obj
 0002:000106fc       ??_R4?$ctype@_W@std@@6B@   100b36fc     delete.obj
 0002:00010710       ??_R1A@?0A@EA@_Iostream_error_category@std@@8 100b3710     delete.obj
 0002:0001072c       ??_R2_Generic_error_category@std@@8 100b372c     delete.obj
 0002:00010738       ??_R3_Generic_error_category@std@@8 100b3738     delete.obj
 0002:00010748       ??_R1A@?0A@EA@_Generic_error_category@std@@8 100b3748     delete.obj
 0002:00010764       ??_R2error_category@std@@8 100b3764     delete.obj
 0002:0001076c       ??_R3error_category@std@@8 100b376c     delete.obj
 0002:0001077c       ??_R1A@?0A@EA@error_category@std@@8 100b377c     delete.obj
 0002:00010798       ??_R2_Iostream_error_category@std@@8 100b3798     delete.obj
 0002:000107a8       ??_R3_Iostream_error_category@std@@8 100b37a8     delete.obj
 0002:000107b8       ??_R4_Iostream_error_category@std@@6B@ 100b37b8     delete.obj
 0002:000107cc       ??_R1A@?0A@EA@failure@ios_base@std@@8 100b37cc     delete.obj
 0002:000107e8       ??_R2failure@ios_base@std@@8 100b37e8     delete.obj
 0002:00010800       ??_R3failure@ios_base@std@@8 100b3800     delete.obj
 0002:00010810       ??_R4failure@ios_base@std@@6B@ 100b3810     delete.obj
 0002:00010824       ??_R1A@?0A@EA@system_error@std@@8 100b3824     delete.obj
 0002:00010840       ??_R2system_error@std@@8   100b3840     delete.obj
 0002:00010854       ??_R3system_error@std@@8   100b3854     delete.obj
 0002:00010864       ??_R4system_error@std@@6B@ 100b3864     delete.obj
 0002:00010878       ??_R1A@?0A@EA@_System_error@std@@8 100b3878     delete.obj
 0002:00010894       ??_R2_System_error@std@@8  100b3894     delete.obj
 0002:000108a4       ??_R3_System_error@std@@8  100b38a4     delete.obj
 0002:000108b4       ??_R4_System_error@std@@6B@ 100b38b4     delete.obj
 0002:000108c8       ??_R1A@?0A@EA@runtime_error@std@@8 100b38c8     delete.obj
 0002:000108e4       ??_R2runtime_error@std@@8  100b38e4     delete.obj
 0002:000108f0       ??_R3runtime_error@std@@8  100b38f0     delete.obj
 0002:00010900       ??_R4runtime_error@std@@6B@ 100b3900     delete.obj
 0002:00010914       ??_R1A@?0A@EA@_Facet_base@std@@8 100b3914     delete.obj
 0002:00010930       ??_R2_Facet_base@std@@8    100b3930     delete.obj
 0002:00010938       ??_R3_Facet_base@std@@8    100b3938     delete.obj
 0002:00010948       ??_R4_Facet_base@std@@6B@  100b3948     delete.obj
 0002:0001095c       ??_R1A@?0A@EA@ios_base@std@@8 100b395c     delete.obj
 0002:00010978       ??_R1A@?0A@EA@?$_Iosb@H@std@@8 100b3978     delete.obj
 0002:00010994       ??_R2?$_Iosb@H@std@@8      100b3994     delete.obj
 0002:0001099c       ??_R3?$_Iosb@H@std@@8      100b399c     delete.obj
 0002:000109ac       ??_R17?0A@EA@?$_Iosb@H@std@@8 100b39ac     delete.obj
 0002:000109c8       ??_R2ios_base@std@@8       100b39c8     delete.obj
 0002:000109d4       ??_R3ios_base@std@@8       100b39d4     delete.obj
 0002:000109e4       ??_R4ios_base@std@@6B@     100b39e4     delete.obj
 0002:000109f8       ??_R2?$_Ref_count@V?$set@IU?$less@I@std@@V?$allocator@I@2@@std@@@std@@8 100b39f8     extract.obj
 0002:00010a04       ??_R2?$_Ref_count@VFileWriteCache@@@std@@8 100b3a04     extract.obj
 0002:00010a10       ??_R2?$_Ref_count@VExtractProgress@@@std@@8 100b3a10     extract.obj
 0002:00010a1c       ??_R2?$_Ref_count@W4OverwriteAction@@@std@@8 100b3a1c     extract.obj
 0002:00010a28       ??_R2?$_Ref_count@_N@std@@8 100b3a28     extract.obj
 0002:00010a34       ??_R2SetDirAttr@@8         100b3a34     extract.obj
 0002:00010a44       ??_R2PrepareExtract@@8     100b3a44     extract.obj
 0002:00010a54       ??_R2ArchiveExtractor@@8   100b3a54     extract.obj
 0002:00010a78       ??_R2CachedFileExtractStream@@8 100b3a78     extract.obj
 0002:00010a90       ??_R2ExtractProgress@@8    100b3a90     extract.obj
 0002:00010aa0       ??_R2ICryptoGetTextPassword@@8 100b3aa0     extract.obj
 0002:00010aac       ??_R2IArchiveExtractCallback@@8 100b3aac     extract.obj
 0002:00010abc       ??_R1A@?0A@EA@?$_Ref_count@V?$set@IU?$less@I@std@@V?$allocator@I@2@@std@@@std@@8 100b3abc     extract.obj
 0002:00010ad8       ??_R1A@?0A@EA@?$_Ref_count@VFileWriteCache@@@std@@8 100b3ad8     extract.obj
 0002:00010af4       ??_R1A@?0A@EA@?$_Ref_count@VExtractProgress@@@std@@8 100b3af4     extract.obj
 0002:00010b10       ??_R1A@?0A@EA@?$_Ref_count@W4OverwriteAction@@@std@@8 100b3b10     extract.obj
 0002:00010b2c       ??_R1A@?0A@EA@?$_Ref_count@_N@std@@8 100b3b2c     extract.obj
 0002:00010b48       ??_R1A@?0A@EA@SetDirAttr@@8 100b3b48     extract.obj
 0002:00010b64       ??_R1A@?0A@EA@PrepareExtract@@8 100b3b64     extract.obj
 0002:00010b80       ??_R17?0A@EC@IUnknown@@8   100b3b80     extract.obj
 0002:00010b9c       ??_R17?0A@EA@ComBase@@8    100b3b9c     extract.obj
 0002:00010bb8       ??_R13?0A@EA@ICryptoGetTextPassword@@8 100b3bb8     extract.obj
 0002:00010bd4       ??_R1A@?0A@EA@ArchiveExtractor@@8 100b3bd4     extract.obj
 0002:00010bf0       ??_R1A@?0A@EA@CachedFileExtractStream@@8 100b3bf0     extract.obj
 0002:00010c0c       ??_R1A@?0A@EA@ExtractProgress@@8 100b3c0c     extract.obj
 0002:00010c28       ??_R1A@?0A@EA@ICryptoGetTextPassword@@8 100b3c28     extract.obj
 0002:00010c44       ??_R1A@?0A@EA@IArchiveExtractCallback@@8 100b3c44     extract.obj
 0002:00010c60       ??_R3?$_Ref_count@V?$set@IU?$less@I@std@@V?$allocator@I@2@@std@@@std@@8 100b3c60     extract.obj
 0002:00010c70       ??_R3?$_Ref_count@VFileWriteCache@@@std@@8 100b3c70     extract.obj
 0002:00010c80       ??_R3?$_Ref_count@VExtractProgress@@@std@@8 100b3c80     extract.obj
 0002:00010c90       ??_R3?$_Ref_count@W4OverwriteAction@@@std@@8 100b3c90     extract.obj
 0002:00010ca0       ??_R3?$_Ref_count@_N@std@@8 100b3ca0     extract.obj
 0002:00010cb0       ??_R3SetDirAttr@@8         100b3cb0     extract.obj
 0002:00010cc0       ??_R3PrepareExtract@@8     100b3cc0     extract.obj
 0002:00010cd0       ??_R3ArchiveExtractor@@8   100b3cd0     extract.obj
 0002:00010ce0       ??_R3CachedFileExtractStream@@8 100b3ce0     extract.obj
 0002:00010cf0       ??_R3ExtractProgress@@8    100b3cf0     extract.obj
 0002:00010d00       ??_R3ICryptoGetTextPassword@@8 100b3d00     extract.obj
 0002:00010d10       ??_R3IArchiveExtractCallback@@8 100b3d10     extract.obj
 0002:00010d20       ??_R4?$_Ref_count@V?$set@IU?$less@I@std@@V?$allocator@I@2@@std@@@std@@6B@ 100b3d20     extract.obj
 0002:00010d34       ??_R4?$_Ref_count@VFileWriteCache@@@std@@6B@ 100b3d34     extract.obj
 0002:00010d48       ??_R4?$_Ref_count@VExtractProgress@@@std@@6B@ 100b3d48     extract.obj
 0002:00010d5c       ??_R4?$_Ref_count@W4OverwriteAction@@@std@@6B@ 100b3d5c     extract.obj
 0002:00010d70       ??_R4?$_Ref_count@_N@std@@6B@ 100b3d70     extract.obj
 0002:00010d84       ??_R4SetDirAttr@@6B@       100b3d84     extract.obj
 0002:00010d98       ??_R4PrepareExtract@@6B@   100b3d98     extract.obj
 0002:00010dac       ??_R4ArchiveExtractor@@6BComBase@@@ 100b3dac     extract.obj
 0002:00010dc0       ??_R4ArchiveExtractor@@6BICryptoGetTextPassword@@@ 100b3dc0     extract.obj
 0002:00010dd4       ??_R4ArchiveExtractor@@6BIArchiveExtractCallback@@@ 100b3dd4     extract.obj
 0002:00010de8       ??_R4CachedFileExtractStream@@6BComBase@@@ 100b3de8     extract.obj
 0002:00010dfc       ??_R4CachedFileExtractStream@@6BISequentialOutStream@@@ 100b3dfc     extract.obj
 0002:00010e10       ??_R4ExtractProgress@@6B@  100b3e10     extract.obj
 0002:00010e24       ??_R4ICryptoGetTextPassword@@6B@ 100b3e24     extract.obj
 0002:00010e38       ??_R4IArchiveExtractCallback@@6B@ 100b3e38     extract.obj
 0002:00010e4c       ??_R1A@?0A@EA@bad_weak_ptr@std@@8 100b3e4c     extract.obj
 0002:00010e68       ??_R2bad_weak_ptr@std@@8   100b3e68     extract.obj
 0002:00010e74       ??_R3bad_weak_ptr@std@@8   100b3e74     extract.obj
 0002:00010e84       ??_R4bad_weak_ptr@std@@6B@ 100b3e84     extract.obj
 0002:00010e98       ??_R2?$numpunct@_W@std@@8  100b3e98     farutils.obj
 0002:00010eac       ??_R2?$num_put@_WV?$ostreambuf_iterator@_WU?$char_traits@_W@std@@@std@@@std@@8 100b3eac     farutils.obj
 0002:00010ec0       ??_R2Dialog@Far@@8         100b3ec0     farutils.obj
 0002:00010ec8       ??_R1A@?0A@EA@?$numpunct@_W@std@@8 100b3ec8     farutils.obj
 0002:00010ee4       ??_R1A@?0A@EA@?$num_put@_WV?$ostreambuf_iterator@_WU?$char_traits@_W@std@@@std@@@std@@8 100b3ee4     farutils.obj
 0002:00010f00       ??_R1A@?0A@EA@Dialog@Far@@8 100b3f00     farutils.obj
 0002:00010f1c       ??_R3?$numpunct@_W@std@@8  100b3f1c     farutils.obj
 0002:00010f2c       ??_R3?$num_put@_WV?$ostreambuf_iterator@_WU?$char_traits@_W@std@@@std@@@std@@8 100b3f2c     farutils.obj
 0002:00010f3c       ??_R3Dialog@Far@@8         100b3f3c     farutils.obj
 0002:00010f4c       ??_R4?$numpunct@_W@std@@6B@ 100b3f4c     farutils.obj
 0002:00010f60       ??_R4?$num_put@_WV?$ostreambuf_iterator@_WU?$char_traits@_W@std@@@std@@@std@@6B@ 100b3f60     farutils.obj
 0002:00010f74       ??_R4Dialog@Far@@6B@       100b3f74     farutils.obj
 0002:00010f88       ??_R2?$_Ref_count@VArchive@@@std@@8 100b3f88     open.obj
 0002:00010f94       ??_R2ArchiveOpener@@8      100b3f94     open.obj
 0002:00010fc4       ??_R2ArchiveOpenStream@@8  100b3fc4     open.obj
 0002:00010fe8       ??_R2ArchiveSubStream@@8   100b3fe8     open.obj
 0002:00011004       ??_R2IArchiveOpenVolumeCallback@@8 100b4004     open.obj
 0002:00011010       ??_R2IArchiveOpenCallback@@8 100b4010     open.obj
 0002:0001101c       ??_R2IInStream@@8          100b401c     open.obj
 0002:0001102c       ??_R2ISequentialInStream@@8 100b402c     open.obj
 0002:00011038       ??_R1A@?0A@EA@?$_Ref_count@VArchive@@@std@@8 100b4038     open.obj
 0002:00011054       ??_R1CA@?0A@EN@NonCopyable@@8 100b4054     open.obj
 0002:00011070       ??_R1BI@?0A@EA@ProgressMonitor@@8 100b4070     open.obj
 0002:0001108c       ??_R1M@?0A@EC@IUnknown@@8  100b408c     open.obj
 0002:000110a8       ??_R1M@?0A@EA@ComBase@@8   100b40a8     open.obj
 0002:000110c4       ??_R17?0A@EA@ICryptoGetTextPassword@@8 100b40c4     open.obj
 0002:000110e0       ??_R13?0A@EA@IArchiveOpenVolumeCallback@@8 100b40e0     open.obj
 0002:000110fc       ??_R1A@?0A@EA@ArchiveOpener@@8 100b40fc     open.obj
 0002:00011118       ??_R1A@?0A@EA@ArchiveOpenStream@@8 100b4118     open.obj
 0002:00011134       ??_R13?0A@EL@IUnknown@@8   100b4134     open.obj
 0002:00011150       ??_R13?0A@EN@ComBase@@8    100b4150     open.obj
 0002:0001116c       ??_R1A@?0A@EA@ArchiveSubStream@@8 100b416c     open.obj
 0002:00011188       ??_R1A@?0A@EA@IArchiveOpenVolumeCallback@@8 100b4188     open.obj
 0002:000111a4       ??_R1A@?0A@EA@IArchiveOpenCallback@@8 100b41a4     open.obj
 0002:000111c0       ??_R1A@?0A@EA@IInStream@@8 100b41c0     open.obj
 0002:000111dc       ??_R1A@?0A@EA@ISequentialInStream@@8 100b41dc     open.obj
 0002:000111f8       ??_R3?$_Ref_count@VArchive@@@std@@8 100b41f8     open.obj
 0002:00011208       ??_R3ArchiveOpener@@8      100b4208     open.obj
 0002:00011218       ??_R3ArchiveOpenStream@@8  100b4218     open.obj
 0002:00011228       ??_R3ArchiveSubStream@@8   100b4228     open.obj
 0002:00011238       ??_R3IArchiveOpenVolumeCallback@@8 100b4238     open.obj
 0002:00011248       ??_R3IArchiveOpenCallback@@8 100b4248     open.obj
 0002:00011258       ??_R3IInStream@@8          100b4258     open.obj
 0002:00011268       ??_R3ISequentialInStream@@8 100b4268     open.obj
 0002:00011278       ??_R4?$_Ref_count@VArchive@@@std@@6B@ 100b4278     open.obj
 0002:0001128c       ??_R4ArchiveOpener@@6BProgressMonitor@@@ 100b428c     open.obj
 0002:000112a0       ??_R4ArchiveOpener@@6BComBase@@@ 100b42a0     open.obj
 0002:000112b4       ??_R4ArchiveOpener@@6BICryptoGetTextPassword@@@ 100b42b4     open.obj
 0002:000112c8       ??_R4ArchiveOpener@@6BIArchiveOpenVolumeCallback@@@ 100b42c8     open.obj
 0002:000112dc       ??_R4ArchiveOpener@@6BIArchiveOpenCallback@@@ 100b42dc     open.obj
 0002:000112f0       ??_R4ArchiveOpenStream@@6BComBase@@@ 100b42f0     open.obj
 0002:00011304       ??_R4ArchiveOpenStream@@6BIInStream@@@ 100b4304     open.obj
 0002:00011318       ??_R4ArchiveSubStream@@6BComBase@@@ 100b4318     open.obj
 0002:0001132c       ??_R4ArchiveSubStream@@6BIInStream@@@ 100b432c     open.obj
 0002:00011340       ??_R4IArchiveOpenVolumeCallback@@6B@ 100b4340     open.obj
 0002:00011354       ??_R4IArchiveOpenCallback@@6B@ 100b4354     open.obj
 0002:00011368       ??_R2xml_parser@@8         100b4368     options.obj
 0002:00011374       ??_R2IParseCallback@SimpleXML@@8 100b4374     options.obj
 0002:0001137c       ??_R1A@?0A@EA@xml_parser@@8 100b437c     options.obj
 0002:00011398       ??_R1A@?0A@EA@IParseCallback@SimpleXML@@8 100b4398     options.obj
 0002:000113b4       ??_R3xml_parser@@8         100b43b4     options.obj
 0002:000113c4       ??_R3IParseCallback@SimpleXML@@8 100b43c4     options.obj
 0002:000113d4       ??_R4xml_parser@@6B@       100b43d4     options.obj
 0002:000113e8       ??_R4IParseCallback@SimpleXML@@6B@ 100b43e8     options.obj
 0002:00011408       ??_R2?$_Ref_count@V?$list@UError@@V?$allocator@UError@@@std@@@std@@@std@@8 100b4408     plugin.obj
 0002:00011414       ??_R2PluginPanelItems@?1??extract@Plugin@@QAEXXZ@8 100b4414     plugin.obj
 0002:00011420       ??_R2PluginPanelItems@?1??get_files@Plugin@@QAEXPBUPluginPanelItem@@HHPAPB_W_K@Z@8 100b4420     plugin.obj
 0002:0001142c       ??_R2PluginPanelItemAccessor@Plugin@@8 100b442c     plugin.obj
 0002:00011450       ??_R1A@?0A@EA@?$_Ref_count@V?$list@UError@@V?$allocator@UError@@@std@@@std@@@std@@8 100b4450     plugin.obj
 0002:0001146c       ??_R1A@?0A@EA@PluginPanelItems@?1??extract@Plugin@@QAEXXZ@8 100b446c     plugin.obj
 0002:00011488       ??_R1A@?0A@EA@PluginPanelItems@?1??get_files@Plugin@@QAEXPBUPluginPanelItem@@HHPAPB_W_K@Z@8 100b4488     plugin.obj
 0002:000114a4       ??_R1A@?0A@EA@PluginPanelItemAccessor@Plugin@@8 100b44a4     plugin.obj
 0002:000114d0       ??_R3?$_Ref_count@V?$list@UError@@V?$allocator@UError@@@std@@@std@@@std@@8 100b44d0     plugin.obj
 0002:000114e0       ??_R3PluginPanelItems@?1??extract@Plugin@@QAEXXZ@8 100b44e0     plugin.obj
 0002:000114f0       ??_R3PluginPanelItems@?1??get_files@Plugin@@QAEXPBUPluginPanelItem@@HHPAPB_W_K@Z@8 100b44f0     plugin.obj
 0002:00011500       ??_R3PluginPanelItemAccessor@Plugin@@8 100b4500     plugin.obj
 0002:00011524       ??_R4?$_Ref_count@V?$list@UError@@V?$allocator@UError@@@std@@@std@@@std@@6B@ 100b4524     plugin.obj
 0002:00011538       ??_R4PluginPanelItems@?1??extract@Plugin@@QAEXXZ@6B@ 100b4538     plugin.obj
 0002:0001154c       ??_R4PluginPanelItems@?1??get_files@Plugin@@QAEXPBUPluginPanelItem@@HHPAPB_W_K@Z@6B@ 100b454c     plugin.obj
 0002:00011560       ??_R2SfxOptionsDialog@@8   100b4560     sfx.obj
 0002:0001156c       ??_R2AttachSfxModuleProgress@@8 100b456c     sfx.obj
 0002:0001157c       ??_R1A@?0A@EA@SfxOptionsDialog@@8 100b457c     sfx.obj
 0002:00011598       ??_R1A@?0A@EA@AttachSfxModuleProgress@@8 100b4598     sfx.obj
 0002:000115b4       ??_R3SfxOptionsDialog@@8   100b45b4     sfx.obj
 0002:000115c4       ??_R3AttachSfxModuleProgress@@8 100b45c4     sfx.obj
 0002:000115d4       ??_R4SfxOptionsDialog@@6B@ 100b45d4     sfx.obj
 0002:000115e8       ??_R4AttachSfxModuleProgress@@6B@ 100b45e8     sfx.obj
 0002:000115fc       ??_R2CriticalSection@@8    100b45fc     sysutils.obj
 0002:0001160c       ??_R2_RTL_CRITICAL_SECTION@@8 100b460c     sysutils.obj
 0002:00011614       ??_R13?0A@EN@_RTL_CRITICAL_SECTION@@8 100b4614     sysutils.obj
 0002:00011630       ??_R13?0A@EN@NonCopyable@@8 100b4630     sysutils.obj
 0002:0001164c       ??_R1A@?0A@EA@CriticalSection@@8 100b464c     sysutils.obj
 0002:00011668       ??_R1A@?0A@EA@_RTL_CRITICAL_SECTION@@8 100b4668     sysutils.obj
 0002:00011684       ??_R3_RTL_CRITICAL_SECTION@@8 100b4684     sysutils.obj
 0002:00011694       ??_R3CriticalSection@@8    100b4694     sysutils.obj
 0002:000116a4       ??_R4CriticalSection@@6B@  100b46a4     sysutils.obj
 0002:000116b8       ??_R2ArchiveTester@@8      100b46b8     test.obj
 0002:000116e4       ??_R1BI@?0A@EN@NonCopyable@@8 100b46e4     test.obj
 0002:00011700       ??_R1BA@?0A@EA@ProgressMonitor@@8 100b4700     test.obj
 0002:0001171c       ??_R1A@?0A@EA@ArchiveTester@@8 100b471c     test.obj
 0002:00011738       ??_R3ArchiveTester@@8      100b4738     test.obj
 0002:00011748       ??_R4ArchiveTester@@6BProgressMonitor@@@ 100b4748     test.obj
 0002:0001175c       ??_R4ArchiveTester@@6BComBase@@@ 100b475c     test.obj
 0002:00011770       ??_R4ArchiveTester@@6BICryptoGetTextPassword@@@ 100b4770     test.obj
 0002:00011784       ??_R4ArchiveTester@@6BIArchiveExtractCallback@@@ 100b4784     test.obj
 0002:00011798       ??_R2?$_Ref_count@VFileFilter@Far@@@std@@8 100b4798     ui.obj
 0002:000117a4       ??_R2AttrDialog@@8         100b47a4     ui.obj
 0002:000117b0       ??_R2SettingsDialog@@8     100b47b0     ui.obj
 0002:000117bc       ??_R2FormatLibraryInfoDialog@@8 100b47bc     ui.obj
 0002:000117c8       ??_R2MultiSelectDialog@@8  100b47c8     ui.obj
 0002:000117d4       ??_R2UpdateDialog@@8       100b47d4     ui.obj
 0002:000117e0       ??_R2ExtractDialog@@8      100b47e0     ui.obj
 0002:000117ec       ??_R2OverwriteDialog@@8    100b47ec     ui.obj
 0002:000117f8       ??_R2PasswordDialog@@8     100b47f8     ui.obj
 0002:00011804       ??_R1A@?0A@EA@?$_Ref_count@VFileFilter@Far@@@std@@8 100b4804     ui.obj
 0002:00011820       ??_R1A@?0A@EA@AttrDialog@@8 100b4820     ui.obj
 0002:0001183c       ??_R1A@?0A@EA@SettingsDialog@@8 100b483c     ui.obj
 0002:00011858       ??_R1A@?0A@EA@FormatLibraryInfoDialog@@8 100b4858     ui.obj
 0002:00011874       ??_R1A@?0A@EA@MultiSelectDialog@@8 100b4874     ui.obj
 0002:00011890       ??_R1A@?0A@EA@UpdateDialog@@8 100b4890     ui.obj
 0002:000118ac       ??_R1A@?0A@EA@ExtractDialog@@8 100b48ac     ui.obj
 0002:000118c8       ??_R1A@?0A@EA@OverwriteDialog@@8 100b48c8     ui.obj
 0002:000118e4       ??_R1A@?0A@EA@PasswordDialog@@8 100b48e4     ui.obj
 0002:00011900       ??_R3?$_Ref_count@VFileFilter@Far@@@std@@8 100b4900     ui.obj
 0002:00011910       ??_R3AttrDialog@@8         100b4910     ui.obj
 0002:00011920       ??_R3SettingsDialog@@8     100b4920     ui.obj
 0002:00011930       ??_R3FormatLibraryInfoDialog@@8 100b4930     ui.obj
 0002:00011940       ??_R3MultiSelectDialog@@8  100b4940     ui.obj
 0002:00011950       ??_R3UpdateDialog@@8       100b4950     ui.obj
 0002:00011960       ??_R3ExtractDialog@@8      100b4960     ui.obj
 0002:00011970       ??_R3OverwriteDialog@@8    100b4970     ui.obj
 0002:00011980       ??_R3PasswordDialog@@8     100b4980     ui.obj
 0002:00011990       ??_R4?$_Ref_count@VFileFilter@Far@@@std@@6B@ 100b4990     ui.obj
 0002:000119a4       ??_R4AttrDialog@@6B@       100b49a4     ui.obj
 0002:000119b8       ??_R4SettingsDialog@@6B@   100b49b8     ui.obj
 0002:000119cc       ??_R4FormatLibraryInfoDialog@@6B@ 100b49cc     ui.obj
 0002:000119e0       ??_R4MultiSelectDialog@@6B@ 100b49e0     ui.obj
 0002:000119f4       ??_R4UpdateDialog@@6B@     100b49f4     ui.obj
 0002:00011a08       ??_R4ExtractDialog@@6B@    100b4a08     ui.obj
 0002:00011a1c       ??_R4OverwriteDialog@@6B@  100b4a1c     ui.obj
 0002:00011a30       ??_R4PasswordDialog@@6B@   100b4a30     ui.obj
 0002:00011a44       ??_R4ProgressMonitor@@6B@  100b4a44     ui.obj
 0002:00011a58       ??_R2?$_Ref_count@VArchiveUpdateProgress@@@std@@8 100b4a58     update.obj
 0002:00011a64       ??_R2?$_Ref_count@V?$map@IUFileIndexInfo@@U?$less@I@std@@V?$allocator@U?$pair@$$CBIUFileIndexInfo@@@std@@@3@@std@@@std@@8 100b4a64     update.obj
 0002:00011a70       ??_R2DeleteSrcFiles@@8     100b4a70     update.obj
 0002:00011a80       ??_R2ArchiveUpdater@@8     100b4a80     update.obj
 0002:00011aa4       ??_R2PrepareUpdate@@8      100b4aa4     update.obj
 0002:00011ab4       ??_R2FileReadStream@@8     100b4ab4     update.obj
 0002:00011ae0       ??_R2MultiVolumeUpdateStream@@8 100b4ae0     update.obj
 0002:00011b00       ??_R2SfxUpdateStream@@8    100b4b00     update.obj
 0002:00011b28       ??_R2SimpleUpdateStream@@8 100b4b28     update.obj
 0002:00011b50       ??_R2UpdateStream@@8       100b4b50     update.obj
 0002:00011b64       ??_R2ArchiveUpdateProgress@@8 100b4b64     update.obj
 0002:00011b74       ??_R2ICryptoGetTextPassword2@@8 100b4b74     update.obj
 0002:00011b80       ??_R2IStreamGetSize@@8     100b4b80     update.obj
 0002:00011b8c       ??_R1A@?0A@EA@?$_Ref_count@VArchiveUpdateProgress@@@std@@8 100b4b8c     update.obj
 0002:00011ba8       ??_R1A@?0A@EA@?$_Ref_count@V?$map@IUFileIndexInfo@@U?$less@I@std@@V?$allocator@U?$pair@$$CBIUFileIndexInfo@@@std@@@3@@std@@@std@@8 100b4ba8     update.obj
 0002:00011bc4       ??_R1A@?0A@EA@DeleteSrcFiles@@8 100b4bc4     update.obj
 0002:00011be0       ??_R13?0A@EA@ICryptoGetTextPassword2@@8 100b4be0     update.obj
 0002:00011bfc       ??_R1A@?0A@EA@ArchiveUpdater@@8 100b4bfc     update.obj
 0002:00011c18       ??_R1A@?0A@EN@ProgressMonitor@@8 100b4c18     update.obj
 0002:00011c34       ??_R1A@?0A@EA@PrepareUpdate@@8 100b4c34     update.obj
 0002:00011c50       ??_R1BA@?0A@EN@NonCopyable@@8 100b4c50     update.obj
 0002:00011c6c       ??_R1BA@?0A@EN@File@@8     100b4c6c     update.obj
 0002:00011c88       ??_R13?0A@EA@IStreamGetSize@@8 100b4c88     update.obj
 0002:00011ca4       ??_R1A@?0A@EA@FileReadStream@@8 100b4ca4     update.obj
 0002:00011cc0       ??_R1A@?0A@EA@MultiVolumeUpdateStream@@8 100b4cc0     update.obj
 0002:00011cdc       ??_R1A@?0A@EA@SfxUpdateStream@@8 100b4cdc     update.obj
 0002:00011cf8       ??_R1BE@?0A@EN@NonCopyable@@8 100b4cf8     update.obj
 0002:00011d14       ??_R1BE@?0A@EN@File@@8     100b4d14     update.obj
 0002:00011d30       ??_R1A@?0A@EA@SimpleUpdateStream@@8 100b4d30     update.obj
 0002:00011d4c       ??_R1A@?0A@EA@UpdateStream@@8 100b4d4c     update.obj
 0002:00011d68       ??_R1A@?0A@EA@ArchiveUpdateProgress@@8 100b4d68     update.obj
 0002:00011d84       ??_R1A@?0A@EA@ICryptoGetTextPassword2@@8 100b4d84     update.obj
 0002:00011da0       ??_R1A@?0A@EA@IStreamGetSize@@8 100b4da0     update.obj
 0002:00011dbc       ??_R3?$_Ref_count@VArchiveUpdateProgress@@@std@@8 100b4dbc     update.obj
 0002:00011dcc       ??_R3?$_Ref_count@V?$map@IUFileIndexInfo@@U?$less@I@std@@V?$allocator@U?$pair@$$CBIUFileIndexInfo@@@std@@@3@@std@@@std@@8 100b4dcc     update.obj
 0002:00011ddc       ??_R3DeleteSrcFiles@@8     100b4ddc     update.obj
 0002:00011dec       ??_R3ArchiveUpdater@@8     100b4dec     update.obj
 0002:00011dfc       ??_R3PrepareUpdate@@8      100b4dfc     update.obj
 0002:00011e0c       ??_R3FileReadStream@@8     100b4e0c     update.obj
 0002:00011e1c       ??_R3MultiVolumeUpdateStream@@8 100b4e1c     update.obj
 0002:00011e2c       ??_R3SfxUpdateStream@@8    100b4e2c     update.obj
 0002:00011e3c       ??_R3SimpleUpdateStream@@8 100b4e3c     update.obj
 0002:00011e4c       ??_R3UpdateStream@@8       100b4e4c     update.obj
 0002:00011e5c       ??_R3ArchiveUpdateProgress@@8 100b4e5c     update.obj
 0002:00011e6c       ??_R3ICryptoGetTextPassword2@@8 100b4e6c     update.obj
 0002:00011e7c       ??_R3IStreamGetSize@@8     100b4e7c     update.obj
 0002:00011e8c       ??_R4?$_Ref_count@VArchiveUpdateProgress@@@std@@6B@ 100b4e8c     update.obj
 0002:00011ea0       ??_R4?$_Ref_count@V?$map@IUFileIndexInfo@@U?$less@I@std@@V?$allocator@U?$pair@$$CBIUFileIndexInfo@@@std@@@3@@std@@@std@@6B@ 100b4ea0     update.obj
 0002:00011eb4       ??_R4DeleteSrcFiles@@6B@   100b4eb4     update.obj
 0002:00011ec8       ??_R4ArchiveUpdater@@6BComBase@@@ 100b4ec8     update.obj
 0002:00011edc       ??_R4ArchiveUpdater@@6BICryptoGetTextPassword2@@@ 100b4edc     update.obj
 0002:00011ef0       ??_R4ArchiveUpdater@@6BIArchiveUpdateCallback@@@ 100b4ef0     update.obj
 0002:00011f04       ??_R4PrepareUpdate@@6B@    100b4f04     update.obj
 0002:00011f18       ??_R4FileReadStream@@6BComBase@@@ 100b4f18     update.obj
 0002:00011f2c       ??_R4FileReadStream@@6BIStreamGetSize@@@ 100b4f2c     update.obj
 0002:00011f40       ??_R4FileReadStream@@6BIInStream@@@ 100b4f40     update.obj
 0002:00011f54       ??_R4MultiVolumeUpdateStream@@6BComBase@@@ 100b4f54     update.obj
 0002:00011f68       ??_R4MultiVolumeUpdateStream@@6BUpdateStream@@@ 100b4f68     update.obj
 0002:00011f7c       ??_R4SfxUpdateStream@@6BComBase@@@ 100b4f7c     update.obj
 0002:00011f90       ??_R4SfxUpdateStream@@6BUpdateStream@@@ 100b4f90     update.obj
 0002:00011fa4       ??_R4SimpleUpdateStream@@6BComBase@@@ 100b4fa4     update.obj
 0002:00011fb8       ??_R4SimpleUpdateStream@@6BUpdateStream@@@ 100b4fb8     update.obj
 0002:00011fcc       ??_R4UpdateStream@@6B@     100b4fcc     update.obj
 0002:00011fe0       ??_R4ArchiveUpdateProgress@@6B@ 100b4fe0     update.obj
 0002:00011ff4       ??_R4ICryptoGetTextPassword2@@6B@ 100b4ff4     update.obj
 0002:00012010       ___safe_se_handler_table   100b5010     <linker-defined>
 0002:00012a14       ___rtc_iaa                 100b5a14     LIBCMT:initsect.obj
 0002:00012a18       ___rtc_izz                 100b5a18     LIBCMT:initsect.obj
 0002:00012a1c       ___rtc_taa                 100b5a1c     LIBCMT:initsect.obj
 0002:00012a20       ___rtc_tzz                 100b5a20     LIBCMT:initsect.obj
 0002:0001cb88       __TI2?AVbad_alloc@std@@    100bfb88     libcpmt:xthrow.obj
 0002:0001cb98       __CTA2?AVbad_alloc@std@@   100bfb98     libcpmt:xthrow.obj
 0002:0001cba4       __CT??_R0?AVlogic_error@std@@@8??0logic_error@std@@QAE@ABV01@@Z12 100bfba4     libcpmt:xthrow.obj
 0002:0001cbc0       __TI3?AVlength_error@std@@ 100bfbc0     libcpmt:xthrow.obj
 0002:0001cbd0       __CTA3?AVlength_error@std@@ 100bfbd0     libcpmt:xthrow.obj
 0002:0001cbe0       __CT??_R0?AVlength_error@std@@@8??0length_error@std@@QAE@ABV01@@Z12 100bfbe0     libcpmt:xthrow.obj
 0002:0001cbfc       __TI3?AVout_of_range@std@@ 100bfbfc     libcpmt:xthrow.obj
 0002:0001cc0c       __CTA3?AVout_of_range@std@@ 100bfc0c     libcpmt:xthrow.obj
 0002:0001cc1c       __CT??_R0?AVout_of_range@std@@@8??0out_of_range@std@@QAE@ABV01@@Z12 100bfc1c     libcpmt:xthrow.obj
 0002:0001cc38       __TI2?AVruntime_error@std@@ 100bfc38     libcpmt:xthrow.obj
 0002:0001cc48       __CTA2?AVruntime_error@std@@ 100bfc48     libcpmt:xthrow.obj
 0002:0001cda4       __TI3?AV__non_rtti_object@std@@ 100bfda4     libvcruntime:rtti.obj
 0002:0001cdb4       __CTA3?AV__non_rtti_object@std@@ 100bfdb4     libvcruntime:rtti.obj
 0002:0001cdc4       __CT??_R0?AV__non_rtti_object@std@@@8??0__non_rtti_object@std@@QAE@ABV01@@Z12 100bfdc4     libvcruntime:rtti.obj
 0002:0001cde0       __CT??_R0?AVbad_typeid@std@@@8??0bad_typeid@std@@QAE@ABV01@@Z12 100bfde0     libvcruntime:rtti.obj
 0002:0001cdfc       __TI2?AVbad_typeid@std@@   100bfdfc     libvcruntime:rtti.obj
 0002:0001ce0c       __CTA2?AVbad_typeid@std@@  100bfe0c     libvcruntime:rtti.obj
 0002:0001cefc       __TI2?AVbad_exception@std@@ 100bfefc     libvcruntime:frame.obj
 0002:0001cf0c       __CTA2?AVbad_exception@std@@ 100bff0c     libvcruntime:frame.obj
 0002:0001cf18       __CT??_R0?AVbad_exception@std@@@8??0bad_exception@std@@QAE@ABV01@@Z12 100bff18     libvcruntime:frame.obj
 0002:0001d364       __CTA1?AUError@@           100c0364     archive.obj
 0002:0001d36c       __CT??_R0?AUError@@@8??0Error@@QAE@ABU0@@Z36 100c036c     archive.obj
 0002:0001d388       __TI1?AUError@@            100c0388     archive.obj
 0002:0001d398       __CT??_R0?AVbad_array_new_length@std@@@8??0bad_array_new_length@std@@QAE@ABV01@@Z12 100c0398     archive.obj
 0002:0001d3b4       __CT??_R0?AVbad_alloc@std@@@8??0bad_alloc@std@@QAE@ABV01@@Z12 100c03b4     archive.obj
 0002:0001d3d0       __CT??_R0?AVexception@std@@@8??0exception@std@@QAE@ABV01@@Z12 100c03d0     archive.obj
 0002:0001d3ec       __CTA3?AVbad_array_new_length@std@@ 100c03ec     archive.obj
 0002:0001d3fc       __TI3?AVbad_array_new_length@std@@ 100c03fc     archive.obj
 0002:0001d40c       __CT??_R0?AVfailure@ios_base@std@@@8??0failure@ios_base@std@@QAE@ABV012@@Z20 100c040c     delete.obj
 0002:0001d428       __CT??_R0?AVsystem_error@std@@@8??0system_error@std@@QAE@ABV01@@Z20 100c0428     delete.obj
 0002:0001d444       __CT??_R0?AV_System_error@std@@@8??0_System_error@std@@QAE@ABV01@@Z20 100c0444     delete.obj
 0002:0001d460       __CT??_R0?AVruntime_error@std@@@8??0runtime_error@std@@QAE@ABV01@@Z12 100c0460     delete.obj
 0002:0001d47c       __CTA5?AVfailure@ios_base@std@@ 100c047c     delete.obj
 0002:0001d494       __TI5?AVfailure@ios_base@std@@ 100c0494     delete.obj
 0002:0001d4a4       __CT??_R0?AVbad_weak_ptr@std@@@8??0bad_weak_ptr@std@@QAE@ABV01@@Z12 100c04a4     extract.obj
 0002:0001d4c0       __CTA2?AVbad_weak_ptr@std@@ 100c04c0     extract.obj
 0002:0001d4cc       __TI2?AVbad_weak_ptr@std@@ 100c04cc     extract.obj
 0002:0001d4dc       __CTA1?AVParseException@SimpleXML@@ 100c04dc     SimpleXML.obj
 0002:0001d4e4       __CT??_R0?AVParseException@SimpleXML@@@88 100c04e4     SimpleXML.obj
 0002:0001d500       __TI1?AVParseException@SimpleXML@@ 100c0500     SimpleXML.obj
 0002:0001d6fc       __IMPORT_DESCRIPTOR_KERNEL32 100c06fc     kernel32:KERNEL32.dll
 0002:0001d710       __IMPORT_DESCRIPTOR_ADVAPI32 100c0710     advapi32:ADVAPI32.dll
 0002:0001d724       __IMPORT_DESCRIPTOR_USER32 100c0724     user32:USER32.dll
 0002:0001d738       __IMPORT_DESCRIPTOR_ole32  100c0738     ole32:ole32.dll
 0002:0001d74c       __IMPORT_DESCRIPTOR_OLEAUT32 100c074c     oleaut32:OLEAUT32.dll
 0002:0001d760       __IMPORT_DESCRIPTOR_VERSION 100c0760     version:VERSION.dll
 0002:0001d774       __NULL_IMPORT_DESCRIPTOR   100c0774     kernel32:KERNEL32.dll
 0003:00000000       ?_Sync@ios_base@std@@0_NA  100c2000     libcpmt:ios.obj
 0003:0000000c       ___do_unsigned_char_lconv_initialization 100c200c     LIBCMT:lconv_unsigned_char.obj
 0003:00000010       ___scrt_native_dllmain_reason 100c2010     LIBCMT:utility.obj
 0003:00000014       ___security_cookie_complement 100c2014     LIBCMT:gs_cookie.obj
 0003:00000018       ___security_cookie         100c2018     LIBCMT:gs_cookie.obj
 0003:0000001c       __fltused                  100c201c     LIBCMT:fltused.obj
 0003:00000020       ___isa_enabled             100c2020     LIBCMT:cpu_disp.obj
 0003:00000040       __NLG_Destination          100c2040     libvcruntime:exsup.obj
 0003:00000050       ___acrt_lconv_c            100c2050     libucrt:localeconv.obj
 0003:000000a0       ___acrt_lconv              100c20a0     libucrt:localeconv.obj
 0003:000000a4       ___acrt_lconv_static_decimal 100c20a4     libucrt:localeconv.obj
 0003:000000a8       ___acrt_lconv_static_W_decimal 100c20a8     libucrt:localeconv.obj
 0003:000000b4       __pctype                   100c20b4     libucrt:ctype.obj
 0003:000000b8       __pwctype                  100c20b8     libucrt:ctype.obj
 0003:000000c0       ___abort_behavior          100c20c0     libucrt:abort.obj
 0003:000000d8       ___acrt_initial_locale_data 100c20d8     libucrt:nlsdata.obj
 0003:00000190       ___acrt_initial_locale_pointers 100c2190     libucrt:nlsdata.obj
 0003:00000198       ___acrt_wide_c_locale_string 100c2198     libucrt:nlsdata.obj
 0003:0000019c       ___mb_cur_max              100c219c     libucrt:nlsdata.obj
 0003:000001a0       __iob                      100c21a0     libucrt:_file.obj
 0003:00000250       ___globallocalestatus      100c2250     libucrt:glstatus.obj
 0003:000002e8       ___acrt_initial_multibyte_data 100c22e8     libucrt:mbctype.obj
 0003:00000810       __lookuptrailbytes         100c2810     libucrt:read.obj
 0003:00000e80       ??_R0?AVlogic_error@std@@@8 100c2e80     libcpmt:xthrow.obj
 0003:00000ea0       ??_R0?AVlength_error@std@@@8 100c2ea0     libcpmt:xthrow.obj
 0003:00000ec0       ??_R0?AVout_of_range@std@@@8 100c2ec0     libcpmt:xthrow.obj
 0003:00000ee0       ??_R0?AV_Locimp@locale@std@@@8 100c2ee0     libcpmt:locale0.obj
 0003:00000f04       ??_R0?AVtype_info@@@8      100c2f04     LIBCMT:std_type_info_static.obj
 0003:00000f1c       ??_R0?AV__non_rtti_object@std@@@8 100c2f1c     libvcruntime:rtti.obj
 0003:00000f40       ??_R0?AVbad_typeid@std@@@8 100c2f40     libvcruntime:rtti.obj
 0003:00000f60       ??_R0?AVbad_exception@std@@@8 100c2f60     libvcruntime:frame.obj
 0003:00000f80       ??_R0?AVDNameNode@@@8      100c2f80     libvcruntime:undname.obj
 0003:00000f98       ??_R0?AVcharNode@@@8       100c2f98     libvcruntime:undname.obj
 0003:00000fb0       ??_R0?AVpcharNode@@@8      100c2fb0     libvcruntime:undname.obj
 0003:00000fc8       ??_R0?AVpDNameNode@@@8     100c2fc8     libvcruntime:undname.obj
 0003:00000fe4       ??_R0?AVDNameStatusNode@@@8 100c2fe4     libvcruntime:undname.obj
 0003:00001004       ??_R0?AVpairNode@@@8       100c3004     libvcruntime:undname.obj
 0003:0000101c       ??_R0?AVMyCompressCodecsInfo@@@8 100c301c     archive.obj
 0003:00001040       ??_R0?AVComBase@@@8        100c3040     archive.obj
 0003:00001058       ??_R0?AUIHashers@@@8       100c3058     archive.obj
 0003:00001070       ??_R0?AUICompressCodecsInfo@@@8 100c3070     archive.obj
 0003:00001094       ??_R0?AUIUnknown@@@8       100c3094     archive.obj
 0003:000010ac       ??_R0?AUError@@@8          100c30ac     archive.obj
 0003:000010c0       ??_R0?AVbad_array_new_length@std@@@8 100c30c0     archive.obj
 0003:000010e8       ??_R0?AVbad_alloc@std@@@8  100c30e8     archive.obj
 0003:00001104       ??_R0?AVexception@std@@@8  100c3104     archive.obj
 0003:00001120       ??_R0?AV_Ref_count_base@std@@@8 100c3120     delete.obj
 0003:00001144       ??_R0?AV?$_Ref_count@VArchiveFileDeleterProgress@@@std@@@8 100c3144     delete.obj
 0003:00001184       ??_R0?AVArchiveFileDeleter@@@8 100c3184     delete.obj
 0003:000011a8       ??_R0?AVFile@@@8           100c31a8     delete.obj
 0003:000011bc       ??_R0?AVArchiveFileDeleterStream@@@8 100c31bc     delete.obj
 0003:000011e4       ??_R0?AVProgressMonitor@@@8 100c31e4     delete.obj
 0003:00001204       ??_R0?AVArchiveFileDeleterProgress@@@8 100c3204     delete.obj
 0003:00001230       ??_R0?AVNonCopyable@@@8    100c3230     delete.obj
 0003:0000124c       ??_R0?AUIArchiveUpdateCallback@@@8 100c324c     delete.obj
 0003:00001274       ??_R0?AUIOutStream@@@8     100c3274     delete.obj
 0003:00001290       ??_R0?AUISequentialOutStream@@@8 100c3290     delete.obj
 0003:000012b4       ??_R0?AUIProgress@@@8      100c32b4     delete.obj
 0003:000012d0       ??_R0?AV?$basic_ostringstream@_WU?$char_traits@_W@std@@V?$allocator@_W@2@@std@@@8 100c32d0     delete.obj
 0003:00001328       ??_R0?AV?$basic_stringbuf@_WU?$char_traits@_W@std@@V?$allocator@_W@2@@std@@@8 100c3328     delete.obj
 0003:00001378       ??_R0?AV?$basic_ostream@_WU?$char_traits@_W@std@@@std@@@8 100c3378     delete.obj
 0003:000013b4       ??_R0?AV?$basic_streambuf@_WU?$char_traits@_W@std@@@std@@@8 100c33b4     delete.obj
 0003:000013f4       ??_R0?AV?$basic_ios@_WU?$char_traits@_W@std@@@std@@@8 100c33f4     delete.obj
 0003:0000142c       ??_R0?AV?$ctype@_W@std@@@8 100c342c     delete.obj
 0003:0000144c       ??_R0?AUctype_base@std@@@8 100c344c     delete.obj
 0003:0000146c       ??_R0?AVfacet@locale@std@@@8 100c346c     delete.obj
 0003:0000148c       ??_R0?AU_Crt_new_delete@std@@@8 100c348c     delete.obj
 0003:000014b0       ??_R0?AV_Iostream_error_category@std@@@8 100c34b0     delete.obj
 0003:000014dc       ??_R0?AV_Generic_error_category@std@@@8 100c34dc     delete.obj
 0003:00001508       ??_R0?AVerror_category@std@@@8 100c3508     delete.obj
 0003:0000152c       ??_R0?AVfailure@ios_base@std@@@8 100c352c     delete.obj
 0003:00001550       ??_R0?AVsystem_error@std@@@8 100c3550     delete.obj
 0003:00001570       ??_R0?AV_System_error@std@@@8 100c3570     delete.obj
 0003:00001590       ??_R0?AVruntime_error@std@@@8 100c3590     delete.obj
 0003:000015b0       ??_R0?AV_Facet_base@std@@@8 100c35b0     delete.obj
 0003:000015d0       ??_R0?AVios_base@std@@@8   100c35d0     delete.obj
 0003:000015ec       ??_R0?AV?$_Iosb@H@std@@@8  100c35ec     delete.obj
 0003:00001608       ??_R0?AV?$_Ref_count@V?$set@IU?$less@I@std@@V?$allocator@I@2@@std@@@std@@@8 100c3608     extract.obj
 0003:00001658       ??_R0?AV?$_Ref_count@VFileWriteCache@@@std@@@8 100c3658     extract.obj
 0003:0000168c       ??_R0?AV?$_Ref_count@VExtractProgress@@@std@@@8 100c368c     extract.obj
 0003:000016c0       ??_R0?AV?$_Ref_count@W4OverwriteAction@@@std@@@8 100c36c0     extract.obj
 0003:000016f4       ??_R0?AV?$_Ref_count@_N@std@@@8 100c36f4     extract.obj
 0003:00001718       ??_R0?AVSetDirAttr@@@8     100c3718     extract.obj
 0003:00001734       ??_R0?AVPrepareExtract@@@8 100c3734     extract.obj
 0003:00001754       ??_R0?AVArchiveExtractor@@@8 100c3754     extract.obj
 0003:00001774       ??_R0?AVCachedFileExtractStream@@@8 100c3774     extract.obj
 0003:0000179c       ??_R0?AVExtractProgress@@@8 100c379c     extract.obj
 0003:000017bc       ??_R0?AUICryptoGetTextPassword@@@8 100c37bc     extract.obj
 0003:000017e4       ??_R0?AUIArchiveExtractCallback@@@8 100c37e4     extract.obj
 0003:0000180c       ??_R0?AVbad_weak_ptr@std@@@8 100c380c     extract.obj
 0003:0000182c       ??_R0?AV?$numpunct@_W@std@@@8 100c382c     farutils.obj
 0003:00001850       ??_R0?AV?$num_put@_WV?$ostreambuf_iterator@_WU?$char_traits@_W@std@@@std@@@std@@@8 100c3850     farutils.obj
 0003:000018a8       ??_R0?AVDialog@Far@@@8     100c38a8     farutils.obj
 0003:000018c4       ??_R0?AV?$_Ref_count@VArchive@@@std@@@8 100c38c4     open.obj
 0003:000018f0       ??_R0?AVArchiveOpener@@@8  100c38f0     open.obj
 0003:0000190c       ??_R0?AVArchiveOpenStream@@@8 100c390c     open.obj
 0003:0000192c       ??_R0?AVArchiveSubStream@@@8 100c392c     open.obj
 0003:0000194c       ??_R0?AUIArchiveOpenVolumeCallback@@@8 100c394c     open.obj
 0003:00001978       ??_R0?AUIArchiveOpenCallback@@@8 100c3978     open.obj
 0003:0000199c       ??_R0?AUIInStream@@@8      100c399c     open.obj
 0003:000019b4       ??_R0?AUISequentialInStream@@@8 100c39b4     open.obj
 0003:000019d8       ??_R0?AVxml_parser@@@8     100c39d8     options.obj
 0003:000019f4       ??_R0?AVIParseCallback@SimpleXML@@@8 100c39f4     options.obj
 0003:00001a88       ??_R0?AV?$_Ref_count@V?$list@UError@@V?$allocator@UError@@@std@@@std@@@std@@@8 100c3a88     plugin.obj
 0003:00001adc       ??_R0?AVPluginPanelItems@?1??extract@Plugin@@QAEXXZ@@8 100c3adc     plugin.obj
 0003:00001b18       ??_R0?AVPluginPanelItems@?1??get_files@Plugin@@QAEXPBUPluginPanelItem@@HHPAPB_W_K@Z@@8 100c3b18     plugin.obj
 0003:00001b74       ??_R0?AVPluginPanelItemAccessor@Plugin@@@8 100c3b74     plugin.obj
 0003:00001bec       ??_R0?AVSfxOptionsDialog@@@8 100c3bec     sfx.obj
 0003:00001c0c       ??_R0?AVAttachSfxModuleProgress@@@8 100c3c0c     sfx.obj
 0003:00001c34       ??_R0?AVParseException@SimpleXML@@@8 100c3c34     SimpleXML.obj
 0003:00001c5c       ??_R0?AU_RTL_CRITICAL_SECTION@@@8 100c3c5c     sysutils.obj
 0003:00001c80       ??_R0?AVCriticalSection@@@8 100c3c80     sysutils.obj
 0003:00001ca0       ??_R0?AVArchiveTester@@@8  100c3ca0     test.obj
 0003:00001cbc       ??_R0?AV?$_Ref_count@VFileFilter@Far@@@std@@@8 100c3cbc     ui.obj
 0003:00001cf0       ??_R0?AVAttrDialog@@@8     100c3cf0     ui.obj
 0003:00001d0c       ??_R0?AVSettingsDialog@@@8 100c3d0c     ui.obj
 0003:00001d2c       ??_R0?AVFormatLibraryInfoDialog@@@8 100c3d2c     ui.obj
 0003:00001d54       ??_R0?AVMultiSelectDialog@@@8 100c3d54     ui.obj
 0003:00001d74       ??_R0?AVUpdateDialog@@@8   100c3d74     ui.obj
 0003:00001d90       ??_R0?AVExtractDialog@@@8  100c3d90     ui.obj
 0003:00001dac       ??_R0?AVOverwriteDialog@@@8 100c3dac     ui.obj
 0003:00001dcc       ??_R0?AVPasswordDialog@@@8 100c3dcc     ui.obj
 0003:00001dec       ??_R0?AV?$_Ref_count@VArchiveUpdateProgress@@@std@@@8 100c3dec     update.obj
 0003:00001e28       ??_R0?AV?$_Ref_count@V?$map@IUFileIndexInfo@@U?$less@I@std@@V?$allocator@U?$pair@$$CBIUFileIndexInfo@@@std@@@3@@std@@@std@@@8 100c3e28     update.obj
 0003:00001ea8       ??_R0?AVDeleteSrcFiles@@@8 100c3ea8     update.obj
 0003:00001ec8       ??_R0?AVArchiveUpdater@@@8 100c3ec8     update.obj
 0003:00001ee8       ??_R0?AVPrepareUpdate@@@8  100c3ee8     update.obj
 0003:00001f04       ??_R0?AVFileReadStream@@@8 100c3f04     update.obj
 0003:00001f24       ??_R0?AVMultiVolumeUpdateStream@@@8 100c3f24     update.obj
 0003:00001f4c       ??_R0?AVSfxUpdateStream@@@8 100c3f4c     update.obj
 0003:00001f6c       ??_R0?AVSimpleUpdateStream@@@8 100c3f6c     update.obj
 0003:00001f90       ??_R0?AVUpdateStream@@@8   100c3f90     update.obj
 0003:00001fac       ??_R0?AVArchiveUpdateProgress@@@8 100c3fac     update.obj
 0003:00001fd0       ??_R0?AUICryptoGetTextPassword2@@@8 100c3fd0     update.obj
 0003:00001ff8       ??_R0?AUIStreamGetSize@@@8 100c3ff8     update.obj
 0003:00002020       ?_Index@ios_base@std@@0HA  100c4020     libcpmt:ios.obj
 0003:00002058       ?_Id_cnt@id@locale@std@@0HA 100c4058     libcpmt:locale0.obj
 0003:0000205c       ?_Clocptr@_Locimp@locale@std@@0PAV123@A 100c405c     libcpmt:locale0.obj
 0003:00002060       ?id@?$ctype@G@std@@2V0locale@2@A 100c4060     libcpmt:locale0.obj
 0003:00002064       ?id@?$codecvt@_WDU_Mbstatet@@@std@@2V0locale@2@A 100c4064     libcpmt:locale0.obj
 0003:00002068       ?id@?$codecvt@GDU_Mbstatet@@@std@@2V0locale@2@A 100c4068     libcpmt:locale0.obj
 0003:0000206c       ?id@?$ctype@_W@std@@2V0locale@2@A 100c406c     libcpmt:locale0.obj
 0003:00002070       ?id@?$ctype@D@std@@2V0locale@2@A 100c4070     libcpmt:locale0.obj
 0003:00002158       ?id@?$num_get@DV?$istreambuf_iterator@DU?$char_traits@D@std@@@std@@@std@@2V0locale@2@A 100c4158     libcpmt:locale.obj
 0003:0000215c       ?id@?$num_put@DV?$ostreambuf_iterator@DU?$char_traits@D@std@@@std@@@std@@2V0locale@2@A 100c415c     libcpmt:locale.obj
 0003:00002160       ?id@?$numpunct@D@std@@2V0locale@2@A 100c4160     libcpmt:locale.obj
 0003:00002164       ?id@?$codecvt@DDU_Mbstatet@@@std@@2V0locale@2@A 100c4164     libcpmt:locale.obj
 0003:00002168       ?_Ptr_cin@std@@3PAV?$basic_istream@DU?$char_traits@D@std@@@1@A 100c4168     libcpmt:iosptrs.obj
 0003:0000216c       ?_Ptr_cout@std@@3PAV?$basic_ostream@DU?$char_traits@D@std@@@1@A 100c416c     libcpmt:iosptrs.obj
 0003:00002170       ?_Ptr_cerr@std@@3PAV?$basic_ostream@DU?$char_traits@D@std@@@1@A 100c4170     libcpmt:iosptrs.obj
